
hello.elf:     file format elf32-littlemips

Disassembly of section .init:

00100000 <_init>:
  100000:	27bdffa0 	addiu	sp,sp,-96
  100004:	7fbf0050 	sq	ra,80(sp)
  100008:	0c04002c 	jal	1000b0 <frame_dummy>
  10000c:	00000000 	nop
  100010:	0c043d32 	jal	10f4c8 <$LFE1>
  100014:	00000000 	nop
  100018:	7bbf0050 	lq	ra,80(sp)
  10001c:	03e00008 	jr	ra
  100020:	27bd0060 	addiu	sp,sp,96
Disassembly of section .text:

00100030 <_ftext>:
  100030:	27bdffe0 	addiu	sp,sp,-32
  100034:	3c020011 	lui	v0,0x11
  100038:	ffbf0010 	sd	ra,16(sp)
  10003c:	ffb00000 	sd	s0,0(sp)
  100040:	90432cc0 	lbu	v1,11456(v0)
  100044:	1460000f 	bnez	v1,100084 <_ftext+0x54>
  100048:	3c100011 	lui	s0,0x11
  10004c:	8e02ff14 	lw	v0,-236(s0)
  100050:	8c430000 	lw	v1,0(v0)
  100054:	50600009 	beqzl	v1,10007c <_ftext+0x4c>
  100058:	24030001 	li	v1,1
  10005c:	24420004 	addiu	v0,v0,4
  100060:	0060f809 	jalr	v1
  100064:	ae02ff14 	sw	v0,-236(s0)
  100068:	8e02ff14 	lw	v0,-236(s0)
  10006c:	8c430000 	lw	v1,0(v0)
  100070:	1460fffb 	bnez	v1,100060 <_ftext+0x30>
  100074:	24420004 	addiu	v0,v0,4
  100078:	24030001 	li	v1,1
  10007c:	3c020011 	lui	v0,0x11
  100080:	a0432cc0 	sb	v1,11456(v0)
  100084:	dfbf0010 	ld	ra,16(sp)
  100088:	dfb00000 	ld	s0,0(sp)
  10008c:	03e00008 	jr	ra
  100090:	27bd0020 	addiu	sp,sp,32
  100094:	00000000 	nop

00100098 <call___do_global_dtors_aux>:
  100098:	27bdfff0 	addiu	sp,sp,-16
  10009c:	ffbf0000 	sd	ra,0(sp)
  1000a0:	dfbf0000 	ld	ra,0(sp)
  1000a4:	03e00008 	jr	ra
  1000a8:	27bd0010 	addiu	sp,sp,16
  1000ac:	00000000 	nop

001000b0 <frame_dummy>:
  1000b0:	27bdfff0 	addiu	sp,sp,-16
  1000b4:	3c020011 	lui	v0,0x11
  1000b8:	ffbf0000 	sd	ra,0(sp)
  1000bc:	8c432c38 	lw	v1,11320(v0)
  1000c0:	10600007 	beqz	v1,1000e0 <frame_dummy+0x30>
  1000c4:	24442c38 	addiu	a0,v0,11320
  1000c8:	3c020000 	lui	v0,0x0
  1000cc:	24420000 	addiu	v0,v0,0
  1000d0:	10400004 	beqz	v0,1000e4 <frame_dummy+0x34>
  1000d4:	dfbf0000 	ld	ra,0(sp)
  1000d8:	0c000000 	jal	0 <_DYNAMIC_LINK>
  1000dc:	00000000 	nop
  1000e0:	dfbf0000 	ld	ra,0(sp)
  1000e4:	03e00008 	jr	ra
  1000e8:	27bd0010 	addiu	sp,sp,16
  1000ec:	00000000 	nop

001000f0 <call_frame_dummy>:
  1000f0:	27bdfff0 	addiu	sp,sp,-16
  1000f4:	ffbf0000 	sd	ra,0(sp)
  1000f8:	dfbf0000 	ld	ra,0(sp)
  1000fc:	03e00008 	jr	ra
  100100:	27bd0010 	addiu	sp,sp,16
  100104:	00000000 	nop

00100108 <_start>:
  100108:	3c020011 	lui	v0,0x11
  10010c:	24422c88 	addiu	v0,v0,11400
  100110:	3c030011 	lui	v1,0x11
  100114:	246356e0 	addiu	v1,v1,22240
  100118:	0043082b 	sltu	at,v0,v1
  10011c:	10200005 	beqz	at,100134 <setupthread>
  100120:	00000000 	nop
  100124:	7c400000 	sq	zero,0(v0)
  100128:	24420010 	addiu	v0,v0,16
  10012c:	08040046 	j	100118 <_start+0x10>
  100130:	00000000 	nop

00100134 <setupthread>:
  100134:	3c040012 	lui	a0,0x12
  100138:	2484ac30 	addiu	a0,a0,-21456
  10013c:	3c050000 	lui	a1,0x0
  100140:	24a5ffff 	addiu	a1,a1,-1
  100144:	3c060002 	lui	a2,0x2
  100148:	24c60000 	addiu	a2,a2,0
  10014c:	3c070011 	lui	a3,0x11
  100150:	24e72d00 	addiu	a3,a3,11520
  100154:	3c080010 	lui	t0,0x10
  100158:	25080238 	addiu	t0,t0,568
  10015c:	0080e02d 	move	gp,a0
  100160:	2403003c 	li	v1,60
  100164:	0000000c 	syscall
  100168:	0040e82d 	move	sp,v0
  10016c:	3c040011 	lui	a0,0x11
  100170:	248456e0 	addiu	a0,a0,22240
  100174:	3c050000 	lui	a1,0x0
  100178:	24a5ffff 	addiu	a1,a1,-1
  10017c:	2403003d 	li	v1,61
  100180:	0000000c 	syscall
  100184:	0c04233c 	jal	108cf0 <FlushCache>
  100188:	0000202d 	move	a0,zero

0010018c <parseargs>:
  10018c:	3c100011 	lui	s0,0x11
  100190:	26102d00 	addiu	s0,s0,11520
  100194:	3c080011 	lui	t0,0x11
  100198:	25088b80 	addiu	t0,t0,-29824
  10019c:	11000003 	beqz	t0,1001ac <libc_init>
  1001a0:	8e040000 	lw	a0,0(s0)
  1001a4:	0100f809 	jalr	t0
  1001a8:	26050004 	addiu	a1,s0,4

001001ac <libc_init>:
  1001ac:	3c080011 	lui	t0,0x11
  1001b0:	25088b40 	addiu	t0,t0,-29888
  1001b4:	11000003 	beqz	t0,1001c4 <ctors>
  1001b8:	00000000 	nop
  1001bc:	0100f809 	jalr	t0
  1001c0:	00000000 	nop

001001c4 <ctors>:
  1001c4:	3c080010 	lui	t0,0x10
  1001c8:	25080000 	addiu	t0,t0,0
  1001cc:	11000003 	beqz	t0,1001dc <ctors+0x18>
  1001d0:	00000000 	nop
  1001d4:	0100f809 	jalr	t0
  1001d8:	00000000 	nop
  1001dc:	0c0426c8 	jal	109b20 <_InitSys>
  1001e0:	00000000 	nop
  1001e4:	42000038 	ei
  1001e8:	8e040000 	lw	a0,0(s0)
  1001ec:	0c040090 	jal	100240 <main>
  1001f0:	26050004 	addiu	a1,s0,4
  1001f4:	08040080 	j	100200 <_exit>
  1001f8:	0040202d 	move	a0,v0
  1001fc:	00000000 	nop

00100200 <_exit>:
  100200:	3c080011 	lui	t0,0x11
  100204:	2508f538 	addiu	t0,t0,-2760
  100208:	11000003 	beqz	t0,100218 <libc_uninit>
  10020c:	0080802d 	move	s0,a0
  100210:	0100f809 	jalr	t0
  100214:	00000000 	nop

00100218 <libc_uninit>:
  100218:	3c080011 	lui	t0,0x11
  10021c:	25088b60 	addiu	t0,t0,-29856
  100220:	11000003 	beqz	t0,100230 <libc_uninit+0x18>
  100224:	00000000 	nop
  100228:	0100f809 	jalr	t0
  10022c:	00000000 	nop
  100230:	08042854 	j	10a150 <Exit>
  100234:	0200202d 	move	a0,s0

00100238 <_root>:
  100238:	24030023 	li	v1,35
  10023c:	0000000c 	syscall

00100240 <main>:
  100240:	27bdffe0 	addiu	sp,sp,-32
  100244:	ffbf0010 	sd	ra,16(sp)
  100248:	ffbe0000 	sd	s8,0(sp)
  10024c:	0c0400fc 	jal	1003f0 <init_scr>
  100250:	03a0f02d 	move	s8,sp
  100254:	27848010 	addiu	a0,gp,-32752
  100258:	8f858044 	lw	a1,-32700(gp)
  10025c:	0c040188 	jal	100620 <scr_printf>
  100260:	00000000 	nop
  100264:	27848018 	addiu	a0,gp,-32744
  100268:	8f858048 	lw	a1,-32696(gp)
  10026c:	0c040188 	jal	100620 <scr_printf>
  100270:	00000000 	nop
  100274:	27848020 	addiu	a0,gp,-32736
  100278:	8f85804c 	lw	a1,-32692(gp)
  10027c:	0c040188 	jal	100620 <scr_printf>
  100280:	00000000 	nop
  100284:	27848028 	addiu	a0,gp,-32728
  100288:	8f858050 	lw	a1,-32688(gp)
  10028c:	0c040188 	jal	100620 <scr_printf>
  100290:	00000000 	nop
  100294:	00000000 	nop
  100298:	1000fffe 	b	100294 <main+0x54>
  10029c:	00000000 	nop

001002a0 <debug_detect_signal>:
  1002a0:	27bdffe0 	addiu	sp,sp,-32
  1002a4:	ffbf0010 	sd	ra,16(sp)
  1002a8:	0c042676 	jal	1099d8 <GetRomName>
  1002ac:	03a0202d 	move	a0,sp
  1002b0:	dfbf0010 	ld	ra,16(sp)
  1002b4:	83a20004 	lb	v0,4(sp)
  1002b8:	38420045 	xori	v0,v0,0x45
  1002bc:	2c420001 	sltiu	v0,v0,1
  1002c0:	03e00008 	jr	ra
  1002c4:	27bd0020 	addiu	sp,sp,32

001002c8 <Init_GS>:
  1002c8:	27bdffc0 	addiu	sp,sp,-64
  1002cc:	3c031200 	lui	v1,0x1200
  1002d0:	34631000 	ori	v1,v1,0x1000
  1002d4:	ffb20020 	sd	s2,32(sp)
  1002d8:	ffb10010 	sd	s1,16(sp)
  1002dc:	24020200 	li	v0,512
  1002e0:	ffb00000 	sd	s0,0(sp)
  1002e4:	00a0882d 	move	s1,a1
  1002e8:	00c0902d 	move	s2,a2
  1002ec:	0080802d 	move	s0,a0
  1002f0:	fc620000 	sd	v0,0(v1)
  1002f4:	00129400 	sll	s2,s2,0x10
  1002f8:	00108400 	sll	s0,s0,0x10
  1002fc:	00118c00 	sll	s1,s1,0x10
  100300:	3404ff00 	li	a0,0xff00
  100304:	00108403 	sra	s0,s0,0x10
  100308:	00118c03 	sra	s1,s1,0x10
  10030c:	ffbf0030 	sd	ra,48(sp)
  100310:	0c042340 	jal	108d00 <GsPutIMR>
  100314:	00129403 	sra	s2,s2,0x10
  100318:	0200202d 	move	a0,s0
  10031c:	0220282d 	move	a1,s1
  100320:	0c042328 	jal	108ca0 <SetGsCrt>
  100324:	0240302d 	move	a2,s2
  100328:	dfb00000 	ld	s0,0(sp)
  10032c:	dfbf0030 	ld	ra,48(sp)
  100330:	dfb20020 	ld	s2,32(sp)
  100334:	dfb10010 	ld	s1,16(sp)
  100338:	03e00008 	jr	ra
  10033c:	27bd0040 	addiu	sp,sp,64

00100340 <SetVideoMode>:
  100340:	3c03001b 	lui	v1,0x1b
  100344:	3c020983 	lui	v0,0x983
  100348:	3c071200 	lui	a3,0x1200
  10034c:	24050001 	li	a1,1
  100350:	3463f9ff 	ori	v1,v1,0xf9ff
  100354:	3442227c 	ori	v0,v0,0x227c
  100358:	3406ff62 	li	a2,0xff62
  10035c:	0003183c 	dsll32	v1,v1,0x0
  100360:	24041400 	li	a0,5120
  100364:	fce60000 	sd	a2,0(a3)
  100368:	00621825 	or	v1,v1,v0
  10036c:	fce50020 	sd	a1,32(a3)
  100370:	fce40090 	sd	a0,144(a3)
  100374:	fce300a0 	sd	v1,160(a3)
  100378:	03e00008 	jr	ra
  10037c:	00000000 	nop

00100380 <DmaReset>:
  100380:	3c031001 	lui	v1,0x1001
  100384:	ac60a080 	sw	zero,-24448(v1)
  100388:	ac60b000 	sw	zero,-20480(v1)
  10038c:	ac60a030 	sw	zero,-24528(v1)
  100390:	ac60a010 	sw	zero,-24560(v1)
  100394:	ac60a050 	sw	zero,-24496(v1)
  100398:	ac60a040 	sw	zero,-24512(v1)
  10039c:	3c020000 	lui	v0,0x0
  1003a0:	3442ff1f 	ori	v0,v0,0xff1f
  1003a4:	ac62e010 	sw	v0,-8176(v1)
  1003a8:	8c62e010 	lw	v0,-8176(v1)
  1003ac:	3042ff1f 	andi	v0,v0,0xff1f
  1003b0:	ac62e010 	sw	v0,-8176(v1)
  1003b4:	ac60e000 	sw	zero,-8192(v1)
  1003b8:	ac60e020 	sw	zero,-8160(v1)
  1003bc:	ac60e030 	sw	zero,-8144(v1)
  1003c0:	ac60e050 	sw	zero,-8112(v1)
  1003c4:	ac60e040 	sw	zero,-8128(v1)
  1003c8:	8c62e000 	lw	v0,-8192(v1)
  1003cc:	34420001 	ori	v0,v0,0x1
  1003d0:	ac62e000 	sw	v0,-8192(v1)
  1003d4:	03e00008 	jr	ra
  1003d8:	00000000 	nop
  1003dc:	00000000 	nop

001003e0 <scr_setbgcolor>:
  1003e0:	3c020011 	lui	v0,0x11
  1003e4:	03e00008 	jr	ra
  1003e8:	ac44ff28 	sw	a0,-216(v0)
  1003ec:	00000000 	nop

001003f0 <init_scr>:
  1003f0:	27bdfff0 	addiu	sp,sp,-16
  1003f4:	3c030011 	lui	v1,0x11
  1003f8:	3c020011 	lui	v0,0x11
  1003fc:	ffbf0000 	sd	ra,0(sp)
  100400:	a460ff20 	sh	zero,-224(v1)
  100404:	0c0400e0 	jal	100380 <DmaReset>
  100408:	a440ff22 	sh	zero,-222(v0)
  10040c:	0c0400a8 	jal	1002a0 <debug_detect_signal>
  100410:	00000000 	nop
  100414:	24030002 	li	v1,2
  100418:	38420001 	xori	v0,v0,0x1
  10041c:	24050003 	li	a1,3
  100420:	24060001 	li	a2,1
  100424:	24040001 	li	a0,1
  100428:	0c0400b2 	jal	1002c8 <Init_GS>
  10042c:	0062280b 	movn	a1,v1,v0
  100430:	0c0400d0 	jal	100340 <SetVideoMode>
  100434:	00000000 	nop
  100438:	3c041001 	lui	a0,0x1001
  10043c:	8c82a000 	lw	v0,-24576(a0)
  100440:	30420100 	andi	v0,v0,0x100
	...
  100454:	5440fffa 	bnezl	v0,100440 <init_scr+0x50>
  100458:	8c82a000 	lw	v0,-24576(a0)
  10045c:	3c020011 	lui	v0,0x11
  100460:	2403000f 	li	v1,15
  100464:	2442ff30 	addiu	v0,v0,-208
  100468:	3c051001 	lui	a1,0x1001
  10046c:	aca3a020 	sw	v1,-24544(a1)
  100470:	aca2a010 	sw	v0,-24560(a1)
  100474:	24040101 	li	a0,257
  100478:	aca4a000 	sw	a0,-24576(a1)
  10047c:	dfbf0000 	ld	ra,0(sp)
  100480:	03e00008 	jr	ra
  100484:	27bd0010 	addiu	sp,sp,16

00100488 <scr_putchar>:
  100488:	3c030011 	lui	v1,0x11
  10048c:	3c022000 	lui	v0,0x2000
  100490:	24630020 	addiu	v1,v1,32
  100494:	00621025 	or	v0,v1,v0
  100498:	a4450026 	sh	a1,38(v0)
  10049c:	a4440024 	sh	a0,36(v0)
  1004a0:	24020006 	li	v0,6
  1004a4:	3c051001 	lui	a1,0x1001
  1004a8:	aca2a020 	sw	v0,-24544(a1)
  1004ac:	aca3a010 	sw	v1,-24560(a1)
  1004b0:	24040101 	li	a0,257
  1004b4:	aca4a000 	sw	a0,-24576(a1)
  1004b8:	3c0a2000 	lui	t2,0x2000
  1004bc:	3c020011 	lui	v0,0x11
  1004c0:	000738c0 	sll	a3,a3,0x3
  1004c4:	24420080 	addiu	v0,v0,128
  1004c8:	3c030011 	lui	v1,0x11
  1004cc:	00e23821 	addu	a3,a3,v0
  1004d0:	246f2e80 	addiu	t7,v1,11904
  1004d4:	0000702d 	move	t6,zero
  1004d8:	0000682d 	move	t5,zero
  1004dc:	240c0080 	li	t4,128
  1004e0:	3c0b0011 	lui	t3,0x11
  1004e4:	00000000 	nop
  1004e8:	000e1080 	sll	v0,t6,0x2
  1004ec:	0000482d 	move	t1,zero
  1004f0:	004f4021 	addu	t0,v0,t7
  1004f4:	00000000 	nop
  1004f8:	90e20000 	lbu	v0,0(a3)
  1004fc:	012c2007 	srav	a0,t4,t1
  100500:	8d63ff28 	lw	v1,-216(t3)
  100504:	25290001 	addiu	t1,t1,1
  100508:	00441024 	and	v0,v0,a0
  10050c:	010a2825 	or	a1,t0,t2
  100510:	00c2180b 	movn	v1,a2,v0
  100514:	29240008 	slti	a0,t1,8
  100518:	aca30000 	sw	v1,0(a1)
  10051c:	1480fff6 	bnez	a0,1004f8 <scr_putchar+0x70>
  100520:	25080004 	addiu	t0,t0,4
  100524:	25ad0001 	addiu	t5,t5,1
  100528:	25ce0008 	addiu	t6,t6,8
  10052c:	29a20008 	slti	v0,t5,8
  100530:	1440ffed 	bnez	v0,1004e8 <scr_putchar+0x60>
  100534:	24e70001 	addiu	a3,a3,1
  100538:	3c041001 	lui	a0,0x1001
  10053c:	8c82a000 	lw	v0,-24576(a0)
  100540:	30420100 	andi	v0,v0,0x100
	...
  100554:	5440fffa 	bnezl	v0,100540 <scr_putchar+0xb8>
  100558:	8c82a000 	lw	v0,-24576(a0)
  10055c:	3c020011 	lui	v0,0x11
  100560:	24030010 	li	v1,16
  100564:	24422e80 	addiu	v0,v0,11904
  100568:	3c051001 	lui	a1,0x1001
  10056c:	aca3a020 	sw	v1,-24544(a1)
  100570:	aca2a010 	sw	v0,-24560(a1)
  100574:	24040101 	li	a0,257
  100578:	aca4a000 	sw	a0,-24576(a1)
  10057c:	3c071001 	lui	a3,0x1001
  100580:	8ce6a000 	lw	a2,-24576(a3)
  100584:	30c60100 	andi	a2,a2,0x100
	...
  100598:	54c0fffa 	bnezl	a2,100584 <scr_putchar+0xfc>
  10059c:	8ce6a000 	lw	a2,-24576(a3)
  1005a0:	03e00008 	jr	ra
  1005a4:	00000000 	nop

001005a8 <clear_line>:
  1005a8:	3c030011 	lui	v1,0x11
  1005ac:	27bdffb0 	addiu	sp,sp,-80
  1005b0:	8462ff24 	lh	v0,-220(v1)
  1005b4:	ffb00000 	sd	s0,0(sp)
  1005b8:	0000802d 	move	s0,zero
  1005bc:	ffbf0040 	sd	ra,64(sp)
  1005c0:	ffb30030 	sd	s3,48(sp)
  1005c4:	ffb20020 	sd	s2,32(sp)
  1005c8:	1840000e 	blez	v0,100604 <clear_line+0x5c>
  1005cc:	ffb10010 	sd	s1,16(sp)
  1005d0:	000488c0 	sll	s1,a0,0x3
  1005d4:	0060982d 	move	s3,v1
  1005d8:	3c120011 	lui	s2,0x11
  1005dc:	8e46ff28 	lw	a2,-216(s2)
  1005e0:	001020c0 	sll	a0,s0,0x3
  1005e4:	0220282d 	move	a1,s1
  1005e8:	0c040122 	jal	100488 <scr_putchar>
  1005ec:	24070020 	li	a3,32
  1005f0:	26100001 	addiu	s0,s0,1
  1005f4:	8662ff24 	lh	v0,-220(s3)
  1005f8:	0202102a 	slt	v0,s0,v0
  1005fc:	1440fff8 	bnez	v0,1005e0 <clear_line+0x38>
  100600:	8e46ff28 	lw	a2,-216(s2)
  100604:	dfbf0040 	ld	ra,64(sp)
  100608:	dfb30030 	ld	s3,48(sp)
  10060c:	dfb20020 	ld	s2,32(sp)
  100610:	dfb10010 	ld	s1,16(sp)
  100614:	dfb00000 	ld	s0,0(sp)
  100618:	03e00008 	jr	ra
  10061c:	27bd0050 	addiu	sp,sp,80

00100620 <scr_printf>:
  100620:	27bdf710 	addiu	sp,sp,-2288
  100624:	0080102d 	move	v0,a0
  100628:	ffa508b8 	sd	a1,2232(sp)
  10062c:	03a0202d 	move	a0,sp
  100630:	ffa608c0 	sd	a2,2240(sp)
  100634:	24050800 	li	a1,2048
  100638:	ffa708c8 	sd	a3,2248(sp)
  10063c:	0040302d 	move	a2,v0
  100640:	27a708b8 	addiu	a3,sp,2232
  100644:	ffb40840 	sd	s4,2112(sp)
  100648:	ffb30830 	sd	s3,2096(sp)
  10064c:	0000982d 	move	s3,zero
  100650:	ffbf0880 	sd	ra,2176(sp)
  100654:	ffb70870 	sd	s7,2160(sp)
  100658:	ffb60860 	sd	s6,2144(sp)
  10065c:	ffb50850 	sd	s5,2128(sp)
  100660:	ffb20820 	sd	s2,2080(sp)
  100664:	ffb10810 	sd	s1,2064(sp)
  100668:	ffb00800 	sd	s0,2048(sp)
  10066c:	ffa808d0 	sd	t0,2256(sp)
  100670:	ffa908d8 	sd	t1,2264(sp)
  100674:	ffaa08e0 	sd	t2,2272(sp)
  100678:	ffab08e8 	sd	t3,2280(sp)
  10067c:	e7ac08a8 	swc1	$f12,2216(sp)
  100680:	e7ae08ac 	swc1	$f14,2220(sp)
  100684:	e7b008b0 	swc1	$f16,2224(sp)
  100688:	0c040240 	jal	100900 <vsnprintf>
  10068c:	e7b208b4 	swc1	$f18,2228(sp)
  100690:	1840001f 	blez	v0,100710 <scr_printf+0xf0>
  100694:	0040a02d 	move	s4,v0
  100698:	3c150011 	lui	s5,0x11
  10069c:	3c160011 	lui	s6,0x11
  1006a0:	02a0b82d 	move	s7,s5
  1006a4:	03b31021 	addu	v0,sp,s3
  1006a8:	24030009 	li	v1,9
  1006ac:	80470000 	lb	a3,0(v0)
  1006b0:	10e3004b 	beq	a3,v1,1007e0 <scr_printf+0x1c0>
  1006b4:	2402000a 	li	v0,10
  1006b8:	10e2003b 	beq	a3,v0,1007a8 <scr_printf+0x188>
  1006bc:	3c100011 	lui	s0,0x11
  1006c0:	3c110011 	lui	s1,0x11
  1006c4:	8602ff20 	lh	v0,-224(s0)
  1006c8:	3c0600ff 	lui	a2,0xff
  1006cc:	8625ff22 	lh	a1,-222(s1)
  1006d0:	34c6ffff 	ori	a2,a2,0xffff
  1006d4:	000220c0 	sll	a0,v0,0x3
  1006d8:	00822023 	subu	a0,a0,v0
  1006dc:	0c040122 	jal	100488 <scr_putchar>
  1006e0:	000528c0 	sll	a1,a1,0x3
  1006e4:	9602ff20 	lhu	v0,-224(s0)
  1006e8:	86c4ff24 	lh	a0,-220(s6)
  1006ec:	24420001 	addiu	v0,v0,1
  1006f0:	00021c00 	sll	v1,v0,0x10
  1006f4:	00031c03 	sra	v1,v1,0x10
  1006f8:	1064001b 	beq	v1,a0,100768 <scr_printf+0x148>
  1006fc:	a602ff20 	sh	v0,-224(s0)
  100700:	26730001 	addiu	s3,s3,1
  100704:	0274102a 	slt	v0,s3,s4
  100708:	1440ffe7 	bnez	v0,1006a8 <scr_printf+0x88>
  10070c:	03b31021 	addu	v0,sp,s3
  100710:	3c020011 	lui	v0,0x11
  100714:	3c0600ff 	lui	a2,0xff
  100718:	8443ff20 	lh	v1,-224(v0)
  10071c:	34c6ffff 	ori	a2,a2,0xffff
  100720:	3c020011 	lui	v0,0x11
  100724:	240700db 	li	a3,219
  100728:	8445ff22 	lh	a1,-222(v0)
  10072c:	000320c0 	sll	a0,v1,0x3
  100730:	00832023 	subu	a0,a0,v1
  100734:	0c040122 	jal	100488 <scr_putchar>
  100738:	000528c0 	sll	a1,a1,0x3
  10073c:	dfb00800 	ld	s0,2048(sp)
  100740:	dfbf0880 	ld	ra,2176(sp)
  100744:	dfb70870 	ld	s7,2160(sp)
  100748:	dfb60860 	ld	s6,2144(sp)
  10074c:	dfb50850 	ld	s5,2128(sp)
  100750:	dfb40840 	ld	s4,2112(sp)
  100754:	dfb30830 	ld	s3,2096(sp)
  100758:	dfb20820 	ld	s2,2080(sp)
  10075c:	dfb10810 	ld	s1,2064(sp)
  100760:	03e00008 	jr	ra
  100764:	27bd08f0 	addiu	sp,sp,2288
  100768:	9622ff22 	lhu	v0,-222(s1)
  10076c:	86e4ff26 	lh	a0,-218(s7)
  100770:	24420001 	addiu	v0,v0,1
  100774:	a600ff20 	sh	zero,-224(s0)
  100778:	00021c00 	sll	v1,v0,0x10
  10077c:	00031c03 	sra	v1,v1,0x10
  100780:	10640006 	beq	v1,a0,10079c <scr_printf+0x17c>
  100784:	a622ff22 	sh	v0,-222(s1)
  100788:	8624ff22 	lh	a0,-222(s1)
  10078c:	0c04016a 	jal	1005a8 <clear_line>
  100790:	26730001 	addiu	s3,s3,1
  100794:	1000ffdc 	b	100708 <scr_printf+0xe8>
  100798:	0274102a 	slt	v0,s3,s4
  10079c:	1000fffa 	b	100788 <scr_printf+0x168>
  1007a0:	a620ff22 	sh	zero,-222(s1)
  1007a4:	00000000 	nop
  1007a8:	3c050011 	lui	a1,0x11
  1007ac:	3c020011 	lui	v0,0x11
  1007b0:	94a3ff22 	lhu	v1,-222(a1)
  1007b4:	a440ff20 	sh	zero,-224(v0)
  1007b8:	24630001 	addiu	v1,v1,1
  1007bc:	86a4ff26 	lh	a0,-218(s5)
  1007c0:	00031400 	sll	v0,v1,0x10
  1007c4:	00021403 	sra	v0,v0,0x10
  1007c8:	10440003 	beq	v0,a0,1007d8 <scr_printf+0x1b8>
  1007cc:	a4a3ff22 	sh	v1,-222(a1)
  1007d0:	1000ffee 	b	10078c <scr_printf+0x16c>
  1007d4:	84a4ff22 	lh	a0,-222(a1)
  1007d8:	1000fffd 	b	1007d0 <scr_printf+0x1b0>
  1007dc:	a4a0ff22 	sh	zero,-222(a1)
  1007e0:	0000882d 	move	s1,zero
  1007e4:	3c100011 	lui	s0,0x11
  1007e8:	3c120011 	lui	s2,0x11
  1007ec:	00000000 	nop
  1007f0:	8602ff20 	lh	v0,-224(s0)
  1007f4:	3c0600ff 	lui	a2,0xff
  1007f8:	8645ff22 	lh	a1,-222(s2)
  1007fc:	34c6ffff 	ori	a2,a2,0xffff
  100800:	000220c0 	sll	a0,v0,0x3
  100804:	24070020 	li	a3,32
  100808:	00822023 	subu	a0,a0,v0
  10080c:	0c040122 	jal	100488 <scr_putchar>
  100810:	000528c0 	sll	a1,a1,0x3
  100814:	26310001 	addiu	s1,s1,1
  100818:	9602ff20 	lhu	v0,-224(s0)
  10081c:	2a230005 	slti	v1,s1,5
  100820:	24420001 	addiu	v0,v0,1
  100824:	1460fff2 	bnez	v1,1007f0 <scr_printf+0x1d0>
  100828:	a602ff20 	sh	v0,-224(s0)
  10082c:	1000ffb5 	b	100704 <scr_printf+0xe4>
  100830:	26730001 	addiu	s3,s3,1
  100834:	00000000 	nop

00100838 <scr_setXY>:
  100838:	3c020011 	lui	v0,0x11
  10083c:	0080302d 	move	a2,a0
  100840:	8443ff24 	lh	v1,-220(v0)
  100844:	3c020011 	lui	v0,0x11
  100848:	8444ff26 	lh	a0,-218(v0)
  10084c:	00c3182a 	slt	v1,a2,v1
  100850:	10600004 	beqz	v1,100864 <scr_setXY+0x2c>
  100854:	00a4202a 	slt	a0,a1,a0
  100858:	04c00002 	bltz	a2,100864 <scr_setXY+0x2c>
  10085c:	3c020011 	lui	v0,0x11
  100860:	a446ff20 	sh	a2,-224(v0)
  100864:	10800004 	beqz	a0,100878 <scr_setXY+0x40>
  100868:	00000000 	nop
  10086c:	04a00002 	bltz	a1,100878 <scr_setXY+0x40>
  100870:	3c020011 	lui	v0,0x11
  100874:	a445ff22 	sh	a1,-222(v0)
  100878:	03e00008 	jr	ra
  10087c:	00000000 	nop

00100880 <scr_getX>:
  100880:	3c030011 	lui	v1,0x11
  100884:	03e00008 	jr	ra
  100888:	8462ff20 	lh	v0,-224(v1)
  10088c:	00000000 	nop

00100890 <scr_getY>:
  100890:	3c030011 	lui	v1,0x11
  100894:	03e00008 	jr	ra
  100898:	8462ff22 	lh	v0,-222(v1)
  10089c:	00000000 	nop

001008a0 <scr_clear>:
  1008a0:	3c030011 	lui	v1,0x11
  1008a4:	27bdffd0 	addiu	sp,sp,-48
  1008a8:	8462ff26 	lh	v0,-218(v1)
  1008ac:	ffb00000 	sd	s0,0(sp)
  1008b0:	0000802d 	move	s0,zero
  1008b4:	ffbf0020 	sd	ra,32(sp)
  1008b8:	18400009 	blez	v0,1008e0 <scr_clear+0x40>
  1008bc:	ffb10010 	sd	s1,16(sp)
  1008c0:	0060882d 	move	s1,v1
  1008c4:	0200202d 	move	a0,s0
  1008c8:	0c04016a 	jal	1005a8 <clear_line>
  1008cc:	26100001 	addiu	s0,s0,1
  1008d0:	8622ff26 	lh	v0,-218(s1)
  1008d4:	0202102a 	slt	v0,s0,v0
  1008d8:	1440fffb 	bnez	v0,1008c8 <scr_clear+0x28>
  1008dc:	0200202d 	move	a0,s0
  1008e0:	0000202d 	move	a0,zero
  1008e4:	0c04020e 	jal	100838 <scr_setXY>
  1008e8:	0000282d 	move	a1,zero
  1008ec:	dfb00000 	ld	s0,0(sp)
  1008f0:	dfbf0020 	ld	ra,32(sp)
  1008f4:	dfb10010 	ld	s1,16(sp)
  1008f8:	03e00008 	jr	ra
  1008fc:	27bd0030 	addiu	sp,sp,48

00100900 <vsnprintf>:
  100900:	27bdff80 	addiu	sp,sp,-128
  100904:	3c020011 	lui	v0,0x11
  100908:	ffb00060 	sd	s0,96(sp)
  10090c:	0080402d 	move	t0,a0
  100910:	ffbf0070 	sd	ra,112(sp)
  100914:	24a3ffff 	addiu	v1,a1,-1
  100918:	0005180a 	movz	v1,zero,a1
  10091c:	00a0802d 	move	s0,a1
  100920:	8c440c80 	lw	a0,3200(v0)
  100924:	03a0282d 	move	a1,sp
  100928:	24020208 	li	v0,520
  10092c:	afa80010 	sw	t0,16(sp)
  100930:	a7a2000c 	sh	v0,12(sp)
  100934:	2402ffff 	li	v0,-1
  100938:	afa30014 	sw	v1,20(sp)
  10093c:	a7a2000e 	sh	v0,14(sp)
  100940:	afa80000 	sw	t0,0(sp)
  100944:	0c0402c0 	jal	100b00 <_vfprintf_r>
  100948:	afa30008 	sw	v1,8(sp)
  10094c:	12000002 	beqz	s0,100958 <vsnprintf+0x58>
  100950:	8fa30000 	lw	v1,0(sp)
  100954:	a0600000 	sb	zero,0(v1)
  100958:	dfbf0070 	ld	ra,112(sp)
  10095c:	dfb00060 	ld	s0,96(sp)
  100960:	03e00008 	jr	ra
  100964:	27bd0080 	addiu	sp,sp,128

00100968 <_vsnprintf_r>:
  100968:	27bdff80 	addiu	sp,sp,-128
  10096c:	24020208 	li	v0,520
  100970:	ffb00060 	sd	s0,96(sp)
  100974:	00c0802d 	move	s0,a2
  100978:	2603ffff 	addiu	v1,s0,-1
  10097c:	a7a2000c 	sh	v0,12(sp)
  100980:	0010180a 	movz	v1,zero,s0
  100984:	00e0302d 	move	a2,a3
  100988:	2402ffff 	li	v0,-1
  10098c:	0100382d 	move	a3,t0
  100990:	00a0402d 	move	t0,a1
  100994:	ffbf0070 	sd	ra,112(sp)
  100998:	03a0282d 	move	a1,sp
  10099c:	afa80010 	sw	t0,16(sp)
  1009a0:	afa30014 	sw	v1,20(sp)
  1009a4:	a7a2000e 	sh	v0,14(sp)
  1009a8:	afa80000 	sw	t0,0(sp)
  1009ac:	0c0402c0 	jal	100b00 <_vfprintf_r>
  1009b0:	afa30008 	sw	v1,8(sp)
  1009b4:	12000002 	beqz	s0,1009c0 <_vsnprintf_r+0x58>
  1009b8:	8fa30000 	lw	v1,0(sp)
  1009bc:	a0600000 	sb	zero,0(v1)
  1009c0:	dfbf0070 	ld	ra,112(sp)
  1009c4:	dfb00060 	ld	s0,96(sp)
  1009c8:	03e00008 	jr	ra
  1009cc:	27bd0080 	addiu	sp,sp,128

001009d0 <__sprint>:
  1009d0:	27bdffe0 	addiu	sp,sp,-32
  1009d4:	0000182d 	move	v1,zero
  1009d8:	ffb00000 	sd	s0,0(sp)
  1009dc:	ffbf0010 	sd	ra,16(sp)
  1009e0:	8ca20008 	lw	v0,8(a1)
  1009e4:	14400008 	bnez	v0,100a08 <__sprint+0x38>
  1009e8:	00a0802d 	move	s0,a1
  1009ec:	aca00004 	sw	zero,4(a1)
  1009f0:	dfbf0010 	ld	ra,16(sp)
  1009f4:	0060102d 	move	v0,v1
  1009f8:	dfb00000 	ld	s0,0(sp)
  1009fc:	03e00008 	jr	ra
  100a00:	27bd0020 	addiu	sp,sp,32
  100a04:	00000000 	nop
  100a08:	0c041306 	jal	104c18 <__sfvwrite>
  100a0c:	00000000 	nop
  100a10:	ae000008 	sw	zero,8(s0)
  100a14:	ae000004 	sw	zero,4(s0)
  100a18:	1000fff5 	b	1009f0 <__sprint+0x20>
  100a1c:	0040182d 	move	v1,v0

00100a20 <__sbprintf>:
  100a20:	27bdfb70 	addiu	sp,sp,-1168
  100a24:	240a0400 	li	t2,1024
  100a28:	ffb10470 	sd	s1,1136(sp)
  100a2c:	27ab0060 	addiu	t3,sp,96
  100a30:	ffb00460 	sd	s0,1120(sp)
  100a34:	00a0882d 	move	s1,a1
  100a38:	ffbf0480 	sd	ra,1152(sp)
  100a3c:	afab0010 	sw	t3,16(sp)
  100a40:	94a2000c 	lhu	v0,12(a1)
  100a44:	94a9000e 	lhu	t1,14(a1)
  100a48:	03a0282d 	move	a1,sp
  100a4c:	8e28001c 	lw	t0,28(s1)
  100a50:	3042fffd 	andi	v0,v0,0xfffd
  100a54:	8e230024 	lw	v1,36(s1)
  100a58:	a7a2000c 	sh	v0,12(sp)
  100a5c:	a7a9000e 	sh	t1,14(sp)
  100a60:	afa8001c 	sw	t0,28(sp)
  100a64:	afa30024 	sw	v1,36(sp)
  100a68:	afaa0014 	sw	t2,20(sp)
  100a6c:	afab0000 	sw	t3,0(sp)
  100a70:	afaa0008 	sw	t2,8(sp)
  100a74:	0c0402c0 	jal	100b00 <_vfprintf_r>
  100a78:	afa00018 	sw	zero,24(sp)
  100a7c:	0040802d 	move	s0,v0
  100a80:	04400005 	bltz	v0,100a98 <__sbprintf+0x78>
  100a84:	03a0202d 	move	a0,sp
  100a88:	0c0410e6 	jal	104398 <fflush>
  100a8c:	00000000 	nop
  100a90:	2403ffff 	li	v1,-1
  100a94:	0062800b 	movn	s0,v1,v0
  100a98:	97a3000c 	lhu	v1,12(sp)
  100a9c:	30630040 	andi	v1,v1,0x40
  100aa0:	10600004 	beqz	v1,100ab4 <__sbprintf+0x94>
  100aa4:	0200102d 	move	v0,s0
  100aa8:	9623000c 	lhu	v1,12(s1)
  100aac:	34630040 	ori	v1,v1,0x40
  100ab0:	a623000c 	sh	v1,12(s1)
  100ab4:	dfbf0480 	ld	ra,1152(sp)
  100ab8:	dfb10470 	ld	s1,1136(sp)
  100abc:	dfb00460 	ld	s0,1120(sp)
  100ac0:	03e00008 	jr	ra
  100ac4:	27bd0490 	addiu	sp,sp,1168

00100ac8 <vfprintf>:
  100ac8:	27bdfff0 	addiu	sp,sp,-16
  100acc:	3c020011 	lui	v0,0x11
  100ad0:	ffbf0000 	sd	ra,0(sp)
  100ad4:	0080182d 	move	v1,a0
  100ad8:	00a0402d 	move	t0,a1
  100adc:	00c0382d 	move	a3,a2
  100ae0:	8c440c80 	lw	a0,3200(v0)
  100ae4:	0060282d 	move	a1,v1
  100ae8:	0c0402c0 	jal	100b00 <_vfprintf_r>
  100aec:	0100302d 	move	a2,t0
  100af0:	dfbf0000 	ld	ra,0(sp)
  100af4:	03e00008 	jr	ra
  100af8:	27bd0010 	addiu	sp,sp,16
  100afc:	00000000 	nop

00100b00 <_vfprintf_r>:
  100b00:	27bdfd10 	addiu	sp,sp,-752
  100b04:	ffb00250 	sd	s0,592(sp)
  100b08:	00c0802d 	move	s0,a2
  100b0c:	ffbf02e0 	sd	ra,736(sp)
  100b10:	ffbe02d0 	sd	s8,720(sp)
  100b14:	ffb702c0 	sd	s7,704(sp)
  100b18:	ffb602b0 	sd	s6,688(sp)
  100b1c:	ffb502a0 	sd	s5,672(sp)
  100b20:	ffb40290 	sd	s4,656(sp)
  100b24:	ffb30280 	sd	s3,640(sp)
  100b28:	ffb20270 	sd	s2,624(sp)
  100b2c:	ffb10260 	sd	s1,608(sp)
  100b30:	afa4020c 	sw	a0,524(sp)
  100b34:	afa50210 	sw	a1,528(sp)
  100b38:	0c0414c4 	jal	105310 <localeconv>
  100b3c:	afa70214 	sw	a3,532(sp)
  100b40:	8c420000 	lw	v0,0(v0)
  100b44:	ffa00228 	sd	zero,552(sp)
  100b48:	afa20224 	sw	v0,548(sp)
  100b4c:	8fa2020c 	lw	v0,524(sp)
  100b50:	afa00230 	sw	zero,560(sp)
  100b54:	afa00238 	sw	zero,568(sp)
  100b58:	10400004 	beqz	v0,100b6c <_vfprintf_r+0x6c>
  100b5c:	afa0023c 	sw	zero,572(sp)
  100b60:	8c420038 	lw	v0,56(v0)
  100b64:	10400655 	beqz	v0,1024bc <_vfprintf_r+0x19bc>
  100b68:	00000000 	nop
  100b6c:	8fa40210 	lw	a0,528(sp)
  100b70:	9483000c 	lhu	v1,12(a0)
  100b74:	30620008 	andi	v0,v1,0x8
  100b78:	10400004 	beqz	v0,100b8c <_vfprintf_r+0x8c>
  100b7c:	00000000 	nop
  100b80:	8c820010 	lw	v0,16(a0)
  100b84:	14400008 	bnez	v0,100ba8 <_vfprintf_r+0xa8>
  100b88:	3063001a 	andi	v1,v1,0x1a
  100b8c:	0c040b82 	jal	102e08 <__swsetup>
  100b90:	8fa40210 	lw	a0,528(sp)
  100b94:	1440017a 	bnez	v0,101180 <_vfprintf_r+0x680>
  100b98:	2403ffff 	li	v1,-1
  100b9c:	8fa20210 	lw	v0,528(sp)
  100ba0:	9443000c 	lhu	v1,12(v0)
  100ba4:	3063001a 	andi	v1,v1,0x1a
  100ba8:	2402000a 	li	v0,10
  100bac:	1062063a 	beq	v1,v0,102498 <_vfprintf_r+0x1998>
  100bb0:	8fa30210 	lw	v1,528(sp)
  100bb4:	27b20030 	addiu	s2,sp,48
  100bb8:	afa00028 	sw	zero,40(sp)
  100bbc:	afb20020 	sw	s2,32(sp)
  100bc0:	0200a82d 	move	s5,s0
  100bc4:	afa00024 	sw	zero,36(sp)
  100bc8:	afa0021c 	sw	zero,540(sp)
  100bcc:	82a30000 	lb	v1,0(s5)
  100bd0:	1060000b 	beqz	v1,100c00 <_vfprintf_r+0x100>
  100bd4:	02a0982d 	move	s3,s5
  100bd8:	24020025 	li	v0,37
  100bdc:	10620009 	beq	v1,v0,100c04 <_vfprintf_r+0x104>
  100be0:	02b38823 	subu	s1,s5,s3
  100be4:	24030025 	li	v1,37
  100be8:	26b50001 	addiu	s5,s5,1
  100bec:	82a20000 	lb	v0,0(s5)
  100bf0:	10400004 	beqz	v0,100c04 <_vfprintf_r+0x104>
  100bf4:	02b38823 	subu	s1,s5,s3
  100bf8:	5443fffc 	bnel	v0,v1,100bec <_vfprintf_r+0xec>
  100bfc:	26b50001 	addiu	s5,s5,1
  100c00:	02b38823 	subu	s1,s5,s3
  100c04:	52200010 	beqzl	s1,100c48 <_vfprintf_r+0x148>
  100c08:	82a20000 	lb	v0,0(s5)
  100c0c:	ae510004 	sw	s1,4(s2)
  100c10:	ae530000 	sw	s3,0(s2)
  100c14:	26520008 	addiu	s2,s2,8
  100c18:	8fa20024 	lw	v0,36(sp)
  100c1c:	8fa30028 	lw	v1,40(sp)
  100c20:	24420001 	addiu	v0,v0,1
  100c24:	00711821 	addu	v1,v1,s1
  100c28:	28440008 	slti	a0,v0,8
  100c2c:	afa30028 	sw	v1,40(sp)
  100c30:	10800612 	beqz	a0,10247c <_vfprintf_r+0x197c>
  100c34:	afa20024 	sw	v0,36(sp)
  100c38:	8fa4021c 	lw	a0,540(sp)
  100c3c:	00912021 	addu	a0,a0,s1
  100c40:	afa4021c 	sw	a0,540(sp)
  100c44:	82a20000 	lb	v0,0(s5)
  100c48:	104005fe 	beqz	v0,102444 <_vfprintf_r+0x1944>
  100c4c:	26b50001 	addiu	s5,s5,1
  100c50:	afa00218 	sw	zero,536(sp)
  100c54:	2414ffff 	li	s4,-1
  100c58:	92a40000 	lbu	a0,0(s5)
  100c5c:	afa00234 	sw	zero,564(sp)
  100c60:	afa00220 	sw	zero,544(sp)
  100c64:	a3a00000 	sb	zero,0(sp)
  100c68:	00041600 	sll	v0,a0,0x18
  100c6c:	26b50001 	addiu	s5,s5,1
  100c70:	0002be03 	sra	s7,v0,0x18
  100c74:	26e3ffe0 	addiu	v1,s7,-32
  100c78:	2c620059 	sltiu	v0,v1,89
  100c7c:	104005eb 	beqz	v0,10242c <_vfprintf_r+0x192c>
  100c80:	00031080 	sll	v0,v1,0x2
  100c84:	3c030011 	lui	v1,0x11
  100c88:	2463f608 	addiu	v1,v1,-2552
  100c8c:	00431021 	addu	v0,v0,v1
  100c90:	8c440000 	lw	a0,0(v0)
  100c94:	00800008 	jr	a0
  100c98:	00000000 	nop
  100c9c:	83a20000 	lb	v0,0(sp)
  100ca0:	50400003 	beqzl	v0,100cb0 <_vfprintf_r+0x1b0>
  100ca4:	92a40000 	lbu	a0,0(s5)
  100ca8:	1000ffef 	b	100c68 <_vfprintf_r+0x168>
  100cac:	92a40000 	lbu	a0,0(s5)
  100cb0:	24050020 	li	a1,32
  100cb4:	1000ffec 	b	100c68 <_vfprintf_r+0x168>
  100cb8:	a3a50000 	sb	a1,0(sp)
  100cbc:	8fa20218 	lw	v0,536(sp)
  100cc0:	92a40000 	lbu	a0,0(s5)
  100cc4:	34420001 	ori	v0,v0,0x1
  100cc8:	1000ffe7 	b	100c68 <_vfprintf_r+0x168>
  100ccc:	afa20218 	sw	v0,536(sp)
  100cd0:	8fa20214 	lw	v0,532(sp)
  100cd4:	8fa30214 	lw	v1,532(sp)
  100cd8:	8c420000 	lw	v0,0(v0)
  100cdc:	24630008 	addiu	v1,v1,8
  100ce0:	afa30214 	sw	v1,532(sp)
  100ce4:	0441fff0 	bgez	v0,100ca8 <_vfprintf_r+0x1a8>
  100ce8:	afa20220 	sw	v0,544(sp)
  100cec:	00021023 	negu	v0,v0
  100cf0:	afa20220 	sw	v0,544(sp)
  100cf4:	8fa20218 	lw	v0,536(sp)
  100cf8:	92a40000 	lbu	a0,0(s5)
  100cfc:	1000fff2 	b	100cc8 <_vfprintf_r+0x1c8>
  100d00:	34420004 	ori	v0,v0,0x4
  100d04:	92a40000 	lbu	a0,0(s5)
  100d08:	1000ffea 	b	100cb4 <_vfprintf_r+0x1b4>
  100d0c:	2405002b 	li	a1,43
  100d10:	82b70000 	lb	s7,0(s5)
  100d14:	2402002a 	li	v0,42
  100d18:	12e20014 	beq	s7,v0,100d6c <_vfprintf_r+0x26c>
  100d1c:	26b50001 	addiu	s5,s5,1
  100d20:	26e2ffd0 	addiu	v0,s7,-48
  100d24:	2c42000a 	sltiu	v0,v0,10
  100d28:	1040000b 	beqz	v0,100d58 <_vfprintf_r+0x258>
  100d2c:	0000802d 	move	s0,zero
  100d30:	2404000a 	li	a0,10
  100d34:	00000000 	nop
  100d38:	02041018 	mult	v0,s0,a0
  100d3c:	00571821 	addu	v1,v0,s7
  100d40:	82b70000 	lb	s7,0(s5)
  100d44:	2470ffd0 	addiu	s0,v1,-48
  100d48:	26e2ffd0 	addiu	v0,s7,-48
  100d4c:	2c42000a 	sltiu	v0,v0,10
  100d50:	1440fff9 	bnez	v0,100d38 <_vfprintf_r+0x238>
  100d54:	26b50001 	addiu	s5,s5,1
  100d58:	2a02ffff 	slti	v0,s0,-1
  100d5c:	1040ffc5 	beqz	v0,100c74 <_vfprintf_r+0x174>
  100d60:	0200a02d 	move	s4,s0
  100d64:	1000ffc3 	b	100c74 <_vfprintf_r+0x174>
  100d68:	2414ffff 	li	s4,-1
  100d6c:	8fa20214 	lw	v0,532(sp)
  100d70:	8fa30214 	lw	v1,532(sp)
  100d74:	8c540000 	lw	s4,0(v0)
  100d78:	24630008 	addiu	v1,v1,8
  100d7c:	0681ffca 	bgez	s4,100ca8 <_vfprintf_r+0x1a8>
  100d80:	afa30214 	sw	v1,532(sp)
  100d84:	92a40000 	lbu	a0,0(s5)
  100d88:	1000ffb7 	b	100c68 <_vfprintf_r+0x168>
  100d8c:	2414ffff 	li	s4,-1
  100d90:	8fa30218 	lw	v1,536(sp)
  100d94:	92a40000 	lbu	a0,0(s5)
  100d98:	34630080 	ori	v1,v1,0x80
  100d9c:	1000ffb2 	b	100c68 <_vfprintf_r+0x168>
  100da0:	afa30218 	sw	v1,536(sp)
  100da4:	0000802d 	move	s0,zero
  100da8:	2404000a 	li	a0,10
  100dac:	02041018 	mult	v0,s0,a0
  100db0:	00571821 	addu	v1,v0,s7
  100db4:	82b70000 	lb	s7,0(s5)
  100db8:	2470ffd0 	addiu	s0,v1,-48
  100dbc:	26b50001 	addiu	s5,s5,1
  100dc0:	26e2ffd0 	addiu	v0,s7,-48
  100dc4:	2c42000a 	sltiu	v0,v0,10
  100dc8:	1040ffaa 	beqz	v0,100c74 <_vfprintf_r+0x174>
  100dcc:	afb00220 	sw	s0,544(sp)
  100dd0:	1000fff7 	b	100db0 <_vfprintf_r+0x2b0>
  100dd4:	02041018 	mult	v0,s0,a0
  100dd8:	8fa20218 	lw	v0,536(sp)
  100ddc:	34420010 	ori	v0,v0,0x10
  100de0:	afa20218 	sw	v0,536(sp)
  100de4:	8fa30218 	lw	v1,536(sp)
  100de8:	30620020 	andi	v0,v1,0x20
  100dec:	14400006 	bnez	v0,100e08 <_vfprintf_r+0x308>
  100df0:	8fa20214 	lw	v0,532(sp)
  100df4:	8fa30218 	lw	v1,536(sp)
  100df8:	30620010 	andi	v0,v1,0x10
  100dfc:	104003af 	beqz	v0,101cbc <_vfprintf_r+0x11bc>
  100e00:	30620040 	andi	v0,v1,0x40
  100e04:	8fa20214 	lw	v0,532(sp)
  100e08:	8fa40214 	lw	a0,532(sp)
  100e0c:	dc500000 	ld	s0,0(v0)
  100e10:	24840008 	addiu	a0,a0,8
  100e14:	afa40214 	sw	a0,532(sp)
  100e18:	060003a5 	bltz	s0,101cb0 <_vfprintf_r+0x11b0>
  100e1c:	2405002d 	li	a1,45
  100e20:	24030001 	li	v1,1
  100e24:	06800005 	bltz	s4,100e3c <_vfprintf_r+0x33c>
  100e28:	afb40234 	sw	s4,564(sp)
  100e2c:	8fa40218 	lw	a0,536(sp)
  100e30:	2402ff7f 	li	v0,-129
  100e34:	00822024 	and	a0,a0,v0
  100e38:	afa40218 	sw	a0,536(sp)
  100e3c:	16000004 	bnez	s0,100e50 <_vfprintf_r+0x350>
  100e40:	27b301cc 	addiu	s3,sp,460
  100e44:	8fa20234 	lw	v0,564(sp)
  100e48:	1040038f 	beqz	v0,101c88 <_vfprintf_r+0x1188>
  100e4c:	00000000 	nop
  100e50:	24020001 	li	v0,1
  100e54:	10620377 	beq	v1,v0,101c34 <_vfprintf_r+0x1134>
  100e58:	28620002 	slti	v0,v1,2
  100e5c:	14400361 	bnez	v0,101be4 <_vfprintf_r+0x10e4>
  100e60:	24020002 	li	v0,2
  100e64:	10620353 	beq	v1,v0,101bb4 <_vfprintf_r+0x10b4>
  100e68:	8fa30238 	lw	v1,568(sp)
  100e6c:	3c020011 	lui	v0,0x11
  100e70:	2453f580 	addiu	s3,v0,-2688
  100e74:	0c041ebd 	jal	107af4 <strlen>
  100e78:	0260202d 	move	a0,s3
  100e7c:	0040b02d 	move	s6,v0
  100e80:	8fa40234 	lw	a0,564(sp)
  100e84:	02c0f02d 	move	s8,s6
  100e88:	83a30000 	lb	v1,0(sp)
  100e8c:	02c4102a 	slt	v0,s6,a0
  100e90:	93a50000 	lbu	a1,0(sp)
  100e94:	10600342 	beqz	v1,101ba0 <_vfprintf_r+0x10a0>
  100e98:	0082f00b 	movn	s8,a0,v0
  100e9c:	27de0001 	addiu	s8,s8,1
  100ea0:	8fa40218 	lw	a0,536(sp)
  100ea4:	30840084 	andi	a0,a0,0x84
  100ea8:	14800026 	bnez	a0,100f44 <_vfprintf_r+0x444>
  100eac:	afa40240 	sw	a0,576(sp)
  100eb0:	8fa20220 	lw	v0,544(sp)
  100eb4:	005e8023 	subu	s0,v0,s8
  100eb8:	1a000022 	blez	s0,100f44 <_vfprintf_r+0x444>
  100ebc:	2a020011 	slti	v0,s0,17
  100ec0:	14400012 	bnez	v0,100f0c <_vfprintf_r+0x40c>
  100ec4:	3c020011 	lui	v0,0x11
  100ec8:	24140010 	li	s4,16
  100ecc:	2451f560 	addiu	s1,v0,-2720
  100ed0:	ae540004 	sw	s4,4(s2)
  100ed4:	ae510000 	sw	s1,0(s2)
  100ed8:	26520008 	addiu	s2,s2,8
  100edc:	8fa20024 	lw	v0,36(sp)
  100ee0:	8fa30028 	lw	v1,40(sp)
  100ee4:	24420001 	addiu	v0,v0,1
  100ee8:	24630010 	addiu	v1,v1,16
  100eec:	28440008 	slti	a0,v0,8
  100ef0:	afa30028 	sw	v1,40(sp)
  100ef4:	10800322 	beqz	a0,101b80 <_vfprintf_r+0x1080>
  100ef8:	afa20024 	sw	v0,36(sp)
  100efc:	2610fff0 	addiu	s0,s0,-16
  100f00:	2a020011 	slti	v0,s0,17
  100f04:	5040fff3 	beqzl	v0,100ed4 <_vfprintf_r+0x3d4>
  100f08:	ae540004 	sw	s4,4(s2)
  100f0c:	ae500004 	sw	s0,4(s2)
  100f10:	3c020011 	lui	v0,0x11
  100f14:	2442f560 	addiu	v0,v0,-2720
  100f18:	8fa40024 	lw	a0,36(sp)
  100f1c:	8fa30028 	lw	v1,40(sp)
  100f20:	24840001 	addiu	a0,a0,1
  100f24:	ae420000 	sw	v0,0(s2)
  100f28:	00701821 	addu	v1,v1,s0
  100f2c:	28820008 	slti	v0,a0,8
  100f30:	afa30028 	sw	v1,40(sp)
  100f34:	26520008 	addiu	s2,s2,8
  100f38:	10400309 	beqz	v0,101b60 <_vfprintf_r+0x1060>
  100f3c:	afa40024 	sw	a0,36(sp)
  100f40:	93a50000 	lbu	a1,0(sp)
  100f44:	00051600 	sll	v0,a1,0x18
  100f48:	104002eb 	beqz	v0,101af8 <_vfprintf_r+0xff8>
  100f4c:	8fa30218 	lw	v1,536(sp)
  100f50:	24020001 	li	v0,1
  100f54:	ae5d0000 	sw	sp,0(s2)
  100f58:	ae420004 	sw	v0,4(s2)
  100f5c:	26520008 	addiu	s2,s2,8
  100f60:	8fa30024 	lw	v1,36(sp)
  100f64:	8fa20028 	lw	v0,40(sp)
  100f68:	24630001 	addiu	v1,v1,1
  100f6c:	24420001 	addiu	v0,v0,1
  100f70:	28640008 	slti	a0,v1,8
  100f74:	afa20028 	sw	v0,40(sp)
  100f78:	108002d7 	beqz	a0,101ad8 <_vfprintf_r+0xfd8>
  100f7c:	afa30024 	sw	v1,36(sp)
  100f80:	8fa40240 	lw	a0,576(sp)
  100f84:	24020080 	li	v0,128
  100f88:	108202a2 	beq	a0,v0,101a14 <_vfprintf_r+0xf14>
  100f8c:	8fa20220 	lw	v0,544(sp)
  100f90:	8fa30234 	lw	v1,564(sp)
  100f94:	00768023 	subu	s0,v1,s6
  100f98:	1a000021 	blez	s0,101020 <_vfprintf_r+0x520>
  100f9c:	2a020011 	slti	v0,s0,17
  100fa0:	14400012 	bnez	v0,100fec <_vfprintf_r+0x4ec>
  100fa4:	3c020011 	lui	v0,0x11
  100fa8:	24140010 	li	s4,16
  100fac:	2451f570 	addiu	s1,v0,-2704
  100fb0:	ae540004 	sw	s4,4(s2)
  100fb4:	ae510000 	sw	s1,0(s2)
  100fb8:	26520008 	addiu	s2,s2,8
  100fbc:	8fa20024 	lw	v0,36(sp)
  100fc0:	8fa30028 	lw	v1,40(sp)
  100fc4:	24420001 	addiu	v0,v0,1
  100fc8:	24630010 	addiu	v1,v1,16
  100fcc:	28440008 	slti	a0,v0,8
  100fd0:	afa30028 	sw	v1,40(sp)
  100fd4:	10800288 	beqz	a0,1019f8 <_vfprintf_r+0xef8>
  100fd8:	afa20024 	sw	v0,36(sp)
  100fdc:	2610fff0 	addiu	s0,s0,-16
  100fe0:	2a020011 	slti	v0,s0,17
  100fe4:	5040fff3 	beqzl	v0,100fb4 <_vfprintf_r+0x4b4>
  100fe8:	ae540004 	sw	s4,4(s2)
  100fec:	ae500004 	sw	s0,4(s2)
  100ff0:	3c020011 	lui	v0,0x11
  100ff4:	2442f570 	addiu	v0,v0,-2704
  100ff8:	8fa40024 	lw	a0,36(sp)
  100ffc:	8fa30028 	lw	v1,40(sp)
  101000:	24840001 	addiu	a0,a0,1
  101004:	ae420000 	sw	v0,0(s2)
  101008:	00701821 	addu	v1,v1,s0
  10100c:	28820008 	slti	v0,a0,8
  101010:	afa30028 	sw	v1,40(sp)
  101014:	26520008 	addiu	s2,s2,8
  101018:	1040026f 	beqz	v0,1019d8 <_vfprintf_r+0xed8>
  10101c:	afa40024 	sw	a0,36(sp)
  101020:	8fa40218 	lw	a0,536(sp)
  101024:	30820100 	andi	v0,a0,0x100
  101028:	14400077 	bnez	v0,101208 <_vfprintf_r+0x708>
  10102c:	2ae20066 	slti	v0,s7,102
  101030:	ae560004 	sw	s6,4(s2)
  101034:	ae530000 	sw	s3,0(s2)
  101038:	26520008 	addiu	s2,s2,8
  10103c:	8fa20024 	lw	v0,36(sp)
  101040:	8fa30028 	lw	v1,40(sp)
  101044:	24420001 	addiu	v0,v0,1
  101048:	00761821 	addu	v1,v1,s6
  10104c:	28440008 	slti	a0,v0,8
  101050:	afa30028 	sw	v1,40(sp)
  101054:	afa20024 	sw	v0,36(sp)
  101058:	10800064 	beqz	a0,1011ec <_vfprintf_r+0x6ec>
  10105c:	8fa40210 	lw	a0,528(sp)
  101060:	8fa30218 	lw	v1,536(sp)
  101064:	30620004 	andi	v0,v1,0x4
  101068:	50400025 	beqzl	v0,101100 <_vfprintf_r+0x600>
  10106c:	8fa30220 	lw	v1,544(sp)
  101070:	8fa40220 	lw	a0,544(sp)
  101074:	009e8023 	subu	s0,a0,s8
  101078:	1a000020 	blez	s0,1010fc <_vfprintf_r+0x5fc>
  10107c:	2a020011 	slti	v0,s0,17
  101080:	14400012 	bnez	v0,1010cc <_vfprintf_r+0x5cc>
  101084:	3c020011 	lui	v0,0x11
  101088:	24130010 	li	s3,16
  10108c:	2451f560 	addiu	s1,v0,-2720
  101090:	ae530004 	sw	s3,4(s2)
  101094:	ae510000 	sw	s1,0(s2)
  101098:	26520008 	addiu	s2,s2,8
  10109c:	8fa20024 	lw	v0,36(sp)
  1010a0:	8fa30028 	lw	v1,40(sp)
  1010a4:	24420001 	addiu	v0,v0,1
  1010a8:	24630010 	addiu	v1,v1,16
  1010ac:	28440008 	slti	a0,v0,8
  1010b0:	afa30028 	sw	v1,40(sp)
  1010b4:	10800046 	beqz	a0,1011d0 <_vfprintf_r+0x6d0>
  1010b8:	afa20024 	sw	v0,36(sp)
  1010bc:	2610fff0 	addiu	s0,s0,-16
  1010c0:	2a020011 	slti	v0,s0,17
  1010c4:	5040fff3 	beqzl	v0,101094 <_vfprintf_r+0x594>
  1010c8:	ae530004 	sw	s3,4(s2)
  1010cc:	ae500004 	sw	s0,4(s2)
  1010d0:	3c020011 	lui	v0,0x11
  1010d4:	2442f560 	addiu	v0,v0,-2720
  1010d8:	8fa40024 	lw	a0,36(sp)
  1010dc:	8fa30028 	lw	v1,40(sp)
  1010e0:	24840001 	addiu	a0,a0,1
  1010e4:	ae420000 	sw	v0,0(s2)
  1010e8:	00701821 	addu	v1,v1,s0
  1010ec:	28820008 	slti	v0,a0,8
  1010f0:	afa30028 	sw	v1,40(sp)
  1010f4:	1040002f 	beqz	v0,1011b4 <_vfprintf_r+0x6b4>
  1010f8:	afa40024 	sw	a0,36(sp)
  1010fc:	8fa30220 	lw	v1,544(sp)
  101100:	8fa4021c 	lw	a0,540(sp)
  101104:	03c3102a 	slt	v0,s8,v1
  101108:	03c2180a 	movz	v1,s8,v0
  10110c:	8fa20028 	lw	v0,40(sp)
  101110:	00832021 	addu	a0,a0,v1
  101114:	1440000a 	bnez	v0,101140 <_vfprintf_r+0x640>
  101118:	afa4021c 	sw	a0,540(sp)
  10111c:	8fa2023c 	lw	v0,572(sp)
  101120:	27b20030 	addiu	s2,sp,48
  101124:	1040fea9 	beqz	v0,100bcc <_vfprintf_r+0xcc>
  101128:	afa00024 	sw	zero,36(sp)
  10112c:	8fa5023c 	lw	a1,572(sp)
  101130:	0c0411f6 	jal	1047d8 <_free_r>
  101134:	8fa4020c 	lw	a0,524(sp)
  101138:	1000fea4 	b	100bcc <_vfprintf_r+0xcc>
  10113c:	afa0023c 	sw	zero,572(sp)
  101140:	8fa40210 	lw	a0,528(sp)
  101144:	0c040274 	jal	1009d0 <__sprint>
  101148:	27a50020 	addiu	a1,sp,32
  10114c:	1040fff4 	beqz	v0,101120 <_vfprintf_r+0x620>
  101150:	8fa2023c 	lw	v0,572(sp)
  101154:	8fa3023c 	lw	v1,572(sp)
  101158:	10600003 	beqz	v1,101168 <_vfprintf_r+0x668>
  10115c:	8fa4020c 	lw	a0,524(sp)
  101160:	0c0411f6 	jal	1047d8 <_free_r>
  101164:	8fa5023c 	lw	a1,572(sp)
  101168:	8fa40210 	lw	a0,528(sp)
  10116c:	2403ffff 	li	v1,-1
  101170:	9482000c 	lhu	v0,12(a0)
  101174:	8fa4021c 	lw	a0,540(sp)
  101178:	30420040 	andi	v0,v0,0x40
  10117c:	0082180a 	movz	v1,a0,v0
  101180:	dfbf02e0 	ld	ra,736(sp)
  101184:	0060102d 	move	v0,v1
  101188:	dfbe02d0 	ld	s8,720(sp)
  10118c:	dfb702c0 	ld	s7,704(sp)
  101190:	dfb602b0 	ld	s6,688(sp)
  101194:	dfb502a0 	ld	s5,672(sp)
  101198:	dfb40290 	ld	s4,656(sp)
  10119c:	dfb30280 	ld	s3,640(sp)
  1011a0:	dfb20270 	ld	s2,624(sp)
  1011a4:	dfb10260 	ld	s1,608(sp)
  1011a8:	dfb00250 	ld	s0,592(sp)
  1011ac:	03e00008 	jr	ra
  1011b0:	27bd02f0 	addiu	sp,sp,752
  1011b4:	8fa40210 	lw	a0,528(sp)
  1011b8:	0c040274 	jal	1009d0 <__sprint>
  1011bc:	27a50020 	addiu	a1,sp,32
  1011c0:	5040ffcf 	beqzl	v0,101100 <_vfprintf_r+0x600>
  1011c4:	8fa30220 	lw	v1,544(sp)
  1011c8:	1000ffe3 	b	101158 <_vfprintf_r+0x658>
  1011cc:	8fa3023c 	lw	v1,572(sp)
  1011d0:	8fa40210 	lw	a0,528(sp)
  1011d4:	0c040274 	jal	1009d0 <__sprint>
  1011d8:	27a50020 	addiu	a1,sp,32
  1011dc:	1440ffdd 	bnez	v0,101154 <_vfprintf_r+0x654>
  1011e0:	27b20030 	addiu	s2,sp,48
  1011e4:	1000ffb6 	b	1010c0 <_vfprintf_r+0x5c0>
  1011e8:	2610fff0 	addiu	s0,s0,-16
  1011ec:	27a50020 	addiu	a1,sp,32
  1011f0:	0c040274 	jal	1009d0 <__sprint>
  1011f4:	27b20030 	addiu	s2,sp,48
  1011f8:	5040ff9a 	beqzl	v0,101064 <_vfprintf_r+0x564>
  1011fc:	8fa30218 	lw	v1,536(sp)
  101200:	1000ffd5 	b	101158 <_vfprintf_r+0x658>
  101204:	8fa3023c 	lw	v1,572(sp)
  101208:	14400163 	bnez	v0,101798 <_vfprintf_r+0xc98>
  10120c:	8fa20204 	lw	v0,516(sp)
  101210:	dfa40228 	ld	a0,552(sp)
  101214:	0c043bea 	jal	10efa8 <dpcmp>
  101218:	0000282d 	move	a1,zero
  10121c:	1440005f 	bnez	v0,10139c <_vfprintf_r+0x89c>
  101220:	8fa50200 	lw	a1,512(sp)
  101224:	24100001 	li	s0,1
  101228:	3c020011 	lui	v0,0x11
  10122c:	ae500004 	sw	s0,4(s2)
  101230:	2442f5a0 	addiu	v0,v0,-2656
  101234:	ae420000 	sw	v0,0(s2)
  101238:	26520008 	addiu	s2,s2,8
  10123c:	8fa30024 	lw	v1,36(sp)
  101240:	8fa20028 	lw	v0,40(sp)
  101244:	24630001 	addiu	v1,v1,1
  101248:	24420001 	addiu	v0,v0,1
  10124c:	28640008 	slti	a0,v1,8
  101250:	afa20028 	sw	v0,40(sp)
  101254:	1080004a 	beqz	a0,101380 <_vfprintf_r+0x880>
  101258:	afa30024 	sw	v1,36(sp)
  10125c:	8fa20200 	lw	v0,512(sp)
  101260:	8fa30204 	lw	v1,516(sp)
  101264:	0043102a 	slt	v0,v0,v1
  101268:	54400006 	bnezl	v0,101284 <_vfprintf_r+0x784>
  10126c:	ae500004 	sw	s0,4(s2)
  101270:	8fa30218 	lw	v1,536(sp)
  101274:	30620001 	andi	v0,v1,0x1
  101278:	1040ff7b 	beqz	v0,101068 <_vfprintf_r+0x568>
  10127c:	30620004 	andi	v0,v1,0x4
  101280:	ae500004 	sw	s0,4(s2)
  101284:	8fa40224 	lw	a0,548(sp)
  101288:	8fa20024 	lw	v0,36(sp)
  10128c:	8fa30028 	lw	v1,40(sp)
  101290:	24420001 	addiu	v0,v0,1
  101294:	ae440000 	sw	a0,0(s2)
  101298:	24630001 	addiu	v1,v1,1
  10129c:	28440008 	slti	a0,v0,8
  1012a0:	26520008 	addiu	s2,s2,8
  1012a4:	afa30028 	sw	v1,40(sp)
  1012a8:	1080002e 	beqz	a0,101364 <_vfprintf_r+0x864>
  1012ac:	afa20024 	sw	v0,36(sp)
  1012b0:	8fa20204 	lw	v0,516(sp)
  1012b4:	2450ffff 	addiu	s0,v0,-1
  1012b8:	1a00ff69 	blez	s0,101060 <_vfprintf_r+0x560>
  1012bc:	2a020011 	slti	v0,s0,17
  1012c0:	14400012 	bnez	v0,10130c <_vfprintf_r+0x80c>
  1012c4:	3c020011 	lui	v0,0x11
  1012c8:	24130010 	li	s3,16
  1012cc:	2451f570 	addiu	s1,v0,-2704
  1012d0:	ae530004 	sw	s3,4(s2)
  1012d4:	ae510000 	sw	s1,0(s2)
  1012d8:	26520008 	addiu	s2,s2,8
  1012dc:	8fa20024 	lw	v0,36(sp)
  1012e0:	8fa30028 	lw	v1,40(sp)
  1012e4:	24420001 	addiu	v0,v0,1
  1012e8:	24630010 	addiu	v1,v1,16
  1012ec:	28440008 	slti	a0,v0,8
  1012f0:	afa30028 	sw	v1,40(sp)
  1012f4:	10800014 	beqz	a0,101348 <_vfprintf_r+0x848>
  1012f8:	afa20024 	sw	v0,36(sp)
  1012fc:	2610fff0 	addiu	s0,s0,-16
  101300:	2a020011 	slti	v0,s0,17
  101304:	5040fff3 	beqzl	v0,1012d4 <_vfprintf_r+0x7d4>
  101308:	ae530004 	sw	s3,4(s2)
  10130c:	ae500004 	sw	s0,4(s2)
  101310:	3c020011 	lui	v0,0x11
  101314:	2442f570 	addiu	v0,v0,-2704
  101318:	8fa40024 	lw	a0,36(sp)
  10131c:	8fa30028 	lw	v1,40(sp)
  101320:	24840001 	addiu	a0,a0,1
  101324:	ae420000 	sw	v0,0(s2)
  101328:	00701821 	addu	v1,v1,s0
  10132c:	28820008 	slti	v0,a0,8
  101330:	afa30028 	sw	v1,40(sp)
  101334:	26520008 	addiu	s2,s2,8
  101338:	1440ff49 	bnez	v0,101060 <_vfprintf_r+0x560>
  10133c:	afa40024 	sw	a0,36(sp)
  101340:	1000ffaa 	b	1011ec <_vfprintf_r+0x6ec>
  101344:	8fa40210 	lw	a0,528(sp)
  101348:	8fa40210 	lw	a0,528(sp)
  10134c:	0c040274 	jal	1009d0 <__sprint>
  101350:	27a50020 	addiu	a1,sp,32
  101354:	1440ff7f 	bnez	v0,101154 <_vfprintf_r+0x654>
  101358:	27b20030 	addiu	s2,sp,48
  10135c:	1000ffe8 	b	101300 <_vfprintf_r+0x800>
  101360:	2610fff0 	addiu	s0,s0,-16
  101364:	8fa40210 	lw	a0,528(sp)
  101368:	0c040274 	jal	1009d0 <__sprint>
  10136c:	27a50020 	addiu	a1,sp,32
  101370:	1440ff78 	bnez	v0,101154 <_vfprintf_r+0x654>
  101374:	27b20030 	addiu	s2,sp,48
  101378:	1000ffce 	b	1012b4 <_vfprintf_r+0x7b4>
  10137c:	8fa20204 	lw	v0,516(sp)
  101380:	8fa40210 	lw	a0,528(sp)
  101384:	0c040274 	jal	1009d0 <__sprint>
  101388:	27a50020 	addiu	a1,sp,32
  10138c:	1440ff71 	bnez	v0,101154 <_vfprintf_r+0x654>
  101390:	27b20030 	addiu	s2,sp,48
  101394:	1000ffb2 	b	101260 <_vfprintf_r+0x760>
  101398:	8fa20200 	lw	v0,512(sp)
  10139c:	18a00093 	blez	a1,1015ec <_vfprintf_r+0xaec>
  1013a0:	8fa30204 	lw	v1,516(sp)
  1013a4:	00a3102a 	slt	v0,a1,v1
  1013a8:	54400058 	bnezl	v0,10150c <_vfprintf_r+0xa0c>
  1013ac:	ae450004 	sw	a1,4(s2)
  1013b0:	ae430004 	sw	v1,4(s2)
  1013b4:	0060282d 	move	a1,v1
  1013b8:	ae530000 	sw	s3,0(s2)
  1013bc:	26520008 	addiu	s2,s2,8
  1013c0:	8fa20024 	lw	v0,36(sp)
  1013c4:	8fa30028 	lw	v1,40(sp)
  1013c8:	24420001 	addiu	v0,v0,1
  1013cc:	00651821 	addu	v1,v1,a1
  1013d0:	28440008 	slti	a0,v0,8
  1013d4:	afa30028 	sw	v1,40(sp)
  1013d8:	10800045 	beqz	a0,1014f0 <_vfprintf_r+0x9f0>
  1013dc:	afa20024 	sw	v0,36(sp)
  1013e0:	8fa20200 	lw	v0,512(sp)
  1013e4:	00458023 	subu	s0,v0,a1
  1013e8:	1a000021 	blez	s0,101470 <_vfprintf_r+0x970>
  1013ec:	2a020011 	slti	v0,s0,17
  1013f0:	14400012 	bnez	v0,10143c <_vfprintf_r+0x93c>
  1013f4:	3c020011 	lui	v0,0x11
  1013f8:	24130010 	li	s3,16
  1013fc:	2451f570 	addiu	s1,v0,-2704
  101400:	ae530004 	sw	s3,4(s2)
  101404:	ae510000 	sw	s1,0(s2)
  101408:	26520008 	addiu	s2,s2,8
  10140c:	8fa20024 	lw	v0,36(sp)
  101410:	8fa30028 	lw	v1,40(sp)
  101414:	24420001 	addiu	v0,v0,1
  101418:	24630010 	addiu	v1,v1,16
  10141c:	28440008 	slti	a0,v0,8
  101420:	afa30028 	sw	v1,40(sp)
  101424:	1080002b 	beqz	a0,1014d4 <_vfprintf_r+0x9d4>
  101428:	afa20024 	sw	v0,36(sp)
  10142c:	2610fff0 	addiu	s0,s0,-16
  101430:	2a020011 	slti	v0,s0,17
  101434:	5040fff3 	beqzl	v0,101404 <_vfprintf_r+0x904>
  101438:	ae530004 	sw	s3,4(s2)
  10143c:	ae500004 	sw	s0,4(s2)
  101440:	3c020011 	lui	v0,0x11
  101444:	2442f570 	addiu	v0,v0,-2704
  101448:	8fa40024 	lw	a0,36(sp)
  10144c:	8fa30028 	lw	v1,40(sp)
  101450:	24840001 	addiu	a0,a0,1
  101454:	ae420000 	sw	v0,0(s2)
  101458:	00701821 	addu	v1,v1,s0
  10145c:	28820008 	slti	v0,a0,8
  101460:	afa30028 	sw	v1,40(sp)
  101464:	26520008 	addiu	s2,s2,8
  101468:	10400013 	beqz	v0,1014b8 <_vfprintf_r+0x9b8>
  10146c:	afa40024 	sw	a0,36(sp)
  101470:	8fa30218 	lw	v1,536(sp)
  101474:	30620001 	andi	v0,v1,0x1
  101478:	1040fefb 	beqz	v0,101068 <_vfprintf_r+0x568>
  10147c:	30620004 	andi	v0,v1,0x4
  101480:	24030001 	li	v1,1
  101484:	3c020011 	lui	v0,0x11
  101488:	ae430004 	sw	v1,4(s2)
  10148c:	2442f5a8 	addiu	v0,v0,-2648
  101490:	ae420000 	sw	v0,0(s2)
  101494:	26520008 	addiu	s2,s2,8
  101498:	8fa30024 	lw	v1,36(sp)
  10149c:	8fa20028 	lw	v0,40(sp)
  1014a0:	24630001 	addiu	v1,v1,1
  1014a4:	24420001 	addiu	v0,v0,1
  1014a8:	afa20028 	sw	v0,40(sp)
  1014ac:	28640008 	slti	a0,v1,8
  1014b0:	1000fee9 	b	101058 <_vfprintf_r+0x558>
  1014b4:	afa30024 	sw	v1,36(sp)
  1014b8:	8fa40210 	lw	a0,528(sp)
  1014bc:	0c040274 	jal	1009d0 <__sprint>
  1014c0:	27a50020 	addiu	a1,sp,32
  1014c4:	1440ff23 	bnez	v0,101154 <_vfprintf_r+0x654>
  1014c8:	27b20030 	addiu	s2,sp,48
  1014cc:	1000ffe9 	b	101474 <_vfprintf_r+0x974>
  1014d0:	8fa30218 	lw	v1,536(sp)
  1014d4:	8fa40210 	lw	a0,528(sp)
  1014d8:	0c040274 	jal	1009d0 <__sprint>
  1014dc:	27a50020 	addiu	a1,sp,32
  1014e0:	1440ff1c 	bnez	v0,101154 <_vfprintf_r+0x654>
  1014e4:	27b20030 	addiu	s2,sp,48
  1014e8:	1000ffd1 	b	101430 <_vfprintf_r+0x930>
  1014ec:	2610fff0 	addiu	s0,s0,-16
  1014f0:	8fa40210 	lw	a0,528(sp)
  1014f4:	0c040274 	jal	1009d0 <__sprint>
  1014f8:	27a50020 	addiu	a1,sp,32
  1014fc:	1440ff15 	bnez	v0,101154 <_vfprintf_r+0x654>
  101500:	27b20030 	addiu	s2,sp,48
  101504:	1000ffb6 	b	1013e0 <_vfprintf_r+0x8e0>
  101508:	8fa50204 	lw	a1,516(sp)
  10150c:	00a0402d 	move	t0,a1
  101510:	ae530000 	sw	s3,0(s2)
  101514:	26520008 	addiu	s2,s2,8
  101518:	8fa20024 	lw	v0,36(sp)
  10151c:	8fa30028 	lw	v1,40(sp)
  101520:	24420001 	addiu	v0,v0,1
  101524:	00651821 	addu	v1,v1,a1
  101528:	28440008 	slti	a0,v0,8
  10152c:	afa30028 	sw	v1,40(sp)
  101530:	10800027 	beqz	a0,1015d0 <_vfprintf_r+0xad0>
  101534:	afa20024 	sw	v0,36(sp)
  101538:	24030001 	li	v1,1
  10153c:	3c020011 	lui	v0,0x11
  101540:	ae430004 	sw	v1,4(s2)
  101544:	2442f5a8 	addiu	v0,v0,-2648
  101548:	ae420000 	sw	v0,0(s2)
  10154c:	02689821 	addu	s3,s3,t0
  101550:	8fa30024 	lw	v1,36(sp)
  101554:	26520008 	addiu	s2,s2,8
  101558:	8fa20028 	lw	v0,40(sp)
  10155c:	24630001 	addiu	v1,v1,1
  101560:	24420001 	addiu	v0,v0,1
  101564:	28640008 	slti	a0,v1,8
  101568:	afa20028 	sw	v0,40(sp)
  10156c:	10800011 	beqz	a0,1015b4 <_vfprintf_r+0xab4>
  101570:	afa30024 	sw	v1,36(sp)
  101574:	8fa20200 	lw	v0,512(sp)
  101578:	8fa40204 	lw	a0,516(sp)
  10157c:	ae530000 	sw	s3,0(s2)
  101580:	00822023 	subu	a0,a0,v0
  101584:	ae440004 	sw	a0,4(s2)
  101588:	26520008 	addiu	s2,s2,8
  10158c:	8fa30024 	lw	v1,36(sp)
  101590:	8fa20028 	lw	v0,40(sp)
  101594:	24630001 	addiu	v1,v1,1
  101598:	00441021 	addu	v0,v0,a0
  10159c:	28650008 	slti	a1,v1,8
  1015a0:	afa20028 	sw	v0,40(sp)
  1015a4:	14a0feae 	bnez	a1,101060 <_vfprintf_r+0x560>
  1015a8:	afa30024 	sw	v1,36(sp)
  1015ac:	1000ff0f 	b	1011ec <_vfprintf_r+0x6ec>
  1015b0:	8fa40210 	lw	a0,528(sp)
  1015b4:	8fa40210 	lw	a0,528(sp)
  1015b8:	0c040274 	jal	1009d0 <__sprint>
  1015bc:	27a50020 	addiu	a1,sp,32
  1015c0:	1440fee4 	bnez	v0,101154 <_vfprintf_r+0x654>
  1015c4:	27b20030 	addiu	s2,sp,48
  1015c8:	1000ffeb 	b	101578 <_vfprintf_r+0xa78>
  1015cc:	8fa20200 	lw	v0,512(sp)
  1015d0:	8fa40210 	lw	a0,528(sp)
  1015d4:	0c040274 	jal	1009d0 <__sprint>
  1015d8:	27a50020 	addiu	a1,sp,32
  1015dc:	1440fedd 	bnez	v0,101154 <_vfprintf_r+0x654>
  1015e0:	8fa80200 	lw	t0,512(sp)
  1015e4:	1000ffd4 	b	101538 <_vfprintf_r+0xa38>
  1015e8:	27b20030 	addiu	s2,sp,48
  1015ec:	24100001 	li	s0,1
  1015f0:	3c020011 	lui	v0,0x11
  1015f4:	ae500004 	sw	s0,4(s2)
  1015f8:	2442f5a0 	addiu	v0,v0,-2656
  1015fc:	ae420000 	sw	v0,0(s2)
  101600:	26520008 	addiu	s2,s2,8
  101604:	8fa30024 	lw	v1,36(sp)
  101608:	8fa20028 	lw	v0,40(sp)
  10160c:	24630001 	addiu	v1,v1,1
  101610:	24420001 	addiu	v0,v0,1
  101614:	28640008 	slti	a0,v1,8
  101618:	afa20028 	sw	v0,40(sp)
  10161c:	10800056 	beqz	a0,101778 <_vfprintf_r+0xc78>
  101620:	afa30024 	sw	v1,36(sp)
  101624:	8fa20200 	lw	v0,512(sp)
  101628:	54400005 	bnezl	v0,101640 <_vfprintf_r+0xb40>
  10162c:	ae500004 	sw	s0,4(s2)
  101630:	8fa20204 	lw	v0,516(sp)
  101634:	1040fe8b 	beqz	v0,101064 <_vfprintf_r+0x564>
  101638:	8fa30218 	lw	v1,536(sp)
  10163c:	ae500004 	sw	s0,4(s2)
  101640:	8fa20224 	lw	v0,548(sp)
  101644:	8fa30028 	lw	v1,40(sp)
  101648:	ae420000 	sw	v0,0(s2)
  10164c:	26520008 	addiu	s2,s2,8
  101650:	8fa20024 	lw	v0,36(sp)
  101654:	24630001 	addiu	v1,v1,1
  101658:	afa30028 	sw	v1,40(sp)
  10165c:	24420001 	addiu	v0,v0,1
  101660:	28440008 	slti	a0,v0,8
  101664:	1080003d 	beqz	a0,10175c <_vfprintf_r+0xc5c>
  101668:	afa20024 	sw	v0,36(sp)
  10166c:	8fa20200 	lw	v0,512(sp)
  101670:	00028023 	negu	s0,v0
  101674:	1a000023 	blez	s0,101704 <_vfprintf_r+0xc04>
  101678:	8fa50204 	lw	a1,516(sp)
  10167c:	2a020011 	slti	v0,s0,17
  101680:	14400012 	bnez	v0,1016cc <_vfprintf_r+0xbcc>
  101684:	3c020011 	lui	v0,0x11
  101688:	24140010 	li	s4,16
  10168c:	2451f570 	addiu	s1,v0,-2704
  101690:	ae540004 	sw	s4,4(s2)
  101694:	ae510000 	sw	s1,0(s2)
  101698:	26520008 	addiu	s2,s2,8
  10169c:	8fa20024 	lw	v0,36(sp)
  1016a0:	8fa30028 	lw	v1,40(sp)
  1016a4:	24420001 	addiu	v0,v0,1
  1016a8:	24630010 	addiu	v1,v1,16
  1016ac:	28440008 	slti	a0,v0,8
  1016b0:	afa30028 	sw	v1,40(sp)
  1016b4:	10800022 	beqz	a0,101740 <_vfprintf_r+0xc40>
  1016b8:	afa20024 	sw	v0,36(sp)
  1016bc:	2610fff0 	addiu	s0,s0,-16
  1016c0:	2a020011 	slti	v0,s0,17
  1016c4:	5040fff3 	beqzl	v0,101694 <_vfprintf_r+0xb94>
  1016c8:	ae540004 	sw	s4,4(s2)
  1016cc:	ae500004 	sw	s0,4(s2)
  1016d0:	3c020011 	lui	v0,0x11
  1016d4:	2442f570 	addiu	v0,v0,-2704
  1016d8:	8fa40024 	lw	a0,36(sp)
  1016dc:	8fa30028 	lw	v1,40(sp)
  1016e0:	24840001 	addiu	a0,a0,1
  1016e4:	ae420000 	sw	v0,0(s2)
  1016e8:	00701821 	addu	v1,v1,s0
  1016ec:	28820008 	slti	v0,a0,8
  1016f0:	afa30028 	sw	v1,40(sp)
  1016f4:	26520008 	addiu	s2,s2,8
  1016f8:	1040000a 	beqz	v0,101724 <_vfprintf_r+0xc24>
  1016fc:	afa40024 	sw	a0,36(sp)
  101700:	8fa50204 	lw	a1,516(sp)
  101704:	ae530000 	sw	s3,0(s2)
  101708:	ae450004 	sw	a1,4(s2)
  10170c:	26520008 	addiu	s2,s2,8
  101710:	8fa30024 	lw	v1,36(sp)
  101714:	8fa20028 	lw	v0,40(sp)
  101718:	24630001 	addiu	v1,v1,1
  10171c:	1000ff62 	b	1014a8 <_vfprintf_r+0x9a8>
  101720:	00451021 	addu	v0,v0,a1
  101724:	8fa40210 	lw	a0,528(sp)
  101728:	0c040274 	jal	1009d0 <__sprint>
  10172c:	27a50020 	addiu	a1,sp,32
  101730:	1440fe88 	bnez	v0,101154 <_vfprintf_r+0x654>
  101734:	27b20030 	addiu	s2,sp,48
  101738:	1000fff2 	b	101704 <_vfprintf_r+0xc04>
  10173c:	8fa50204 	lw	a1,516(sp)
  101740:	8fa40210 	lw	a0,528(sp)
  101744:	0c040274 	jal	1009d0 <__sprint>
  101748:	27a50020 	addiu	a1,sp,32
  10174c:	1440fe81 	bnez	v0,101154 <_vfprintf_r+0x654>
  101750:	27b20030 	addiu	s2,sp,48
  101754:	1000ffda 	b	1016c0 <_vfprintf_r+0xbc0>
  101758:	2610fff0 	addiu	s0,s0,-16
  10175c:	8fa40210 	lw	a0,528(sp)
  101760:	0c040274 	jal	1009d0 <__sprint>
  101764:	27a50020 	addiu	a1,sp,32
  101768:	1440fe7a 	bnez	v0,101154 <_vfprintf_r+0x654>
  10176c:	27b20030 	addiu	s2,sp,48
  101770:	1000ffbf 	b	101670 <_vfprintf_r+0xb70>
  101774:	8fa20200 	lw	v0,512(sp)
  101778:	8fa40210 	lw	a0,528(sp)
  10177c:	0c040274 	jal	1009d0 <__sprint>
  101780:	27a50020 	addiu	a1,sp,32
  101784:	1440fe73 	bnez	v0,101154 <_vfprintf_r+0x654>
  101788:	27b20030 	addiu	s2,sp,48
  10178c:	1000ffa6 	b	101628 <_vfprintf_r+0xb28>
  101790:	8fa20200 	lw	v0,512(sp)
  101794:	00000000 	nop
  101798:	28420002 	slti	v0,v0,2
  10179c:	14400077 	bnez	v0,10197c <_vfprintf_r+0xe7c>
  1017a0:	8fa40218 	lw	a0,536(sp)
  1017a4:	92630000 	lbu	v1,0(s3)
  1017a8:	2402002e 	li	v0,46
  1017ac:	a3a201d1 	sb	v0,465(sp)
  1017b0:	26730001 	addiu	s3,s3,1
  1017b4:	24020002 	li	v0,2
  1017b8:	a3a301d0 	sb	v1,464(sp)
  1017bc:	ae420004 	sw	v0,4(s2)
  1017c0:	27a201d0 	addiu	v0,sp,464
  1017c4:	ae420000 	sw	v0,0(s2)
  1017c8:	26520008 	addiu	s2,s2,8
  1017cc:	8fa30024 	lw	v1,36(sp)
  1017d0:	8fa20028 	lw	v0,40(sp)
  1017d4:	24630001 	addiu	v1,v1,1
  1017d8:	24420002 	addiu	v0,v0,2
  1017dc:	28640008 	slti	a0,v1,8
  1017e0:	afa20028 	sw	v0,40(sp)
  1017e4:	1080005e 	beqz	a0,101960 <_vfprintf_r+0xe60>
  1017e8:	afa30024 	sw	v1,36(sp)
  1017ec:	dfa40228 	ld	a0,552(sp)
  1017f0:	0c043bea 	jal	10efa8 <dpcmp>
  1017f4:	0000282d 	move	a1,zero
  1017f8:	1040002d 	beqz	v0,1018b0 <_vfprintf_r+0xdb0>
  1017fc:	8fa20204 	lw	v0,516(sp)
  101800:	8fa40204 	lw	a0,516(sp)
  101804:	ae530000 	sw	s3,0(s2)
  101808:	2482ffff 	addiu	v0,a0,-1
  10180c:	ae420004 	sw	v0,4(s2)
  101810:	26520008 	addiu	s2,s2,8
  101814:	8fa20028 	lw	v0,40(sp)
  101818:	8fa30024 	lw	v1,36(sp)
  10181c:	00441021 	addu	v0,v0,a0
  101820:	24630001 	addiu	v1,v1,1
  101824:	2442ffff 	addiu	v0,v0,-1
  101828:	28640008 	slti	a0,v1,8
  10182c:	afa20028 	sw	v0,40(sp)
  101830:	10800016 	beqz	a0,10188c <_vfprintf_r+0xd8c>
  101834:	afa30024 	sw	v1,36(sp)
  101838:	8fa20230 	lw	v0,560(sp)
  10183c:	8fa40230 	lw	a0,560(sp)
  101840:	ae420004 	sw	v0,4(s2)
  101844:	27a20010 	addiu	v0,sp,16
  101848:	ae420000 	sw	v0,0(s2)
  10184c:	26520008 	addiu	s2,s2,8
  101850:	8fa30024 	lw	v1,36(sp)
  101854:	8fa20028 	lw	v0,40(sp)
  101858:	24630001 	addiu	v1,v1,1
  10185c:	00441021 	addu	v0,v0,a0
  101860:	afa30024 	sw	v1,36(sp)
  101864:	28640008 	slti	a0,v1,8
  101868:	1480fdfd 	bnez	a0,101060 <_vfprintf_r+0x560>
  10186c:	afa20028 	sw	v0,40(sp)
  101870:	8fa40210 	lw	a0,528(sp)
  101874:	0c040274 	jal	1009d0 <__sprint>
  101878:	27a50020 	addiu	a1,sp,32
  10187c:	1440fe35 	bnez	v0,101154 <_vfprintf_r+0x654>
  101880:	27b20030 	addiu	s2,sp,48
  101884:	1000fdf7 	b	101064 <_vfprintf_r+0x564>
  101888:	8fa30218 	lw	v1,536(sp)
  10188c:	8fa40210 	lw	a0,528(sp)
  101890:	27a50020 	addiu	a1,sp,32
  101894:	0c040274 	jal	1009d0 <__sprint>
  101898:	27b20030 	addiu	s2,sp,48
  10189c:	1040ffe7 	beqz	v0,10183c <_vfprintf_r+0xd3c>
  1018a0:	8fa20230 	lw	v0,560(sp)
  1018a4:	1000fe2c 	b	101158 <_vfprintf_r+0x658>
  1018a8:	8fa3023c 	lw	v1,572(sp)
  1018ac:	00000000 	nop
  1018b0:	2450ffff 	addiu	s0,v0,-1
  1018b4:	1a00ffe0 	blez	s0,101838 <_vfprintf_r+0xd38>
  1018b8:	2a020011 	slti	v0,s0,17
  1018bc:	14400012 	bnez	v0,101908 <_vfprintf_r+0xe08>
  1018c0:	3c020011 	lui	v0,0x11
  1018c4:	24130010 	li	s3,16
  1018c8:	2451f570 	addiu	s1,v0,-2704
  1018cc:	ae530004 	sw	s3,4(s2)
  1018d0:	ae510000 	sw	s1,0(s2)
  1018d4:	26520008 	addiu	s2,s2,8
  1018d8:	8fa20024 	lw	v0,36(sp)
  1018dc:	8fa30028 	lw	v1,40(sp)
  1018e0:	24420001 	addiu	v0,v0,1
  1018e4:	24630010 	addiu	v1,v1,16
  1018e8:	28440008 	slti	a0,v0,8
  1018ec:	afa30028 	sw	v1,40(sp)
  1018f0:	10800014 	beqz	a0,101944 <_vfprintf_r+0xe44>
  1018f4:	afa20024 	sw	v0,36(sp)
  1018f8:	2610fff0 	addiu	s0,s0,-16
  1018fc:	2a020011 	slti	v0,s0,17
  101900:	5040fff3 	beqzl	v0,1018d0 <_vfprintf_r+0xdd0>
  101904:	ae530004 	sw	s3,4(s2)
  101908:	ae500004 	sw	s0,4(s2)
  10190c:	3c020011 	lui	v0,0x11
  101910:	2442f570 	addiu	v0,v0,-2704
  101914:	8fa40024 	lw	a0,36(sp)
  101918:	8fa30028 	lw	v1,40(sp)
  10191c:	24840001 	addiu	a0,a0,1
  101920:	ae420000 	sw	v0,0(s2)
  101924:	00701821 	addu	v1,v1,s0
  101928:	28820008 	slti	v0,a0,8
  10192c:	afa30028 	sw	v1,40(sp)
  101930:	26520008 	addiu	s2,s2,8
  101934:	1440ffc0 	bnez	v0,101838 <_vfprintf_r+0xd38>
  101938:	afa40024 	sw	a0,36(sp)
  10193c:	1000ffd4 	b	101890 <_vfprintf_r+0xd90>
  101940:	8fa40210 	lw	a0,528(sp)
  101944:	8fa40210 	lw	a0,528(sp)
  101948:	0c040274 	jal	1009d0 <__sprint>
  10194c:	27a50020 	addiu	a1,sp,32
  101950:	1440fe00 	bnez	v0,101154 <_vfprintf_r+0x654>
  101954:	27b20030 	addiu	s2,sp,48
  101958:	1000ffe8 	b	1018fc <_vfprintf_r+0xdfc>
  10195c:	2610fff0 	addiu	s0,s0,-16
  101960:	8fa40210 	lw	a0,528(sp)
  101964:	0c040274 	jal	1009d0 <__sprint>
  101968:	27a50020 	addiu	a1,sp,32
  10196c:	1440fdf9 	bnez	v0,101154 <_vfprintf_r+0x654>
  101970:	27b20030 	addiu	s2,sp,48
  101974:	1000ff9d 	b	1017ec <_vfprintf_r+0xcec>
  101978:	00000000 	nop
  10197c:	30820001 	andi	v0,a0,0x1
  101980:	5440ff89 	bnezl	v0,1017a8 <_vfprintf_r+0xca8>
  101984:	92630000 	lbu	v1,0(s3)
  101988:	24020001 	li	v0,1
  10198c:	ae530000 	sw	s3,0(s2)
  101990:	ae420004 	sw	v0,4(s2)
  101994:	26520008 	addiu	s2,s2,8
  101998:	8fa30024 	lw	v1,36(sp)
  10199c:	8fa20028 	lw	v0,40(sp)
  1019a0:	24630001 	addiu	v1,v1,1
  1019a4:	24420001 	addiu	v0,v0,1
  1019a8:	28640008 	slti	a0,v1,8
  1019ac:	afa20028 	sw	v0,40(sp)
  1019b0:	1480ffa1 	bnez	a0,101838 <_vfprintf_r+0xd38>
  1019b4:	afa30024 	sw	v1,36(sp)
  1019b8:	8fa40210 	lw	a0,528(sp)
  1019bc:	0c040274 	jal	1009d0 <__sprint>
  1019c0:	27a50020 	addiu	a1,sp,32
  1019c4:	1440fde3 	bnez	v0,101154 <_vfprintf_r+0x654>
  1019c8:	27b20030 	addiu	s2,sp,48
  1019cc:	1000ff9b 	b	10183c <_vfprintf_r+0xd3c>
  1019d0:	8fa20230 	lw	v0,560(sp)
  1019d4:	00000000 	nop
  1019d8:	8fa40210 	lw	a0,528(sp)
  1019dc:	0c040274 	jal	1009d0 <__sprint>
  1019e0:	27a50020 	addiu	a1,sp,32
  1019e4:	1440fddb 	bnez	v0,101154 <_vfprintf_r+0x654>
  1019e8:	27b20030 	addiu	s2,sp,48
  1019ec:	1000fd8d 	b	101024 <_vfprintf_r+0x524>
  1019f0:	8fa40218 	lw	a0,536(sp)
  1019f4:	00000000 	nop
  1019f8:	8fa40210 	lw	a0,528(sp)
  1019fc:	0c040274 	jal	1009d0 <__sprint>
  101a00:	27a50020 	addiu	a1,sp,32
  101a04:	1440fdd3 	bnez	v0,101154 <_vfprintf_r+0x654>
  101a08:	27b20030 	addiu	s2,sp,48
  101a0c:	1000fd74 	b	100fe0 <_vfprintf_r+0x4e0>
  101a10:	2610fff0 	addiu	s0,s0,-16
  101a14:	005e8023 	subu	s0,v0,s8
  101a18:	1a00fd5d 	blez	s0,100f90 <_vfprintf_r+0x490>
  101a1c:	2a020011 	slti	v0,s0,17
  101a20:	14400012 	bnez	v0,101a6c <_vfprintf_r+0xf6c>
  101a24:	3c020011 	lui	v0,0x11
  101a28:	24140010 	li	s4,16
  101a2c:	2451f570 	addiu	s1,v0,-2704
  101a30:	ae540004 	sw	s4,4(s2)
  101a34:	ae510000 	sw	s1,0(s2)
  101a38:	26520008 	addiu	s2,s2,8
  101a3c:	8fa20024 	lw	v0,36(sp)
  101a40:	8fa30028 	lw	v1,40(sp)
  101a44:	24420001 	addiu	v0,v0,1
  101a48:	24630010 	addiu	v1,v1,16
  101a4c:	28440008 	slti	a0,v0,8
  101a50:	afa30028 	sw	v1,40(sp)
  101a54:	10800019 	beqz	a0,101abc <_vfprintf_r+0xfbc>
  101a58:	afa20024 	sw	v0,36(sp)
  101a5c:	2610fff0 	addiu	s0,s0,-16
  101a60:	2a020011 	slti	v0,s0,17
  101a64:	5040fff3 	beqzl	v0,101a34 <_vfprintf_r+0xf34>
  101a68:	ae540004 	sw	s4,4(s2)
  101a6c:	ae500004 	sw	s0,4(s2)
  101a70:	3c020011 	lui	v0,0x11
  101a74:	2442f570 	addiu	v0,v0,-2704
  101a78:	8fa40024 	lw	a0,36(sp)
  101a7c:	8fa30028 	lw	v1,40(sp)
  101a80:	24840001 	addiu	a0,a0,1
  101a84:	ae420000 	sw	v0,0(s2)
  101a88:	00701821 	addu	v1,v1,s0
  101a8c:	28820008 	slti	v0,a0,8
  101a90:	afa30028 	sw	v1,40(sp)
  101a94:	26520008 	addiu	s2,s2,8
  101a98:	1440fd3d 	bnez	v0,100f90 <_vfprintf_r+0x490>
  101a9c:	afa40024 	sw	a0,36(sp)
  101aa0:	8fa40210 	lw	a0,528(sp)
  101aa4:	0c040274 	jal	1009d0 <__sprint>
  101aa8:	27a50020 	addiu	a1,sp,32
  101aac:	1440fda9 	bnez	v0,101154 <_vfprintf_r+0x654>
  101ab0:	27b20030 	addiu	s2,sp,48
  101ab4:	1000fd37 	b	100f94 <_vfprintf_r+0x494>
  101ab8:	8fa30234 	lw	v1,564(sp)
  101abc:	8fa40210 	lw	a0,528(sp)
  101ac0:	0c040274 	jal	1009d0 <__sprint>
  101ac4:	27a50020 	addiu	a1,sp,32
  101ac8:	1440fda2 	bnez	v0,101154 <_vfprintf_r+0x654>
  101acc:	27b20030 	addiu	s2,sp,48
  101ad0:	1000ffe3 	b	101a60 <_vfprintf_r+0xf60>
  101ad4:	2610fff0 	addiu	s0,s0,-16
  101ad8:	8fa40210 	lw	a0,528(sp)
  101adc:	27a50020 	addiu	a1,sp,32
  101ae0:	0c040274 	jal	1009d0 <__sprint>
  101ae4:	27b20030 	addiu	s2,sp,48
  101ae8:	1040fd26 	beqz	v0,100f84 <_vfprintf_r+0x484>
  101aec:	8fa40240 	lw	a0,576(sp)
  101af0:	1000fd99 	b	101158 <_vfprintf_r+0x658>
  101af4:	8fa3023c 	lw	v1,572(sp)
  101af8:	30620002 	andi	v0,v1,0x2
  101afc:	1040fd21 	beqz	v0,100f84 <_vfprintf_r+0x484>
  101b00:	8fa40240 	lw	a0,576(sp)
  101b04:	24020030 	li	v0,48
  101b08:	a3b701d1 	sb	s7,465(sp)
  101b0c:	a3a201d0 	sb	v0,464(sp)
  101b10:	27a301d0 	addiu	v1,sp,464
  101b14:	24020002 	li	v0,2
  101b18:	ae430000 	sw	v1,0(s2)
  101b1c:	ae420004 	sw	v0,4(s2)
  101b20:	26520008 	addiu	s2,s2,8
  101b24:	8fa30024 	lw	v1,36(sp)
  101b28:	8fa20028 	lw	v0,40(sp)
  101b2c:	24630001 	addiu	v1,v1,1
  101b30:	24420002 	addiu	v0,v0,2
  101b34:	28640008 	slti	a0,v1,8
  101b38:	afa20028 	sw	v0,40(sp)
  101b3c:	1480fd10 	bnez	a0,100f80 <_vfprintf_r+0x480>
  101b40:	afa30024 	sw	v1,36(sp)
  101b44:	8fa40210 	lw	a0,528(sp)
  101b48:	0c040274 	jal	1009d0 <__sprint>
  101b4c:	27a50020 	addiu	a1,sp,32
  101b50:	1440fd80 	bnez	v0,101154 <_vfprintf_r+0x654>
  101b54:	27b20030 	addiu	s2,sp,48
  101b58:	1000fd0a 	b	100f84 <_vfprintf_r+0x484>
  101b5c:	8fa40240 	lw	a0,576(sp)
  101b60:	8fa40210 	lw	a0,528(sp)
  101b64:	0c040274 	jal	1009d0 <__sprint>
  101b68:	27a50020 	addiu	a1,sp,32
  101b6c:	1440fd79 	bnez	v0,101154 <_vfprintf_r+0x654>
  101b70:	27b20030 	addiu	s2,sp,48
  101b74:	1000fcf3 	b	100f44 <_vfprintf_r+0x444>
  101b78:	93a50000 	lbu	a1,0(sp)
  101b7c:	00000000 	nop
  101b80:	8fa40210 	lw	a0,528(sp)
  101b84:	0c040274 	jal	1009d0 <__sprint>
  101b88:	27a50020 	addiu	a1,sp,32
  101b8c:	1440fd71 	bnez	v0,101154 <_vfprintf_r+0x654>
  101b90:	27b20030 	addiu	s2,sp,48
  101b94:	1000fcda 	b	100f00 <_vfprintf_r+0x400>
  101b98:	2610fff0 	addiu	s0,s0,-16
  101b9c:	00000000 	nop
  101ba0:	8fa30218 	lw	v1,536(sp)
  101ba4:	30620002 	andi	v0,v1,0x2
  101ba8:	1000fcbd 	b	100ea0 <_vfprintf_r+0x3a0>
  101bac:	005ef021 	addu	s8,v0,s8
  101bb0:	8fa30238 	lw	v1,568(sp)
  101bb4:	3202000f 	andi	v0,s0,0xf
  101bb8:	0002103c 	dsll32	v0,v0,0x0
  101bbc:	0002103f 	dsra32	v0,v0,0x0
  101bc0:	2673ffff 	addiu	s3,s3,-1
  101bc4:	00621021 	addu	v0,v1,v0
  101bc8:	0010813a 	dsrl	s0,s0,0x4
  101bcc:	90430000 	lbu	v1,0(v0)
  101bd0:	1600fff7 	bnez	s0,101bb0 <_vfprintf_r+0x10b0>
  101bd4:	a2630000 	sb	v1,0(s3)
  101bd8:	03b31023 	subu	v0,sp,s3
  101bdc:	1000fca8 	b	100e80 <_vfprintf_r+0x380>
  101be0:	245601cc 	addiu	s6,v0,460
  101be4:	1460fca2 	bnez	v1,100e70 <_vfprintf_r+0x370>
  101be8:	3c020011 	lui	v0,0x11
  101bec:	32020007 	andi	v0,s0,0x7
  101bf0:	2673ffff 	addiu	s3,s3,-1
  101bf4:	64420030 	daddiu	v0,v0,48
  101bf8:	001080fa 	dsrl	s0,s0,0x3
  101bfc:	304300ff 	andi	v1,v0,0xff
  101c00:	a2630000 	sb	v1,0(s3)
  101c04:	1600fff9 	bnez	s0,101bec <_vfprintf_r+0x10ec>
  101c08:	00000000 	nop
  101c0c:	8fa40218 	lw	a0,536(sp)
  101c10:	30820001 	andi	v0,a0,0x1
  101c14:	1040fff1 	beqz	v0,101bdc <_vfprintf_r+0x10dc>
  101c18:	03b31023 	subu	v0,sp,s3
  101c1c:	24020030 	li	v0,48
  101c20:	5043ffee 	beql	v0,v1,101bdc <_vfprintf_r+0x10dc>
  101c24:	03b31023 	subu	v0,sp,s3
  101c28:	2673ffff 	addiu	s3,s3,-1
  101c2c:	1000ffea 	b	101bd8 <_vfprintf_r+0x10d8>
  101c30:	a2620000 	sb	v0,0(s3)
  101c34:	2e02000a 	sltiu	v0,s0,10
  101c38:	14400010 	bnez	v0,101c7c <_vfprintf_r+0x117c>
  101c3c:	66020030 	daddiu	v0,s0,48
  101c40:	0200202d 	move	a0,s0
  101c44:	0c043864 	jal	10e190 <__umoddi3>
  101c48:	2405000a 	li	a1,10
  101c4c:	2673ffff 	addiu	s3,s3,-1
  101c50:	64420030 	daddiu	v0,v0,48
  101c54:	0200202d 	move	a0,s0
  101c58:	304200ff 	andi	v0,v0,0xff
  101c5c:	2405000a 	li	a1,10
  101c60:	0c0436b2 	jal	10dac8 <__udivdi3>
  101c64:	a2620000 	sb	v0,0(s3)
  101c68:	0040802d 	move	s0,v0
  101c6c:	2c42000a 	sltiu	v0,v0,10
  101c70:	1040fff4 	beqz	v0,101c44 <_vfprintf_r+0x1144>
  101c74:	0200202d 	move	a0,s0
  101c78:	66020030 	daddiu	v0,s0,48
  101c7c:	2673ffff 	addiu	s3,s3,-1
  101c80:	1000ffea 	b	101c2c <_vfprintf_r+0x112c>
  101c84:	304200ff 	andi	v0,v0,0xff
  101c88:	1460ffd4 	bnez	v1,101bdc <_vfprintf_r+0x10dc>
  101c8c:	03b31023 	subu	v0,sp,s3
  101c90:	8fa40218 	lw	a0,536(sp)
  101c94:	30820001 	andi	v0,a0,0x1
  101c98:	1040ffd0 	beqz	v0,101bdc <_vfprintf_r+0x10dc>
  101c9c:	03b31023 	subu	v0,sp,s3
  101ca0:	24020030 	li	v0,48
  101ca4:	27b301cb 	addiu	s3,sp,459
  101ca8:	1000ffcb 	b	101bd8 <_vfprintf_r+0x10d8>
  101cac:	a3a201cb 	sb	v0,459(sp)
  101cb0:	0010802f 	dnegu	s0,s0
  101cb4:	1000fc5a 	b	100e20 <_vfprintf_r+0x320>
  101cb8:	a3a50000 	sb	a1,0(sp)
  101cbc:	10400007 	beqz	v0,101cdc <_vfprintf_r+0x11dc>
  101cc0:	8fa30214 	lw	v1,532(sp)
  101cc4:	8fa20214 	lw	v0,532(sp)
  101cc8:	8fa40214 	lw	a0,532(sp)
  101ccc:	84500000 	lh	s0,0(v0)
  101cd0:	24840008 	addiu	a0,a0,8
  101cd4:	1000fc50 	b	100e18 <_vfprintf_r+0x318>
  101cd8:	afa40214 	sw	a0,532(sp)
  101cdc:	8fa20214 	lw	v0,532(sp)
  101ce0:	24630008 	addiu	v1,v1,8
  101ce4:	afa30214 	sw	v1,532(sp)
  101ce8:	1000fc4b 	b	100e18 <_vfprintf_r+0x318>
  101cec:	8c500000 	lw	s0,0(v0)
  101cf0:	8fa30218 	lw	v1,536(sp)
  101cf4:	92a40000 	lbu	a0,0(s5)
  101cf8:	1000fc28 	b	100d9c <_vfprintf_r+0x29c>
  101cfc:	34630008 	ori	v1,v1,0x8
  101d00:	8fa40218 	lw	a0,536(sp)
  101d04:	34840010 	ori	a0,a0,0x10
  101d08:	afa40218 	sw	a0,536(sp)
  101d0c:	8fa30218 	lw	v1,536(sp)
  101d10:	30620020 	andi	v0,v1,0x20
  101d14:	14400006 	bnez	v0,101d30 <_vfprintf_r+0x1230>
  101d18:	8fa20214 	lw	v0,532(sp)
  101d1c:	8fa30218 	lw	v1,536(sp)
  101d20:	30620010 	andi	v0,v1,0x10
  101d24:	10400009 	beqz	v0,101d4c <_vfprintf_r+0x124c>
  101d28:	30620040 	andi	v0,v1,0x40
  101d2c:	8fa20214 	lw	v0,532(sp)
  101d30:	8fa40214 	lw	a0,532(sp)
  101d34:	dc500000 	ld	s0,0(v0)
  101d38:	24840008 	addiu	a0,a0,8
  101d3c:	afa40214 	sw	a0,532(sp)
  101d40:	0000182d 	move	v1,zero
  101d44:	1000fc37 	b	100e24 <_vfprintf_r+0x324>
  101d48:	a3a00000 	sb	zero,0(sp)
  101d4c:	50400007 	beqzl	v0,101d6c <_vfprintf_r+0x126c>
  101d50:	8fa30214 	lw	v1,532(sp)
  101d54:	8fa20214 	lw	v0,532(sp)
  101d58:	8fa40214 	lw	a0,532(sp)
  101d5c:	94500000 	lhu	s0,0(v0)
  101d60:	24840008 	addiu	a0,a0,8
  101d64:	1000fff6 	b	101d40 <_vfprintf_r+0x1240>
  101d68:	afa40214 	sw	a0,532(sp)
  101d6c:	8fa20214 	lw	v0,532(sp)
  101d70:	24630008 	addiu	v1,v1,8
  101d74:	afa30214 	sw	v1,532(sp)
  101d78:	1000fff1 	b	101d40 <_vfprintf_r+0x1240>
  101d7c:	9c500000 	lwu	s0,0(v0)
  101d80:	8fa40218 	lw	a0,536(sp)
  101d84:	34840010 	ori	a0,a0,0x10
  101d88:	afa40218 	sw	a0,536(sp)
  101d8c:	8fa30218 	lw	v1,536(sp)
  101d90:	30620020 	andi	v0,v1,0x20
  101d94:	14400006 	bnez	v0,101db0 <_vfprintf_r+0x12b0>
  101d98:	8fa20214 	lw	v0,532(sp)
  101d9c:	8fa30218 	lw	v1,536(sp)
  101da0:	30620010 	andi	v0,v1,0x10
  101da4:	10400008 	beqz	v0,101dc8 <_vfprintf_r+0x12c8>
  101da8:	30620040 	andi	v0,v1,0x40
  101dac:	8fa20214 	lw	v0,532(sp)
  101db0:	8fa40214 	lw	a0,532(sp)
  101db4:	dc500000 	ld	s0,0(v0)
  101db8:	24840008 	addiu	a0,a0,8
  101dbc:	afa40214 	sw	a0,532(sp)
  101dc0:	1000ffe0 	b	101d44 <_vfprintf_r+0x1244>
  101dc4:	24030001 	li	v1,1
  101dc8:	50400007 	beqzl	v0,101de8 <_vfprintf_r+0x12e8>
  101dcc:	8fa30214 	lw	v1,532(sp)
  101dd0:	8fa20214 	lw	v0,532(sp)
  101dd4:	8fa40214 	lw	a0,532(sp)
  101dd8:	94500000 	lhu	s0,0(v0)
  101ddc:	24840008 	addiu	a0,a0,8
  101de0:	1000fff7 	b	101dc0 <_vfprintf_r+0x12c0>
  101de4:	afa40214 	sw	a0,532(sp)
  101de8:	8fa20214 	lw	v0,532(sp)
  101dec:	24630008 	addiu	v1,v1,8
  101df0:	afa30214 	sw	v1,532(sp)
  101df4:	1000fff2 	b	101dc0 <_vfprintf_r+0x12c0>
  101df8:	9c500000 	lwu	s0,0(v0)
  101dfc:	3c020011 	lui	v0,0x11
  101e00:	2442f5b0 	addiu	v0,v0,-2640
  101e04:	8fa40218 	lw	a0,536(sp)
  101e08:	afa20238 	sw	v0,568(sp)
  101e0c:	30820020 	andi	v0,a0,0x20
  101e10:	14400006 	bnez	v0,101e2c <_vfprintf_r+0x132c>
  101e14:	8fa20214 	lw	v0,532(sp)
  101e18:	8fa40218 	lw	a0,536(sp)
  101e1c:	30820010 	andi	v0,a0,0x10
  101e20:	1040000f 	beqz	v0,101e60 <_vfprintf_r+0x1360>
  101e24:	30820040 	andi	v0,a0,0x40
  101e28:	8fa20214 	lw	v0,532(sp)
  101e2c:	8fa30214 	lw	v1,532(sp)
  101e30:	dc500000 	ld	s0,0(v0)
  101e34:	24630008 	addiu	v1,v1,8
  101e38:	afa30214 	sw	v1,532(sp)
  101e3c:	8fa30218 	lw	v1,536(sp)
  101e40:	30620001 	andi	v0,v1,0x1
  101e44:	1040ffbf 	beqz	v0,101d44 <_vfprintf_r+0x1244>
  101e48:	24030002 	li	v1,2
  101e4c:	8fa40218 	lw	a0,536(sp)
  101e50:	34820002 	ori	v0,a0,0x2
  101e54:	0050200b 	movn	a0,v0,s0
  101e58:	1000ffba 	b	101d44 <_vfprintf_r+0x1244>
  101e5c:	afa40218 	sw	a0,536(sp)
  101e60:	50400007 	beqzl	v0,101e80 <_vfprintf_r+0x1380>
  101e64:	8fa40214 	lw	a0,532(sp)
  101e68:	8fa20214 	lw	v0,532(sp)
  101e6c:	8fa30214 	lw	v1,532(sp)
  101e70:	94500000 	lhu	s0,0(v0)
  101e74:	24630008 	addiu	v1,v1,8
  101e78:	1000fff0 	b	101e3c <_vfprintf_r+0x133c>
  101e7c:	afa30214 	sw	v1,532(sp)
  101e80:	8fa20214 	lw	v0,532(sp)
  101e84:	24840008 	addiu	a0,a0,8
  101e88:	afa40214 	sw	a0,532(sp)
  101e8c:	1000ffeb 	b	101e3c <_vfprintf_r+0x133c>
  101e90:	9c500000 	lwu	s0,0(v0)
  101e94:	24020043 	li	v0,67
  101e98:	12e20005 	beq	s7,v0,101eb0 <_vfprintf_r+0x13b0>
  101e9c:	27b30070 	addiu	s3,sp,112
  101ea0:	8fa40218 	lw	a0,536(sp)
  101ea4:	30820010 	andi	v0,a0,0x10
  101ea8:	10400019 	beqz	v0,101f10 <_vfprintf_r+0x1410>
  101eac:	8fa20214 	lw	v0,532(sp)
  101eb0:	27b001e0 	addiu	s0,sp,480
  101eb4:	0000282d 	move	a1,zero
  101eb8:	0200202d 	move	a0,s0
  101ebc:	0c04182d 	jal	1060b4 <memset>
  101ec0:	24060008 	li	a2,8
  101ec4:	0260282d 	move	a1,s3
  101ec8:	8fa20214 	lw	v0,532(sp)
  101ecc:	0200382d 	move	a3,s0
  101ed0:	8fa4020c 	lw	a0,524(sp)
  101ed4:	8c460000 	lw	a2,0(v0)
  101ed8:	24420008 	addiu	v0,v0,8
  101edc:	0c0409d8 	jal	102760 <_wcrtomb_r>
  101ee0:	afa20214 	sw	v0,532(sp)
  101ee4:	0040b02d 	move	s6,v0
  101ee8:	2402ffff 	li	v0,-1
  101eec:	12c20004 	beq	s6,v0,101f00 <_vfprintf_r+0x1400>
  101ef0:	8fa30210 	lw	v1,528(sp)
  101ef4:	1000fbe2 	b	100e80 <_vfprintf_r+0x380>
  101ef8:	a3a00000 	sb	zero,0(sp)
  101efc:	8fa30210 	lw	v1,528(sp)
  101f00:	9462000c 	lhu	v0,12(v1)
  101f04:	34420040 	ori	v0,v0,0x40
  101f08:	1000fc92 	b	101154 <_vfprintf_r+0x654>
  101f0c:	a462000c 	sh	v0,12(v1)
  101f10:	24160001 	li	s6,1
  101f14:	90430000 	lbu	v1,0(v0)
  101f18:	24440008 	addiu	a0,v0,8
  101f1c:	afa40214 	sw	a0,532(sp)
  101f20:	1000fff4 	b	101ef4 <_vfprintf_r+0x13f4>
  101f24:	a3a30070 	sb	v1,112(sp)
  101f28:	2402ffff 	li	v0,-1
  101f2c:	12820097 	beq	s4,v0,10218c <_vfprintf_r+0x168c>
  101f30:	24020067 	li	v0,103
  101f34:	12e20092 	beq	s7,v0,102180 <_vfprintf_r+0x1680>
  101f38:	24020047 	li	v0,71
  101f3c:	12e20091 	beq	s7,v0,102184 <_vfprintf_r+0x1684>
  101f40:	24020001 	li	v0,1
  101f44:	8fa40218 	lw	a0,536(sp)
  101f48:	30820008 	andi	v0,a0,0x8
  101f4c:	10400088 	beqz	v0,102170 <_vfprintf_r+0x1670>
  101f50:	8fa40214 	lw	a0,532(sp)
  101f54:	8fa30214 	lw	v1,532(sp)
  101f58:	8fa20214 	lw	v0,532(sp)
  101f5c:	24630008 	addiu	v1,v1,8
  101f60:	afa30214 	sw	v1,532(sp)
  101f64:	dc420000 	ld	v0,0(v0)
  101f68:	ffa20228 	sd	v0,552(sp)
  101f6c:	0c041dd0 	jal	107740 <isinf>
  101f70:	dfa40228 	ld	a0,552(sp)
  101f74:	10400012 	beqz	v0,101fc0 <_vfprintf_r+0x14c0>
  101f78:	00000000 	nop
  101f7c:	dfa40228 	ld	a0,552(sp)
  101f80:	0c043bea 	jal	10efa8 <dpcmp>
  101f84:	0000282d 	move	a1,zero
  101f88:	0440000b 	bltz	v0,101fb8 <_vfprintf_r+0x14b8>
  101f8c:	2405002d 	li	a1,45
  101f90:	26e2ffbb 	addiu	v0,s7,-69
  101f94:	2c420003 	sltiu	v0,v0,3
  101f98:	10400005 	beqz	v0,101fb0 <_vfprintf_r+0x14b0>
  101f9c:	3c020011 	lui	v0,0x11
  101fa0:	3c020011 	lui	v0,0x11
  101fa4:	2453f5d0 	addiu	s3,v0,-2608
  101fa8:	1000fbb5 	b	100e80 <_vfprintf_r+0x380>
  101fac:	24160003 	li	s6,3
  101fb0:	1000fffd 	b	101fa8 <_vfprintf_r+0x14a8>
  101fb4:	2453f5c8 	addiu	s3,v0,-2616
  101fb8:	1000fff5 	b	101f90 <_vfprintf_r+0x1490>
  101fbc:	a3a50000 	sb	a1,0(sp)
  101fc0:	dfa40228 	ld	a0,552(sp)
  101fc4:	0c041de2 	jal	107788 <isnan>
  101fc8:	00000000 	nop
  101fcc:	10400009 	beqz	v0,101ff4 <_vfprintf_r+0x14f4>
  101fd0:	26e2ffbb 	addiu	v0,s7,-69
  101fd4:	2c420003 	sltiu	v0,v0,3
  101fd8:	10400004 	beqz	v0,101fec <_vfprintf_r+0x14ec>
  101fdc:	3c020011 	lui	v0,0x11
  101fe0:	3c020011 	lui	v0,0x11
  101fe4:	1000fff0 	b	101fa8 <_vfprintf_r+0x14a8>
  101fe8:	2453f5e0 	addiu	s3,v0,-2592
  101fec:	1000ffee 	b	101fa8 <_vfprintf_r+0x14a8>
  101ff0:	2453f5d8 	addiu	s3,v0,-2600
  101ff4:	8fa20218 	lw	v0,536(sp)
  101ff8:	27a80001 	addiu	t0,sp,1
  101ffc:	8fa4020c 	lw	a0,524(sp)
  102000:	0280302d 	move	a2,s4
  102004:	34420100 	ori	v0,v0,0x100
  102008:	dfa50228 	ld	a1,552(sp)
  10200c:	afa20218 	sw	v0,536(sp)
  102010:	27a90200 	addiu	t1,sp,512
  102014:	02e0502d 	move	t2,s7
  102018:	27ab0204 	addiu	t3,sp,516
  10201c:	0c040934 	jal	1024d0 <cvt>
  102020:	8fa70218 	lw	a3,536(sp)
  102024:	0040982d 	move	s3,v0
  102028:	24020067 	li	v0,103
  10202c:	12e20042 	beq	s7,v0,102138 <_vfprintf_r+0x1638>
  102030:	24020047 	li	v0,71
  102034:	12e20040 	beq	s7,v0,102138 <_vfprintf_r+0x1638>
  102038:	8fa80200 	lw	t0,512(sp)
  10203c:	2ae20066 	slti	v0,s7,102
  102040:	14400029 	bnez	v0,1020e8 <_vfprintf_r+0x15e8>
  102044:	24020066 	li	v0,102
  102048:	12e20014 	beq	s7,v0,10209c <_vfprintf_r+0x159c>
  10204c:	8fa50204 	lw	a1,516(sp)
  102050:	0105102a 	slt	v0,t0,a1
  102054:	1440000b 	bnez	v0,102084 <_vfprintf_r+0x1584>
  102058:	8fa40218 	lw	a0,536(sp)
  10205c:	30820001 	andi	v0,a0,0x1
  102060:	10400002 	beqz	v0,10206c <_vfprintf_r+0x156c>
  102064:	0100b02d 	move	s6,t0
  102068:	25160001 	addiu	s6,t0,1
  10206c:	83a20001 	lb	v0,1(sp)
  102070:	1040fb84 	beqz	v0,100e84 <_vfprintf_r+0x384>
  102074:	8fa40234 	lw	a0,564(sp)
  102078:	2405002d 	li	a1,45
  10207c:	1000fb80 	b	100e80 <_vfprintf_r+0x380>
  102080:	a3a50000 	sb	a1,0(sp)
  102084:	19000003 	blez	t0,102094 <_vfprintf_r+0x1594>
  102088:	00a81023 	subu	v0,a1,t0
  10208c:	1000fff7 	b	10206c <_vfprintf_r+0x156c>
  102090:	24b60001 	addiu	s6,a1,1
  102094:	1000fff5 	b	10206c <_vfprintf_r+0x156c>
  102098:	24560002 	addiu	s6,v0,2
  10209c:	1900000a 	blez	t0,1020c8 <_vfprintf_r+0x15c8>
  1020a0:	00000000 	nop
  1020a4:	16800005 	bnez	s4,1020bc <_vfprintf_r+0x15bc>
  1020a8:	0100b02d 	move	s6,t0
  1020ac:	8fa40218 	lw	a0,536(sp)
  1020b0:	30820001 	andi	v0,a0,0x1
  1020b4:	1040ffee 	beqz	v0,102070 <_vfprintf_r+0x1570>
  1020b8:	83a20001 	lb	v0,1(sp)
  1020bc:	01141021 	addu	v0,t0,s4
  1020c0:	1000ffea 	b	10206c <_vfprintf_r+0x156c>
  1020c4:	24560001 	addiu	s6,v0,1
  1020c8:	1680ffe8 	bnez	s4,10206c <_vfprintf_r+0x156c>
  1020cc:	26960002 	addiu	s6,s4,2
  1020d0:	8fa30218 	lw	v1,536(sp)
  1020d4:	30620001 	andi	v0,v1,0x1
  1020d8:	1040ffe4 	beqz	v0,10206c <_vfprintf_r+0x156c>
  1020dc:	24160001 	li	s6,1
  1020e0:	1000ffe2 	b	10206c <_vfprintf_r+0x156c>
  1020e4:	26960002 	addiu	s6,s4,2
  1020e8:	2508ffff 	addiu	t0,t0,-1
  1020ec:	27a40010 	addiu	a0,sp,16
  1020f0:	0100282d 	move	a1,t0
  1020f4:	02e0302d 	move	a2,s7
  1020f8:	0c0409a4 	jal	102690 <exponent>
  1020fc:	afa80200 	sw	t0,512(sp)
  102100:	afa20230 	sw	v0,560(sp)
  102104:	8fa20204 	lw	v0,516(sp)
  102108:	8fa40230 	lw	a0,560(sp)
  10210c:	28430002 	slti	v1,v0,2
  102110:	14600003 	bnez	v1,102120 <_vfprintf_r+0x1620>
  102114:	0082b021 	addu	s6,a0,v0
  102118:	1000ffd4 	b	10206c <_vfprintf_r+0x156c>
  10211c:	26d60001 	addiu	s6,s6,1
  102120:	8fa30218 	lw	v1,536(sp)
  102124:	30620001 	andi	v0,v1,0x1
  102128:	1040ffd1 	beqz	v0,102070 <_vfprintf_r+0x1570>
  10212c:	83a20001 	lb	v0,1(sp)
  102130:	1000ffcf 	b	102070 <_vfprintf_r+0x1570>
  102134:	26d60001 	addiu	s6,s6,1
  102138:	8fa80200 	lw	t0,512(sp)
  10213c:	2902fffd 	slti	v0,t0,-3
  102140:	14400005 	bnez	v0,102158 <_vfprintf_r+0x1658>
  102144:	24020065 	li	v0,101
  102148:	0288102a 	slt	v0,s4,t0
  10214c:	5040ffbb 	beqzl	v0,10203c <_vfprintf_r+0x153c>
  102150:	24170067 	li	s7,103
  102154:	24020065 	li	v0,101
  102158:	3ae40067 	xori	a0,s7,0x67
  10215c:	24030045 	li	v1,69
  102160:	0040b82d 	move	s7,v0
  102164:	1000ffb5 	b	10203c <_vfprintf_r+0x153c>
  102168:	0064b80b 	movn	s7,v1,a0
  10216c:	00000000 	nop
  102170:	8fa20214 	lw	v0,532(sp)
  102174:	24840008 	addiu	a0,a0,8
  102178:	1000ff7a 	b	101f64 <_vfprintf_r+0x1464>
  10217c:	afa40214 	sw	a0,532(sp)
  102180:	24020001 	li	v0,1
  102184:	1000ff6f 	b	101f44 <_vfprintf_r+0x1444>
  102188:	0054a00a 	movz	s4,v0,s4
  10218c:	1000ff6d 	b	101f44 <_vfprintf_r+0x1444>
  102190:	24140006 	li	s4,6
  102194:	8fa20218 	lw	v0,536(sp)
  102198:	92a40000 	lbu	a0,0(s5)
  10219c:	1000faca 	b	100cc8 <_vfprintf_r+0x1c8>
  1021a0:	34420040 	ori	v0,v0,0x40
  1021a4:	82a30000 	lb	v1,0(s5)
  1021a8:	2402006c 	li	v0,108
  1021ac:	10620004 	beq	v1,v0,1021c0 <_vfprintf_r+0x16c0>
  1021b0:	92a40000 	lbu	a0,0(s5)
  1021b4:	8fa20218 	lw	v0,536(sp)
  1021b8:	1000fac3 	b	100cc8 <_vfprintf_r+0x1c8>
  1021bc:	34420010 	ori	v0,v0,0x10
  1021c0:	8fa30218 	lw	v1,536(sp)
  1021c4:	26b50001 	addiu	s5,s5,1
  1021c8:	34630020 	ori	v1,v1,0x20
  1021cc:	1000fab6 	b	100ca8 <_vfprintf_r+0x1a8>
  1021d0:	afa30218 	sw	v1,536(sp)
  1021d4:	00000000 	nop
  1021d8:	8fa30218 	lw	v1,536(sp)
  1021dc:	30620020 	andi	v0,v1,0x20
  1021e0:	1440001d 	bnez	v0,102258 <_vfprintf_r+0x1758>
  1021e4:	8fa40214 	lw	a0,532(sp)
  1021e8:	8fa40218 	lw	a0,536(sp)
  1021ec:	30820010 	andi	v0,a0,0x10
  1021f0:	14400011 	bnez	v0,102238 <_vfprintf_r+0x1738>
  1021f4:	30820040 	andi	v0,a0,0x40
  1021f8:	14400008 	bnez	v0,10221c <_vfprintf_r+0x171c>
  1021fc:	8fa30214 	lw	v1,532(sp)
  102200:	8fa40214 	lw	a0,532(sp)
  102204:	8c620000 	lw	v0,0(v1)
  102208:	8fa3021c 	lw	v1,540(sp)
  10220c:	24840008 	addiu	a0,a0,8
  102210:	afa40214 	sw	a0,532(sp)
  102214:	1000fa6d 	b	100bcc <_vfprintf_r+0xcc>
  102218:	ac430000 	sw	v1,0(v0)
  10221c:	8fa20214 	lw	v0,532(sp)
  102220:	24420008 	addiu	v0,v0,8
  102224:	afa20214 	sw	v0,532(sp)
  102228:	8c620000 	lw	v0,0(v1)
  10222c:	8fa3021c 	lw	v1,540(sp)
  102230:	1000fa66 	b	100bcc <_vfprintf_r+0xcc>
  102234:	a4430000 	sh	v1,0(v0)
  102238:	8fa20214 	lw	v0,532(sp)
  10223c:	8fa30214 	lw	v1,532(sp)
  102240:	24420008 	addiu	v0,v0,8
  102244:	afa20214 	sw	v0,532(sp)
  102248:	8c620000 	lw	v0,0(v1)
  10224c:	8fa3021c 	lw	v1,540(sp)
  102250:	1000fa5e 	b	100bcc <_vfprintf_r+0xcc>
  102254:	fc430000 	sd	v1,0(v0)
  102258:	8fa30214 	lw	v1,532(sp)
  10225c:	24840008 	addiu	a0,a0,8
  102260:	1000fff9 	b	102248 <_vfprintf_r+0x1748>
  102264:	afa40214 	sw	a0,532(sp)
  102268:	8fa20214 	lw	v0,532(sp)
  10226c:	3c030011 	lui	v1,0x11
  102270:	2463f5e8 	addiu	v1,v1,-2584
  102274:	24170078 	li	s7,120
  102278:	24440008 	addiu	a0,v0,8
  10227c:	8c500000 	lw	s0,0(v0)
  102280:	8fa20218 	lw	v0,536(sp)
  102284:	afa30238 	sw	v1,568(sp)
  102288:	24030002 	li	v1,2
  10228c:	34420002 	ori	v0,v0,0x2
  102290:	afa40214 	sw	a0,532(sp)
  102294:	1000feab 	b	101d44 <_vfprintf_r+0x1244>
  102298:	afa20218 	sw	v0,536(sp)
  10229c:	8fa30218 	lw	v1,536(sp)
  1022a0:	92a40000 	lbu	a0,0(s5)
  1022a4:	1000fabd 	b	100d9c <_vfprintf_r+0x29c>
  1022a8:	34630020 	ori	v1,v1,0x20
  1022ac:	8fa20214 	lw	v0,532(sp)
  1022b0:	a3a00000 	sb	zero,0(sp)
  1022b4:	8fa30214 	lw	v1,532(sp)
  1022b8:	8c530000 	lw	s3,0(v0)
  1022bc:	24630008 	addiu	v1,v1,8
  1022c0:	12600056 	beqz	s3,10241c <_vfprintf_r+0x191c>
  1022c4:	afa30214 	sw	v1,532(sp)
  1022c8:	24020053 	li	v0,83
  1022cc:	12e20004 	beq	s7,v0,1022e0 <_vfprintf_r+0x17e0>
  1022d0:	8fa40218 	lw	a0,536(sp)
  1022d4:	30820010 	andi	v0,a0,0x10
  1022d8:	10400043 	beqz	v0,1023e8 <_vfprintf_r+0x18e8>
  1022dc:	00000000 	nop
  1022e0:	0000282d 	move	a1,zero
  1022e4:	27a401f0 	addiu	a0,sp,496
  1022e8:	24060008 	li	a2,8
  1022ec:	afb30208 	sw	s3,520(sp)
  1022f0:	0000882d 	move	s1,zero
  1022f4:	0c04182d 	jal	1060b4 <memset>
  1022f8:	0000b02d 	move	s6,zero
  1022fc:	0680002e 	bltz	s4,1023b8 <_vfprintf_r+0x18b8>
  102300:	241effff 	li	s8,-1
  102304:	8fa30208 	lw	v1,520(sp)
  102308:	00111080 	sll	v0,s1,0x2
  10230c:	00431021 	addu	v0,v0,v1
  102310:	8c460000 	lw	a2,0(v0)
  102314:	10c0000c 	beqz	a2,102348 <_vfprintf_r+0x1848>
  102318:	8fa4020c 	lw	a0,524(sp)
  10231c:	27a50070 	addiu	a1,sp,112
  102320:	0c0409d8 	jal	102760 <_wcrtomb_r>
  102324:	27a701f0 	addiu	a3,sp,496
  102328:	105e001e 	beq	v0,s8,1023a4 <_vfprintf_r+0x18a4>
  10232c:	00561821 	addu	v1,v0,s6
  102330:	0283102a 	slt	v0,s4,v1
  102334:	14400004 	bnez	v0,102348 <_vfprintf_r+0x1848>
  102338:	00000000 	nop
  10233c:	0060b02d 	move	s6,v1
  102340:	1474fff0 	bne	v1,s4,102304 <_vfprintf_r+0x1804>
  102344:	26310001 	addiu	s1,s1,1
  102348:	12c0face 	beqz	s6,100e84 <_vfprintf_r+0x384>
  10234c:	8fa40234 	lw	a0,564(sp)
  102350:	8fa4020c 	lw	a0,524(sp)
  102354:	0c0415c6 	jal	105718 <_malloc_r>
  102358:	26c50001 	addiu	a1,s6,1
  10235c:	10400011 	beqz	v0,1023a4 <_vfprintf_r+0x18a4>
  102360:	afa2023c 	sw	v0,572(sp)
  102364:	24060008 	li	a2,8
  102368:	27a401f0 	addiu	a0,sp,496
  10236c:	0c04182d 	jal	1060b4 <memset>
  102370:	0000282d 	move	a1,zero
  102374:	02c0382d 	move	a3,s6
  102378:	8fa4020c 	lw	a0,524(sp)
  10237c:	27a801f0 	addiu	t0,sp,496
  102380:	8fa5023c 	lw	a1,572(sp)
  102384:	0c040a02 	jal	102808 <_wcsrtombs_r>
  102388:	27a60208 	addiu	a2,sp,520
  10238c:	1456fedb 	bne	v0,s6,101efc <_vfprintf_r+0x13fc>
  102390:	8fa3023c 	lw	v1,572(sp)
  102394:	8fb3023c 	lw	s3,572(sp)
  102398:	00761021 	addu	v0,v1,s6
  10239c:	1000fab8 	b	100e80 <_vfprintf_r+0x380>
  1023a0:	a0400000 	sb	zero,0(v0)
  1023a4:	8fa40210 	lw	a0,528(sp)
  1023a8:	9482000c 	lhu	v0,12(a0)
  1023ac:	34420040 	ori	v0,v0,0x40
  1023b0:	1000fb68 	b	101154 <_vfprintf_r+0x654>
  1023b4:	a482000c 	sh	v0,12(a0)
  1023b8:	8fa4020c 	lw	a0,524(sp)
  1023bc:	0000282d 	move	a1,zero
  1023c0:	27a60208 	addiu	a2,sp,520
  1023c4:	0000382d 	move	a3,zero
  1023c8:	0c040a02 	jal	102808 <_wcsrtombs_r>
  1023cc:	27a801f0 	addiu	t0,sp,496
  1023d0:	0040b02d 	move	s6,v0
  1023d4:	2402ffff 	li	v0,-1
  1023d8:	12c2fec9 	beq	s6,v0,101f00 <_vfprintf_r+0x1400>
  1023dc:	8fa30210 	lw	v1,528(sp)
  1023e0:	1000ffd9 	b	102348 <_vfprintf_r+0x1848>
  1023e4:	afb30208 	sw	s3,520(sp)
  1023e8:	0680faa2 	bltz	s4,100e74 <_vfprintf_r+0x374>
  1023ec:	0260202d 	move	a0,s3
  1023f0:	0000282d 	move	a1,zero
  1023f4:	0c041788 	jal	105e20 <memchr>
  1023f8:	0280302d 	move	a2,s4
  1023fc:	1040faa0 	beqz	v0,100e80 <_vfprintf_r+0x380>
  102400:	0280b02d 	move	s6,s4
  102404:	0053b023 	subu	s6,v0,s3
  102408:	0296102a 	slt	v0,s4,s6
  10240c:	1040fa9d 	beqz	v0,100e84 <_vfprintf_r+0x384>
  102410:	8fa40234 	lw	a0,564(sp)
  102414:	1000fa9b 	b	100e84 <_vfprintf_r+0x384>
  102418:	0280b02d 	move	s6,s4
  10241c:	3c020011 	lui	v0,0x11
  102420:	24160006 	li	s6,6
  102424:	1000fa96 	b	100e80 <_vfprintf_r+0x380>
  102428:	2453f600 	addiu	s3,v0,-2560
  10242c:	12e00005 	beqz	s7,102444 <_vfprintf_r+0x1944>
  102430:	27b30070 	addiu	s3,sp,112
  102434:	a3b70070 	sb	s7,112(sp)
  102438:	a3a00000 	sb	zero,0(sp)
  10243c:	1000fa90 	b	100e80 <_vfprintf_r+0x380>
  102440:	24160001 	li	s6,1
  102444:	8fa20028 	lw	v0,40(sp)
  102448:	14400003 	bnez	v0,102458 <_vfprintf_r+0x1958>
  10244c:	8fa40210 	lw	a0,528(sp)
  102450:	1000fb40 	b	101154 <_vfprintf_r+0x654>
  102454:	afa00024 	sw	zero,36(sp)
  102458:	0c040274 	jal	1009d0 <__sprint>
  10245c:	27a50020 	addiu	a1,sp,32
  102460:	1440fb3d 	bnez	v0,101158 <_vfprintf_r+0x658>
  102464:	8fa3023c 	lw	v1,572(sp)
  102468:	1000fb3a 	b	101154 <_vfprintf_r+0x654>
  10246c:	afa00024 	sw	zero,36(sp)
  102470:	3c020011 	lui	v0,0x11
  102474:	1000fe63 	b	101e04 <_vfprintf_r+0x1304>
  102478:	2442f5e8 	addiu	v0,v0,-2584
  10247c:	8fa40210 	lw	a0,528(sp)
  102480:	0c040274 	jal	1009d0 <__sprint>
  102484:	27a50020 	addiu	a1,sp,32
  102488:	1440fb32 	bnez	v0,101154 <_vfprintf_r+0x654>
  10248c:	27b20030 	addiu	s2,sp,48
  102490:	1000f9ea 	b	100c3c <_vfprintf_r+0x13c>
  102494:	8fa4021c 	lw	a0,540(sp)
  102498:	8462000e 	lh	v0,14(v1)
  10249c:	0440f9c5 	bltz	v0,100bb4 <_vfprintf_r+0xb4>
  1024a0:	0200302d 	move	a2,s0
  1024a4:	8fa4020c 	lw	a0,524(sp)
  1024a8:	8fa50210 	lw	a1,528(sp)
  1024ac:	0c040288 	jal	100a20 <__sbprintf>
  1024b0:	8fa70214 	lw	a3,532(sp)
  1024b4:	1000fb32 	b	101180 <_vfprintf_r+0x680>
  1024b8:	0040182d 	move	v1,v0
  1024bc:	0c0411ac 	jal	1046b0 <__sinit>
  1024c0:	8fa4020c 	lw	a0,524(sp)
  1024c4:	1000f9aa 	b	100b70 <_vfprintf_r+0x70>
  1024c8:	8fa40210 	lw	a0,528(sp)
  1024cc:	00000000 	nop

001024d0 <cvt>:
  1024d0:	27bdff50 	addiu	sp,sp,-176
  1024d4:	24020066 	li	v0,102
  1024d8:	ffbe0090 	sd	s8,144(sp)
  1024dc:	0160f02d 	move	s8,t3
  1024e0:	ffb70080 	sd	s7,128(sp)
  1024e4:	00e0b82d 	move	s7,a3
  1024e8:	ffb60070 	sd	s6,112(sp)
  1024ec:	0080b02d 	move	s6,a0
  1024f0:	ffb50060 	sd	s5,96(sp)
  1024f4:	0120a82d 	move	s5,t1
  1024f8:	ffb40050 	sd	s4,80(sp)
  1024fc:	00c0a02d 	move	s4,a2
  102500:	ffb30040 	sd	s3,64(sp)
  102504:	00a0982d 	move	s3,a1
  102508:	ffb20030 	sd	s2,48(sp)
  10250c:	24120003 	li	s2,3
  102510:	ffb10020 	sd	s1,32(sp)
  102514:	0140882d 	move	s1,t2
  102518:	ffb00010 	sd	s0,16(sp)
  10251c:	0100802d 	move	s0,t0
  102520:	11420007 	beq	t2,v0,102540 <cvt+0x70>
  102524:	ffbf00a0 	sd	ra,160(sp)
  102528:	24020065 	li	v0,101
  10252c:	11420055 	beq	t2,v0,102684 <cvt+0x1b4>
  102530:	24020045 	li	v0,69
  102534:	51420001 	beql	t2,v0,10253c <cvt+0x6c>
  102538:	26940001 	addiu	s4,s4,1
  10253c:	24120002 	li	s2,2
  102540:	0013103f 	dsra32	v0,s3,0x0
  102544:	04430007 	bgezl	v0,102564 <cvt+0x94>
  102548:	a2000000 	sb	zero,0(s0)
  10254c:	0260282d 	move	a1,s3
  102550:	0c043ab8 	jal	10eae0 <dpsub>
  102554:	0000202d 	move	a0,zero
  102558:	0040982d 	move	s3,v0
  10255c:	2402002d 	li	v0,45
  102560:	a2020000 	sb	v0,0(s0)
  102564:	0240302d 	move	a2,s2
  102568:	02c0202d 	move	a0,s6
  10256c:	0260282d 	move	a1,s3
  102570:	0280382d 	move	a3,s4
  102574:	02a0402d 	move	t0,s5
  102578:	03a0482d 	move	t1,sp
  10257c:	0c040c5a 	jal	103168 <_dtoa_r>
  102580:	27aa0004 	addiu	t2,sp,4
  102584:	0040902d 	move	s2,v0
  102588:	24020067 	li	v0,103
  10258c:	12220038 	beq	s1,v0,102670 <cvt+0x1a0>
  102590:	24020047 	li	v0,71
  102594:	12220037 	beq	s1,v0,102674 <cvt+0x1a4>
  102598:	32e20001 	andi	v0,s7,0x1
  10259c:	24020066 	li	v0,102
  1025a0:	12220023 	beq	s1,v0,102630 <cvt+0x160>
  1025a4:	02548021 	addu	s0,s2,s4
  1025a8:	0260202d 	move	a0,s3
  1025ac:	0c043bea 	jal	10efa8 <dpcmp>
  1025b0:	0000282d 	move	a1,zero
  1025b4:	8fa30004 	lw	v1,4(sp)
  1025b8:	38420000 	xori	v0,v0,0x0
  1025bc:	0202180a 	movz	v1,s0,v0
  1025c0:	0070102b 	sltu	v0,v1,s0
  1025c4:	afa30004 	sw	v1,4(sp)
  1025c8:	1040000a 	beqz	v0,1025f4 <cvt+0x124>
  1025cc:	0060202d 	move	a0,v1
  1025d0:	24050030 	li	a1,48
  1025d4:	00000000 	nop
  1025d8:	24830001 	addiu	v1,a0,1
  1025dc:	a0850000 	sb	a1,0(a0)
  1025e0:	0070102b 	sltu	v0,v1,s0
  1025e4:	afa30004 	sw	v1,4(sp)
  1025e8:	0060202d 	move	a0,v1
  1025ec:	1440fffa 	bnez	v0,1025d8 <cvt+0x108>
  1025f0:	00000000 	nop
  1025f4:	00721823 	subu	v1,v1,s2
  1025f8:	0240102d 	move	v0,s2
  1025fc:	afc30000 	sw	v1,0(s8)
  102600:	dfbf00a0 	ld	ra,160(sp)
  102604:	dfbe0090 	ld	s8,144(sp)
  102608:	dfb70080 	ld	s7,128(sp)
  10260c:	dfb60070 	ld	s6,112(sp)
  102610:	dfb50060 	ld	s5,96(sp)
  102614:	dfb40050 	ld	s4,80(sp)
  102618:	dfb30040 	ld	s3,64(sp)
  10261c:	dfb20030 	ld	s2,48(sp)
  102620:	dfb10020 	ld	s1,32(sp)
  102624:	dfb00010 	ld	s0,16(sp)
  102628:	03e00008 	jr	ra
  10262c:	27bd00b0 	addiu	sp,sp,176
  102630:	82430000 	lb	v1,0(s2)
  102634:	24020030 	li	v0,48
  102638:	10620004 	beq	v1,v0,10264c <cvt+0x17c>
  10263c:	00000000 	nop
  102640:	8ea20000 	lw	v0,0(s5)
  102644:	1000ffd8 	b	1025a8 <cvt+0xd8>
  102648:	02028021 	addu	s0,s0,v0
  10264c:	0260202d 	move	a0,s3
  102650:	0c043bea 	jal	10efa8 <dpcmp>
  102654:	0000282d 	move	a1,zero
  102658:	5040fffa 	beqzl	v0,102644 <cvt+0x174>
  10265c:	8ea20000 	lw	v0,0(s5)
  102660:	24020001 	li	v0,1
  102664:	00541023 	subu	v0,v0,s4
  102668:	1000fff5 	b	102640 <cvt+0x170>
  10266c:	aea20000 	sw	v0,0(s5)
  102670:	32e20001 	andi	v0,s7,0x1
  102674:	1440ffca 	bnez	v0,1025a0 <cvt+0xd0>
  102678:	24020066 	li	v0,102
  10267c:	1000ffdd 	b	1025f4 <cvt+0x124>
  102680:	8fa30004 	lw	v1,4(sp)
  102684:	1000ffad 	b	10253c <cvt+0x6c>
  102688:	26940001 	addiu	s4,s4,1
  10268c:	00000000 	nop

00102690 <exponent>:
  102690:	27bdffd0 	addiu	sp,sp,-48
  102694:	04a0002d 	bltz	a1,10274c <exponent+0xbc>
  102698:	a0860000 	sb	a2,0(a0)
  10269c:	24880002 	addiu	t0,a0,2
  1026a0:	2402002b 	li	v0,43
  1026a4:	a0820001 	sb	v0,1(a0)
  1026a8:	27a60028 	addiu	a2,sp,40
  1026ac:	28a2000a 	slti	v0,a1,10
  1026b0:	1440001f 	bnez	v0,102730 <exponent+0xa0>
  1026b4:	00c0502d 	move	t2,a2
  1026b8:	2407000a 	li	a3,10
  1026bc:	2409000a 	li	t1,10
  1026c0:	00a7001a 	div	zero,a1,a3
  1026c4:	24c6ffff 	addiu	a2,a2,-1
  1026c8:	50e00001 	beqzl	a3,1026d0 <exponent+0x40>
  1026cc:	000001cd 	break	0x7
  1026d0:	00001010 	mfhi	v0
  1026d4:	00001812 	mflo	v1
  1026d8:	24420030 	addiu	v0,v0,48
  1026dc:	2863000a 	slti	v1,v1,10
  1026e0:	a0c20000 	sb	v0,0(a2)
  1026e4:	00002812 	mflo	a1
  1026e8:	5060fff6 	beqzl	v1,1026c4 <exponent+0x34>
  1026ec:	00a7001a 	div	zero,a1,a3
  1026f0:	24c6ffff 	addiu	a2,a2,-1
  1026f4:	24a20030 	addiu	v0,a1,48
  1026f8:	00ca182b 	sltu	v1,a2,t2
  1026fc:	10600009 	beqz	v1,102724 <exponent+0x94>
  102700:	a0c20000 	sb	v0,0(a2)
  102704:	00000000 	nop
  102708:	90c20000 	lbu	v0,0(a2)
  10270c:	24c60001 	addiu	a2,a2,1
  102710:	00ca182b 	sltu	v1,a2,t2
  102714:	a1020000 	sb	v0,0(t0)
  102718:	25080001 	addiu	t0,t0,1
  10271c:	1460fffa 	bnez	v1,102708 <exponent+0x78>
  102720:	00000000 	nop
  102724:	01041023 	subu	v0,t0,a0
  102728:	03e00008 	jr	ra
  10272c:	27bd0030 	addiu	sp,sp,48
  102730:	24020030 	li	v0,48
  102734:	24a30030 	addiu	v1,a1,48
  102738:	a1020000 	sb	v0,0(t0)
  10273c:	25080001 	addiu	t0,t0,1
  102740:	a1030000 	sb	v1,0(t0)
  102744:	1000fff7 	b	102724 <exponent+0x94>
  102748:	25080001 	addiu	t0,t0,1
  10274c:	00052823 	negu	a1,a1
  102750:	24880002 	addiu	t0,a0,2
  102754:	1000ffd3 	b	1026a4 <exponent+0x14>
  102758:	2402002d 	li	v0,45
  10275c:	00000000 	nop

00102760 <_wcrtomb_r>:
  102760:	27bdffc0 	addiu	sp,sp,-64
  102764:	ffb10020 	sd	s1,32(sp)
  102768:	0080882d 	move	s1,a0
  10276c:	ffb00010 	sd	s0,16(sp)
  102770:	00e0802d 	move	s0,a3
  102774:	10a00012 	beqz	a1,1027c0 <_wcrtomb_r+0x60>
  102778:	ffbf0030 	sd	ra,48(sp)
  10277c:	0c040a6a 	jal	1029a8 <_wctomb_r>
  102780:	00000000 	nop
  102784:	0040182d 	move	v1,v0
  102788:	2402ffff 	li	v0,-1
  10278c:	10620008 	beq	v1,v0,1027b0 <_wcrtomb_r+0x50>
  102790:	2404ffff 	li	a0,-1
  102794:	0060202d 	move	a0,v1
  102798:	dfbf0030 	ld	ra,48(sp)
  10279c:	0080102d 	move	v0,a0
  1027a0:	dfb10020 	ld	s1,32(sp)
  1027a4:	dfb00010 	ld	s0,16(sp)
  1027a8:	03e00008 	jr	ra
  1027ac:	27bd0040 	addiu	sp,sp,64
  1027b0:	2402008a 	li	v0,138
  1027b4:	ae000000 	sw	zero,0(s0)
  1027b8:	1000fff7 	b	102798 <_wcrtomb_r+0x38>
  1027bc:	ae220000 	sw	v0,0(s1)
  1027c0:	03a0282d 	move	a1,sp
  1027c4:	1000ffed 	b	10277c <_wcrtomb_r+0x1c>
  1027c8:	0000302d 	move	a2,zero
  1027cc:	00000000 	nop

001027d0 <wcrtomb>:
  1027d0:	27bdfff0 	addiu	sp,sp,-16
  1027d4:	3c020011 	lui	v0,0x11
  1027d8:	ffbf0000 	sd	ra,0(sp)
  1027dc:	0080182d 	move	v1,a0
  1027e0:	00a0402d 	move	t0,a1
  1027e4:	00c0382d 	move	a3,a2
  1027e8:	8c440c80 	lw	a0,3200(v0)
  1027ec:	0060282d 	move	a1,v1
  1027f0:	0c0409d8 	jal	102760 <_wcrtomb_r>
  1027f4:	0100302d 	move	a2,t0
  1027f8:	dfbf0000 	ld	ra,0(sp)
  1027fc:	03e00008 	jr	ra
  102800:	27bd0010 	addiu	sp,sp,16
  102804:	00000000 	nop

00102808 <_wcsrtombs_r>:
  102808:	27bdff40 	addiu	sp,sp,-192
  10280c:	2402ffff 	li	v0,-1
  102810:	ffbe00a0 	sd	s8,160(sp)
  102814:	00c0f02d 	move	s8,a2
  102818:	ffb70090 	sd	s7,144(sp)
  10281c:	00a0b82d 	move	s7,a1
  102820:	ffb60080 	sd	s6,128(sp)
  102824:	0000b02d 	move	s6,zero
  102828:	ffb20040 	sd	s2,64(sp)
  10282c:	00a0902d 	move	s2,a1
  102830:	ffb10030 	sd	s1,48(sp)
  102834:	00e0882d 	move	s1,a3
  102838:	ffb00020 	sd	s0,32(sp)
  10283c:	0045880a 	movz	s1,v0,a1
  102840:	ffbf00b0 	sd	ra,176(sp)
  102844:	0100802d 	move	s0,t0
  102848:	ffb50070 	sd	s5,112(sp)
  10284c:	ffb40060 	sd	s4,96(sp)
  102850:	ffb30050 	sd	s3,80(sp)
  102854:	afa40010 	sw	a0,16(sp)
  102858:	12200028 	beqz	s1,1028fc <_wcsrtombs_r+0xf4>
  10285c:	8cd50000 	lw	s5,0(a2)
  102860:	8ea60000 	lw	a2,0(s5)
  102864:	03a0282d 	move	a1,sp
  102868:	8fa40010 	lw	a0,16(sp)
  10286c:	0200382d 	move	a3,s0
  102870:	8e130000 	lw	s3,0(s0)
  102874:	0c0409d8 	jal	102760 <_wcrtomb_r>
  102878:	8e140004 	lw	s4,4(s0)
  10287c:	0040282d 	move	a1,v0
  102880:	2402ffff 	li	v0,-1
  102884:	10a20033 	beq	a1,v0,102954 <_wcsrtombs_r+0x14c>
  102888:	02251023 	subu	v0,s1,a1
  10288c:	0056102b 	sltu	v0,v0,s6
  102890:	5440002d 	bnezl	v0,102948 <_wcsrtombs_r+0x140>
  102894:	ae130000 	sw	s3,0(s0)
  102898:	00b1102b 	sltu	v0,a1,s1
  10289c:	5040002a 	beqzl	v0,102948 <_wcsrtombs_r+0x140>
  1028a0:	ae130000 	sw	s3,0(s0)
  1028a4:	12e0000f 	beqz	s7,1028e4 <_wcsrtombs_r+0xdc>
  1028a8:	02c5b021 	addu	s6,s6,a1
  1028ac:	18a0000a 	blez	a1,1028d8 <_wcsrtombs_r+0xd0>
  1028b0:	0000302d 	move	a2,zero
  1028b4:	00000000 	nop
  1028b8:	03a61021 	addu	v0,sp,a2
  1028bc:	24c60001 	addiu	a2,a2,1
  1028c0:	90430000 	lbu	v1,0(v0)
  1028c4:	00c5202a 	slt	a0,a2,a1
  1028c8:	a2430000 	sb	v1,0(s2)
  1028cc:	26520001 	addiu	s2,s2,1
  1028d0:	1480fff9 	bnez	a0,1028b8 <_wcsrtombs_r+0xb0>
  1028d4:	00000000 	nop
  1028d8:	8fc20000 	lw	v0,0(s8)
  1028dc:	24420004 	addiu	v0,v0,4
  1028e0:	afc20000 	sw	v0,0(s8)
  1028e4:	8ea20000 	lw	v0,0(s5)
  1028e8:	10400012 	beqz	v0,102934 <_wcsrtombs_r+0x12c>
  1028ec:	26b50004 	addiu	s5,s5,4
  1028f0:	02d1102b 	sltu	v0,s6,s1
  1028f4:	5440ffdb 	bnezl	v0,102864 <_wcsrtombs_r+0x5c>
  1028f8:	8ea60000 	lw	a2,0(s5)
  1028fc:	02c0182d 	move	v1,s6
  102900:	dfbf00b0 	ld	ra,176(sp)
  102904:	0060102d 	move	v0,v1
  102908:	dfbe00a0 	ld	s8,160(sp)
  10290c:	dfb70090 	ld	s7,144(sp)
  102910:	dfb60080 	ld	s6,128(sp)
  102914:	dfb50070 	ld	s5,112(sp)
  102918:	dfb40060 	ld	s4,96(sp)
  10291c:	dfb30050 	ld	s3,80(sp)
  102920:	dfb20040 	ld	s2,64(sp)
  102924:	dfb10030 	ld	s1,48(sp)
  102928:	dfb00020 	ld	s0,32(sp)
  10292c:	03e00008 	jr	ra
  102930:	27bd00c0 	addiu	sp,sp,192
  102934:	56e00001 	bnezl	s7,10293c <_wcsrtombs_r+0x134>
  102938:	afc00000 	sw	zero,0(s8)
  10293c:	26c3ffff 	addiu	v1,s6,-1
  102940:	1000ffef 	b	102900 <_wcsrtombs_r+0xf8>
  102944:	ae000000 	sw	zero,0(s0)
  102948:	0000882d 	move	s1,zero
  10294c:	1000ffe8 	b	1028f0 <_wcsrtombs_r+0xe8>
  102950:	ae140004 	sw	s4,4(s0)
  102954:	8fa40010 	lw	a0,16(sp)
  102958:	2402008a 	li	v0,138
  10295c:	2403ffff 	li	v1,-1
  102960:	1000fff7 	b	102940 <_wcsrtombs_r+0x138>
  102964:	ac820000 	sw	v0,0(a0)

00102968 <wcsrtombs>:
  102968:	27bdfff0 	addiu	sp,sp,-16
  10296c:	3c020011 	lui	v0,0x11
  102970:	ffbf0000 	sd	ra,0(sp)
  102974:	0080182d 	move	v1,a0
  102978:	00a0482d 	move	t1,a1
  10297c:	00c0502d 	move	t2,a2
  102980:	8c440c80 	lw	a0,3200(v0)
  102984:	00e0402d 	move	t0,a3
  102988:	0060282d 	move	a1,v1
  10298c:	0120302d 	move	a2,t1
  102990:	0c040a02 	jal	102808 <_wcsrtombs_r>
  102994:	0140382d 	move	a3,t2
  102998:	dfbf0000 	ld	ra,0(sp)
  10299c:	03e00008 	jr	ra
  1029a0:	27bd0010 	addiu	sp,sp,16
  1029a4:	00000000 	nop

001029a8 <_wctomb_r>:
  1029a8:	27bdffb0 	addiu	sp,sp,-80
  1029ac:	3c020011 	lui	v0,0x11
  1029b0:	ffb00000 	sd	s0,0(sp)
  1029b4:	24500ca8 	addiu	s0,v0,3240
  1029b8:	0200202d 	move	a0,s0
  1029bc:	ffb30030 	sd	s3,48(sp)
  1029c0:	ffb20020 	sd	s2,32(sp)
  1029c4:	00e0982d 	move	s3,a3
  1029c8:	ffb10010 	sd	s1,16(sp)
  1029cc:	00a0902d 	move	s2,a1
  1029d0:	ffbf0040 	sd	ra,64(sp)
  1029d4:	0c041ebd 	jal	107af4 <strlen>
  1029d8:	00c0882d 	move	s1,a2
  1029dc:	2c420002 	sltiu	v0,v0,2
  1029e0:	1040000d 	beqz	v0,102a18 <_wctomb_r+0x70>
  1029e4:	3c050011 	lui	a1,0x11
  1029e8:	12400003 	beqz	s2,1029f8 <_wctomb_r+0x50>
  1029ec:	0000382d 	move	a3,zero
  1029f0:	a2510000 	sb	s1,0(s2)
  1029f4:	24070001 	li	a3,1
  1029f8:	dfbf0040 	ld	ra,64(sp)
  1029fc:	00e0102d 	move	v0,a3
  102a00:	dfb30030 	ld	s3,48(sp)
  102a04:	dfb20020 	ld	s2,32(sp)
  102a08:	dfb10010 	ld	s1,16(sp)
  102a0c:	dfb00000 	ld	s0,0(sp)
  102a10:	03e00008 	jr	ra
  102a14:	27bd0050 	addiu	sp,sp,80
  102a18:	0200202d 	move	a0,s0
  102a1c:	0c041e6c 	jal	1079b0 <strcmp>
  102a20:	24a5f770 	addiu	a1,a1,-2192
  102a24:	5440008c 	bnezl	v0,102c58 <_wctomb_r+0x2b0>
  102a28:	3c050011 	lui	a1,0x11
  102a2c:	1240fff2 	beqz	s2,1029f8 <_wctomb_r+0x50>
  102a30:	0000382d 	move	a3,zero
  102a34:	2a220080 	slti	v0,s1,128
  102a38:	10400004 	beqz	v0,102a4c <_wctomb_r+0xa4>
  102a3c:	2622ff80 	addiu	v0,s1,-128
  102a40:	24070001 	li	a3,1
  102a44:	1000ffec 	b	1029f8 <_wctomb_r+0x50>
  102a48:	a2510000 	sb	s1,0(s2)
  102a4c:	2c420780 	sltiu	v0,v0,1920
  102a50:	1040000c 	beqz	v0,102a84 <_wctomb_r+0xdc>
  102a54:	2623f800 	addiu	v1,s1,-2048
  102a58:	322407c0 	andi	a0,s1,0x7c0
  102a5c:	3225003f 	andi	a1,s1,0x3f
  102a60:	00042183 	sra	a0,a0,0x6
  102a64:	2402ffc0 	li	v0,-64
  102a68:	2403ff80 	li	v1,-128
  102a6c:	00822025 	or	a0,a0,v0
  102a70:	00a32825 	or	a1,a1,v1
  102a74:	24070002 	li	a3,2
  102a78:	a2450001 	sb	a1,1(s2)
  102a7c:	1000ffde 	b	1029f8 <_wctomb_r+0x50>
  102a80:	a2440000 	sb	a0,0(s2)
  102a84:	3402f7ff 	li	v0,0xf7ff
  102a88:	0043102b 	sltu	v0,v0,v1
  102a8c:	14400016 	bnez	v0,102ae8 <_wctomb_r+0x140>
  102a90:	3c03001e 	lui	v1,0x1e
  102a94:	3c02ffff 	lui	v0,0xffff
  102a98:	34422800 	ori	v0,v0,0x2800
  102a9c:	02221021 	addu	v0,s1,v0
  102aa0:	2c420800 	sltiu	v0,v0,2048
  102aa4:	1440ffd4 	bnez	v0,1029f8 <_wctomb_r+0x50>
  102aa8:	2407ffff 	li	a3,-1
  102aac:	3223f000 	andi	v1,s1,0xf000
  102ab0:	2402ffe0 	li	v0,-32
  102ab4:	00031b03 	sra	v1,v1,0xc
  102ab8:	32240fc0 	andi	a0,s1,0xfc0
  102abc:	00621825 	or	v1,v1,v0
  102ac0:	2405ff80 	li	a1,-128
  102ac4:	00042183 	sra	a0,a0,0x6
  102ac8:	3222003f 	andi	v0,s1,0x3f
  102acc:	a2430000 	sb	v1,0(s2)
  102ad0:	00451025 	or	v0,v0,a1
  102ad4:	00852025 	or	a0,a0,a1
  102ad8:	26520001 	addiu	s2,s2,1
  102adc:	24070003 	li	a3,3
  102ae0:	1000ffe6 	b	102a7c <_wctomb_r+0xd4>
  102ae4:	a2420001 	sb	v0,1(s2)
  102ae8:	3c02ffff 	lui	v0,0xffff
  102aec:	02221021 	addu	v0,s1,v0
  102af0:	3463ffff 	ori	v1,v1,0xffff
  102af4:	0062182b 	sltu	v1,v1,v0
  102af8:	14600016 	bnez	v1,102b54 <_wctomb_r+0x1ac>
  102afc:	3c0303df 	lui	v1,0x3df
  102b00:	00111c82 	srl	v1,s1,0x12
  102b04:	2402fff0 	li	v0,-16
  102b08:	30630007 	andi	v1,v1,0x7
  102b0c:	00112302 	srl	a0,s1,0xc
  102b10:	2406ff80 	li	a2,-128
  102b14:	00621825 	or	v1,v1,v0
  102b18:	3084003f 	andi	a0,a0,0x3f
  102b1c:	32250fc0 	andi	a1,s1,0xfc0
  102b20:	a2430000 	sb	v1,0(s2)
  102b24:	00862025 	or	a0,a0,a2
  102b28:	26520001 	addiu	s2,s2,1
  102b2c:	00052983 	sra	a1,a1,0x6
  102b30:	3222003f 	andi	v0,s1,0x3f
  102b34:	a2440000 	sb	a0,0(s2)
  102b38:	00461025 	or	v0,v0,a2
  102b3c:	00a62825 	or	a1,a1,a2
  102b40:	26520001 	addiu	s2,s2,1
  102b44:	24070004 	li	a3,4
  102b48:	a2420001 	sb	v0,1(s2)
  102b4c:	1000ffaa 	b	1029f8 <_wctomb_r+0x50>
  102b50:	a2450000 	sb	a1,0(s2)
  102b54:	3c02ffe0 	lui	v0,0xffe0
  102b58:	02221021 	addu	v0,s1,v0
  102b5c:	3463ffff 	ori	v1,v1,0xffff
  102b60:	0062182b 	sltu	v1,v1,v0
  102b64:	1460001b 	bnez	v1,102bd4 <_wctomb_r+0x22c>
  102b68:	3c0203ff 	lui	v0,0x3ff
  102b6c:	00111e02 	srl	v1,s1,0x18
  102b70:	2402fff8 	li	v0,-8
  102b74:	30630003 	andi	v1,v1,0x3
  102b78:	00112482 	srl	a0,s1,0x12
  102b7c:	2406ff80 	li	a2,-128
  102b80:	00621825 	or	v1,v1,v0
  102b84:	3084003f 	andi	a0,a0,0x3f
  102b88:	00112b02 	srl	a1,s1,0xc
  102b8c:	a2430000 	sb	v1,0(s2)
  102b90:	00862025 	or	a0,a0,a2
  102b94:	26520001 	addiu	s2,s2,1
  102b98:	30a5003f 	andi	a1,a1,0x3f
  102b9c:	32230fc0 	andi	v1,s1,0xfc0
  102ba0:	a2440000 	sb	a0,0(s2)
  102ba4:	00a62825 	or	a1,a1,a2
  102ba8:	00031983 	sra	v1,v1,0x6
  102bac:	26520001 	addiu	s2,s2,1
  102bb0:	3222003f 	andi	v0,s1,0x3f
  102bb4:	a2450000 	sb	a1,0(s2)
  102bb8:	00461025 	or	v0,v0,a2
  102bbc:	26520001 	addiu	s2,s2,1
  102bc0:	00661825 	or	v1,v1,a2
  102bc4:	24070005 	li	a3,5
  102bc8:	a2420001 	sb	v0,1(s2)
  102bcc:	1000ff8a 	b	1029f8 <_wctomb_r+0x50>
  102bd0:	a2430000 	sb	v1,0(s2)
  102bd4:	3442ffff 	ori	v0,v0,0xffff
  102bd8:	0051102a 	slt	v0,v0,s1
  102bdc:	5040ff86 	beqzl	v0,1029f8 <_wctomb_r+0x50>
  102be0:	2407ffff 	li	a3,-1
  102be4:	00111f82 	srl	v1,s1,0x1e
  102be8:	2402fffc 	li	v0,-4
  102bec:	30630001 	andi	v1,v1,0x1
  102bf0:	00112602 	srl	a0,s1,0x18
  102bf4:	2405ff80 	li	a1,-128
  102bf8:	00621825 	or	v1,v1,v0
  102bfc:	3084003f 	andi	a0,a0,0x3f
  102c00:	00111482 	srl	v0,s1,0x12
  102c04:	a2430000 	sb	v1,0(s2)
  102c08:	00852025 	or	a0,a0,a1
  102c0c:	26520001 	addiu	s2,s2,1
  102c10:	3042003f 	andi	v0,v0,0x3f
  102c14:	00111b02 	srl	v1,s1,0xc
  102c18:	a2440000 	sb	a0,0(s2)
  102c1c:	00451025 	or	v0,v0,a1
  102c20:	3063003f 	andi	v1,v1,0x3f
  102c24:	26520001 	addiu	s2,s2,1
  102c28:	32240fc0 	andi	a0,s1,0xfc0
  102c2c:	a2420000 	sb	v0,0(s2)
  102c30:	00651825 	or	v1,v1,a1
  102c34:	26520001 	addiu	s2,s2,1
  102c38:	00042183 	sra	a0,a0,0x6
  102c3c:	3222003f 	andi	v0,s1,0x3f
  102c40:	a2430000 	sb	v1,0(s2)
  102c44:	00451025 	or	v0,v0,a1
  102c48:	00852025 	or	a0,a0,a1
  102c4c:	26520001 	addiu	s2,s2,1
  102c50:	1000ffa3 	b	102ae0 <_wctomb_r+0x138>
  102c54:	24070006 	li	a3,6
  102c58:	0200202d 	move	a0,s0
  102c5c:	0c041e6c 	jal	1079b0 <strcmp>
  102c60:	24a5f778 	addiu	a1,a1,-2184
  102c64:	1440001c 	bnez	v0,102cd8 <_wctomb_r+0x330>
  102c68:	00111203 	sra	v0,s1,0x8
  102c6c:	322400ff 	andi	a0,s1,0xff
  102c70:	304300ff 	andi	v1,v0,0xff
  102c74:	1240ff60 	beqz	s2,1029f8 <_wctomb_r+0x50>
  102c78:	0000382d 	move	a3,zero
  102c7c:	1060ff5a 	beqz	v1,1029e8 <_wctomb_r+0x40>
  102c80:	2462007f 	addiu	v0,v1,127
  102c84:	304200ff 	andi	v0,v0,0xff
  102c88:	2c42001f 	sltiu	v0,v0,31
  102c8c:	14400007 	bnez	v0,102cac <_wctomb_r+0x304>
  102c90:	2482ffc0 	addiu	v0,a0,-64
  102c94:	24620020 	addiu	v0,v1,32
  102c98:	304200ff 	andi	v0,v0,0xff
  102c9c:	2c420010 	sltiu	v0,v0,16
  102ca0:	5040ff55 	beqzl	v0,1029f8 <_wctomb_r+0x50>
  102ca4:	2407ffff 	li	a3,-1
  102ca8:	2482ffc0 	addiu	v0,a0,-64
  102cac:	2c42003f 	sltiu	v0,v0,63
  102cb0:	54400007 	bnezl	v0,102cd0 <_wctomb_r+0x328>
  102cb4:	a2440001 	sb	a0,1(s2)
  102cb8:	2482ff80 	addiu	v0,a0,-128
  102cbc:	304200ff 	andi	v0,v0,0xff
  102cc0:	2c42007d 	sltiu	v0,v0,125
  102cc4:	5040ff4c 	beqzl	v0,1029f8 <_wctomb_r+0x50>
  102cc8:	2407ffff 	li	a3,-1
  102ccc:	a2440001 	sb	a0,1(s2)
  102cd0:	1000ffbe 	b	102bcc <_wctomb_r+0x224>
  102cd4:	24070002 	li	a3,2
  102cd8:	3c050011 	lui	a1,0x11
  102cdc:	0200202d 	move	a0,s0
  102ce0:	0c041e6c 	jal	1079b0 <strcmp>
  102ce4:	24a5f780 	addiu	a1,a1,-2176
  102ce8:	1440000f 	bnez	v0,102d28 <_wctomb_r+0x380>
  102cec:	00111203 	sra	v0,s1,0x8
  102cf0:	322400ff 	andi	a0,s1,0xff
  102cf4:	304300ff 	andi	v1,v0,0xff
  102cf8:	1240ff3f 	beqz	s2,1029f8 <_wctomb_r+0x50>
  102cfc:	0000382d 	move	a3,zero
  102d00:	1060ff39 	beqz	v1,1029e8 <_wctomb_r+0x40>
  102d04:	2462005f 	addiu	v0,v1,95
  102d08:	304200ff 	andi	v0,v0,0xff
  102d0c:	2c42005e 	sltiu	v0,v0,94
  102d10:	1040ff39 	beqz	v0,1029f8 <_wctomb_r+0x50>
  102d14:	2407ffff 	li	a3,-1
  102d18:	2482005f 	addiu	v0,a0,95
  102d1c:	304200ff 	andi	v0,v0,0xff
  102d20:	1000ffe8 	b	102cc4 <_wctomb_r+0x31c>
  102d24:	2c42005e 	sltiu	v0,v0,94
  102d28:	3c050011 	lui	a1,0x11
  102d2c:	0200202d 	move	a0,s0
  102d30:	0c041e6c 	jal	1079b0 <strcmp>
  102d34:	24a5f788 	addiu	a1,a1,-2168
  102d38:	1440ff2b 	bnez	v0,1029e8 <_wctomb_r+0x40>
  102d3c:	00111203 	sra	v0,s1,0x8
  102d40:	0000182d 	move	v1,zero
  102d44:	304800ff 	andi	t0,v0,0xff
  102d48:	322400ff 	andi	a0,s1,0xff
  102d4c:	1240ff2a 	beqz	s2,1029f8 <_wctomb_r+0x50>
  102d50:	24070001 	li	a3,1
  102d54:	5100001c 	beqzl	t0,102dc8 <_wctomb_r+0x420>
  102d58:	8e620000 	lw	v0,0(s3)
  102d5c:	2502ffdf 	addiu	v0,t0,-33
  102d60:	2c42005e 	sltiu	v0,v0,94
  102d64:	1040ff24 	beqz	v0,1029f8 <_wctomb_r+0x50>
  102d68:	2407ffff 	li	a3,-1
  102d6c:	2482ffdf 	addiu	v0,a0,-33
  102d70:	2c42005e 	sltiu	v0,v0,94
  102d74:	1040ff21 	beqz	v0,1029fc <_wctomb_r+0x54>
  102d78:	dfbf0040 	ld	ra,64(sp)
  102d7c:	8e620000 	lw	v0,0(s3)
  102d80:	5440000e 	bnezl	v0,102dbc <_wctomb_r+0x414>
  102d84:	24670002 	addiu	a3,v1,2
  102d88:	24020001 	li	v0,1
  102d8c:	2403001b 	li	v1,27
  102d90:	ae620000 	sw	v0,0(s3)
  102d94:	24020024 	li	v0,36
  102d98:	a2430000 	sb	v1,0(s2)
  102d9c:	24030003 	li	v1,3
  102da0:	26520001 	addiu	s2,s2,1
  102da4:	a2420000 	sb	v0,0(s2)
  102da8:	24020042 	li	v0,66
  102dac:	26520001 	addiu	s2,s2,1
  102db0:	a2420000 	sb	v0,0(s2)
  102db4:	26520001 	addiu	s2,s2,1
  102db8:	24670002 	addiu	a3,v1,2
  102dbc:	a2440001 	sb	a0,1(s2)
  102dc0:	1000ff0d 	b	1029f8 <_wctomb_r+0x50>
  102dc4:	a2480000 	sb	t0,0(s2)
  102dc8:	5040ff2c 	beqzl	v0,102a7c <_wctomb_r+0xd4>
  102dcc:	24670001 	addiu	a3,v1,1
  102dd0:	2402001b 	li	v0,27
  102dd4:	ae600000 	sw	zero,0(s3)
  102dd8:	a2420000 	sb	v0,0(s2)
  102ddc:	24030003 	li	v1,3
  102de0:	26520001 	addiu	s2,s2,1
  102de4:	24020028 	li	v0,40
  102de8:	a2420000 	sb	v0,0(s2)
  102dec:	24020042 	li	v0,66
  102df0:	26520001 	addiu	s2,s2,1
  102df4:	a2420000 	sb	v0,0(s2)
  102df8:	26520001 	addiu	s2,s2,1
  102dfc:	1000ff1f 	b	102a7c <_wctomb_r+0xd4>
  102e00:	24670001 	addiu	a3,v1,1
  102e04:	00000000 	nop

00102e08 <__swsetup>:
  102e08:	27bdffe0 	addiu	sp,sp,-32
  102e0c:	3c020011 	lui	v0,0x11
  102e10:	ffb00000 	sd	s0,0(sp)
  102e14:	0080802d 	move	s0,a0
  102e18:	ffbf0010 	sd	ra,16(sp)
  102e1c:	8c440c80 	lw	a0,3200(v0)
  102e20:	50800005 	beqzl	a0,102e38 <__swsetup+0x30>
  102e24:	9603000c 	lhu	v1,12(s0)
  102e28:	8c820038 	lw	v0,56(a0)
  102e2c:	10400038 	beqz	v0,102f10 <__swsetup+0x108>
  102e30:	00000000 	nop
  102e34:	9603000c 	lhu	v1,12(s0)
  102e38:	30620008 	andi	v0,v1,0x8
  102e3c:	5440001a 	bnezl	v0,102ea8 <__swsetup+0xa0>
  102e40:	8e040010 	lw	a0,16(s0)
  102e44:	30620010 	andi	v0,v1,0x10
  102e48:	10400022 	beqz	v0,102ed4 <__swsetup+0xcc>
  102e4c:	2404ffff 	li	a0,-1
  102e50:	30620004 	andi	v0,v1,0x4
  102e54:	50400012 	beqzl	v0,102ea0 <__swsetup+0x98>
  102e58:	8e040010 	lw	a0,16(s0)
  102e5c:	8e050030 	lw	a1,48(s0)
  102e60:	10a00009 	beqz	a1,102e88 <__swsetup+0x80>
  102e64:	2402ffdb 	li	v0,-37
  102e68:	26020040 	addiu	v0,s0,64
  102e6c:	10a20004 	beq	a1,v0,102e80 <__swsetup+0x78>
  102e70:	3c020011 	lui	v0,0x11
  102e74:	0c0411f6 	jal	1047d8 <_free_r>
  102e78:	8c440c80 	lw	a0,3200(v0)
  102e7c:	9603000c 	lhu	v1,12(s0)
  102e80:	ae000030 	sw	zero,48(s0)
  102e84:	2402ffdb 	li	v0,-37
  102e88:	8e040010 	lw	a0,16(s0)
  102e8c:	00621024 	and	v0,v1,v0
  102e90:	ae000004 	sw	zero,4(s0)
  102e94:	0040182d 	move	v1,v0
  102e98:	a602000c 	sh	v0,12(s0)
  102e9c:	ae040000 	sw	a0,0(s0)
  102ea0:	34620008 	ori	v0,v1,0x8
  102ea4:	a602000c 	sh	v0,12(s0)
  102ea8:	10800015 	beqz	a0,102f00 <__swsetup+0xf8>
  102eac:	00000000 	nop
  102eb0:	9603000c 	lhu	v1,12(s0)
  102eb4:	30620001 	andi	v0,v1,0x1
  102eb8:	1040000b 	beqz	v0,102ee8 <__swsetup+0xe0>
  102ebc:	30620002 	andi	v0,v1,0x2
  102ec0:	8e020014 	lw	v0,20(s0)
  102ec4:	ae000008 	sw	zero,8(s0)
  102ec8:	00021023 	negu	v0,v0
  102ecc:	ae020018 	sw	v0,24(s0)
  102ed0:	0000202d 	move	a0,zero
  102ed4:	dfbf0010 	ld	ra,16(sp)
  102ed8:	0080102d 	move	v0,a0
  102edc:	dfb00000 	ld	s0,0(sp)
  102ee0:	03e00008 	jr	ra
  102ee4:	27bd0020 	addiu	sp,sp,32
  102ee8:	14400002 	bnez	v0,102ef4 <__swsetup+0xec>
  102eec:	0000182d 	move	v1,zero
  102ef0:	8e030014 	lw	v1,20(s0)
  102ef4:	1000fff6 	b	102ed0 <__swsetup+0xc8>
  102ef8:	ae030008 	sw	v1,8(s0)
  102efc:	00000000 	nop
  102f00:	0c0414cc 	jal	105330 <__smakebuf>
  102f04:	0200202d 	move	a0,s0
  102f08:	1000ffea 	b	102eb4 <__swsetup+0xac>
  102f0c:	9603000c 	lhu	v1,12(s0)
  102f10:	0c0411ac 	jal	1046b0 <__sinit>
  102f14:	00000000 	nop
  102f18:	1000ffc7 	b	102e38 <__swsetup+0x30>
  102f1c:	9603000c 	lhu	v1,12(s0)

00102f20 <quorem>:
  102f20:	27bdff80 	addiu	sp,sp,-128
  102f24:	00a0702d 	move	t6,a1
  102f28:	ffb40040 	sd	s4,64(sp)
  102f2c:	0000182d 	move	v1,zero
  102f30:	ffbf0070 	sd	ra,112(sp)
  102f34:	ffb60060 	sd	s6,96(sp)
  102f38:	ffb50050 	sd	s5,80(sp)
  102f3c:	ffb30030 	sd	s3,48(sp)
  102f40:	ffb20020 	sd	s2,32(sp)
  102f44:	ffb10010 	sd	s1,16(sp)
  102f48:	ffb00000 	sd	s0,0(sp)
  102f4c:	8cb20010 	lw	s2,16(a1)
  102f50:	8c820010 	lw	v0,16(a0)
  102f54:	0052102a 	slt	v0,v0,s2
  102f58:	14400078 	bnez	v0,10313c <quorem+0x21c>
  102f5c:	0080a02d 	move	s4,a0
  102f60:	2652ffff 	addiu	s2,s2,-1
  102f64:	24aa0014 	addiu	t2,a1,20
  102f68:	00121080 	sll	v0,s2,0x2
  102f6c:	24930014 	addiu	s3,a0,20
  102f70:	01428821 	addu	s1,t2,v0
  102f74:	02626021 	addu	t4,s3,v0
  102f78:	8e230000 	lw	v1,0(s1)
  102f7c:	0140b02d 	move	s6,t2
  102f80:	8d8d0000 	lw	t5,0(t4)
  102f84:	0260482d 	move	t1,s3
  102f88:	24630001 	addiu	v1,v1,1
  102f8c:	01a3001b 	divu	zero,t5,v1
  102f90:	50600001 	beqzl	v1,102f98 <quorem+0x78>
  102f94:	000001cd 	break	0x7
  102f98:	00008012 	mflo	s0
  102f9c:	0000a812 	mflo	s5
  102fa0:	1200002f 	beqz	s0,103060 <quorem+0x140>
  102fa4:	01c0282d 	move	a1,t6
  102fa8:	0000582d 	move	t3,zero
  102fac:	0000402d 	move	t0,zero
  102fb0:	8d460000 	lw	a2,0(t2)
  102fb4:	254a0004 	addiu	t2,t2,4
  102fb8:	8d250000 	lw	a1,0(t1)
  102fbc:	022a382b 	sltu	a3,s1,t2
  102fc0:	30c3ffff 	andi	v1,a2,0xffff
  102fc4:	00063402 	srl	a2,a2,0x10
  102fc8:	00701018 	mult	v0,v1,s0
  102fcc:	00484021 	addu	t0,v0,t0
  102fd0:	30a2ffff 	andi	v0,a1,0xffff
  102fd4:	00081c02 	srl	v1,t0,0x10
  102fd8:	3104ffff 	andi	a0,t0,0xffff
  102fdc:	00d04018 	mult	t0,a2,s0
  102fe0:	00441023 	subu	v0,v0,a0
  102fe4:	00052c02 	srl	a1,a1,0x10
  102fe8:	01033021 	addu	a2,t0,v1
  102fec:	004b1821 	addu	v1,v0,t3
  102ff0:	30c2ffff 	andi	v0,a2,0xffff
  102ff4:	00035c03 	sra	t3,v1,0x10
  102ff8:	00a22823 	subu	a1,a1,v0
  102ffc:	a5230000 	sh	v1,0(t1)
  103000:	00ab2021 	addu	a0,a1,t3
  103004:	00064402 	srl	t0,a2,0x10
  103008:	a5240002 	sh	a0,2(t1)
  10300c:	00045c03 	sra	t3,a0,0x10
  103010:	10e0ffe7 	beqz	a3,102fb0 <quorem+0x90>
  103014:	25290004 	addiu	t1,t1,4
  103018:	55a00011 	bnezl	t5,103060 <quorem+0x140>
  10301c:	01c0282d 	move	a1,t6
  103020:	258cfffc 	addiu	t4,t4,-4
  103024:	026c102b 	sltu	v0,s3,t4
  103028:	5040000c 	beqzl	v0,10305c <quorem+0x13c>
  10302c:	ae920010 	sw	s2,16(s4)
  103030:	8d820000 	lw	v0,0(t4)
  103034:	54400009 	bnezl	v0,10305c <quorem+0x13c>
  103038:	ae920010 	sw	s2,16(s4)
  10303c:	258cfffc 	addiu	t4,t4,-4
  103040:	026c102b 	sltu	v0,s3,t4
  103044:	10400004 	beqz	v0,103058 <quorem+0x138>
  103048:	2652ffff 	addiu	s2,s2,-1
  10304c:	8d820000 	lw	v0,0(t4)
  103050:	1040fffb 	beqz	v0,103040 <quorem+0x120>
  103054:	258cfffc 	addiu	t4,t4,-4
  103058:	ae920010 	sw	s2,16(s4)
  10305c:	01c0282d 	move	a1,t6
  103060:	0c041aa8 	jal	106aa0 <__mcmp>
  103064:	0280202d 	move	a0,s4
  103068:	04400034 	bltz	v0,10313c <quorem+0x21c>
  10306c:	02a0182d 	move	v1,s5
  103070:	26150001 	addiu	s5,s0,1
  103074:	02c0502d 	move	t2,s6
  103078:	0000582d 	move	t3,zero
  10307c:	0000402d 	move	t0,zero
  103080:	0260482d 	move	t1,s3
  103084:	00000000 	nop
  103088:	8d460000 	lw	a2,0(t2)
  10308c:	254a0004 	addiu	t2,t2,4
  103090:	8d240000 	lw	a0,0(t1)
  103094:	022a382b 	sltu	a3,s1,t2
  103098:	30c2ffff 	andi	v0,a2,0xffff
  10309c:	00063402 	srl	a2,a2,0x10
  1030a0:	00484021 	addu	t0,v0,t0
  1030a4:	3083ffff 	andi	v1,a0,0xffff
  1030a8:	00081402 	srl	v0,t0,0x10
  1030ac:	3105ffff 	andi	a1,t0,0xffff
  1030b0:	00c23021 	addu	a2,a2,v0
  1030b4:	00651823 	subu	v1,v1,a1
  1030b8:	006b1821 	addu	v1,v1,t3
  1030bc:	00042402 	srl	a0,a0,0x10
  1030c0:	30c2ffff 	andi	v0,a2,0xffff
  1030c4:	00035c03 	sra	t3,v1,0x10
  1030c8:	00822023 	subu	a0,a0,v0
  1030cc:	a5230000 	sh	v1,0(t1)
  1030d0:	008b2021 	addu	a0,a0,t3
  1030d4:	00064402 	srl	t0,a2,0x10
  1030d8:	a5240002 	sh	a0,2(t1)
  1030dc:	00045c03 	sra	t3,a0,0x10
  1030e0:	10e0ffe9 	beqz	a3,103088 <quorem+0x168>
  1030e4:	25290004 	addiu	t1,t1,4
  1030e8:	00121080 	sll	v0,s2,0x2
  1030ec:	02626021 	addu	t4,s3,v0
  1030f0:	8d830000 	lw	v1,0(t4)
  1030f4:	54600011 	bnezl	v1,10313c <quorem+0x21c>
  1030f8:	02a0182d 	move	v1,s5
  1030fc:	258cfffc 	addiu	t4,t4,-4
  103100:	026c102b 	sltu	v0,s3,t4
  103104:	5040000c 	beqzl	v0,103138 <quorem+0x218>
  103108:	ae920010 	sw	s2,16(s4)
  10310c:	8d820000 	lw	v0,0(t4)
  103110:	54400009 	bnezl	v0,103138 <quorem+0x218>
  103114:	ae920010 	sw	s2,16(s4)
  103118:	258cfffc 	addiu	t4,t4,-4
  10311c:	026c102b 	sltu	v0,s3,t4
  103120:	10400004 	beqz	v0,103134 <quorem+0x214>
  103124:	2652ffff 	addiu	s2,s2,-1
  103128:	8d820000 	lw	v0,0(t4)
  10312c:	5040fffb 	beqzl	v0,10311c <quorem+0x1fc>
  103130:	258cfffc 	addiu	t4,t4,-4
  103134:	ae920010 	sw	s2,16(s4)
  103138:	02a0182d 	move	v1,s5
  10313c:	dfbf0070 	ld	ra,112(sp)
  103140:	0060102d 	move	v0,v1
  103144:	dfb60060 	ld	s6,96(sp)
  103148:	dfb50050 	ld	s5,80(sp)
  10314c:	dfb40040 	ld	s4,64(sp)
  103150:	dfb30030 	ld	s3,48(sp)
  103154:	dfb20020 	ld	s2,32(sp)
  103158:	dfb10010 	ld	s1,16(sp)
  10315c:	dfb00000 	ld	s0,0(sp)
  103160:	03e00008 	jr	ra
  103164:	27bd0080 	addiu	sp,sp,128

00103168 <_dtoa_r>:
  103168:	27bdff00 	addiu	sp,sp,-256
  10316c:	ffb500b0 	sd	s5,176(sp)
  103170:	0080a82d 	move	s5,a0
  103174:	ffb400a0 	sd	s4,160(sp)
  103178:	00a0a02d 	move	s4,a1
  10317c:	ffb00060 	sd	s0,96(sp)
  103180:	0120802d 	move	s0,t1
  103184:	ffbf00f0 	sd	ra,240(sp)
  103188:	ffbe00e0 	sd	s8,224(sp)
  10318c:	ffb700d0 	sd	s7,208(sp)
  103190:	ffb600c0 	sd	s6,192(sp)
  103194:	ffb30090 	sd	s3,144(sp)
  103198:	ffb20080 	sd	s2,128(sp)
  10319c:	ffb10070 	sd	s1,112(sp)
  1031a0:	afa60008 	sw	a2,8(sp)
  1031a4:	8c8b0040 	lw	t3,64(a0)
  1031a8:	afa7000c 	sw	a3,12(sp)
  1031ac:	afa80010 	sw	t0,16(sp)
  1031b0:	afaa0014 	sw	t2,20(sp)
  1031b4:	1560046e 	bnez	t3,104370 <_dtoa_r+0x1208>
  1031b8:	afa00048 	sw	zero,72(sp)
  1031bc:	0014103e 	dsrl32	v0,s4,0x0
  1031c0:	0002203c 	dsll32	a0,v0,0x0
  1031c4:	0004203f 	dsra32	a0,a0,0x0
  1031c8:	0483000c 	bgezl	a0,1031fc <_dtoa_r+0x94>
  1031cc:	ae000000 	sw	zero,0(s0)
  1031d0:	3c027fff 	lui	v0,0x7fff
  1031d4:	3c03ffff 	lui	v1,0xffff
  1031d8:	0003183e 	dsrl32	v1,v1,0x0
  1031dc:	3442ffff 	ori	v0,v0,0xffff
  1031e0:	0283a024 	and	s4,s4,v1
  1031e4:	00821024 	and	v0,a0,v0
  1031e8:	24030001 	li	v1,1
  1031ec:	0002103c 	dsll32	v0,v0,0x0
  1031f0:	ae030000 	sw	v1,0(s0)
  1031f4:	0282a025 	or	s4,s4,v0
  1031f8:	0014103e 	dsrl32	v0,s4,0x0
  1031fc:	0002803c 	dsll32	s0,v0,0x0
  103200:	0010803f 	dsra32	s0,s0,0x0
  103204:	3c037ff0 	lui	v1,0x7ff0
  103208:	02031024 	and	v0,s0,v1
  10320c:	10430442 	beq	v0,v1,104318 <_dtoa_r+0x11b0>
  103210:	8fa40010 	lw	a0,16(sp)
  103214:	0280202d 	move	a0,s4
  103218:	0c043bea 	jal	10efa8 <dpcmp>
  10321c:	0000282d 	move	a1,zero
  103220:	14400017 	bnez	v0,103280 <_dtoa_r+0x118>
  103224:	8fa30010 	lw	v1,16(sp)
  103228:	24020001 	li	v0,1
  10322c:	8fa40014 	lw	a0,20(sp)
  103230:	ac620000 	sw	v0,0(v1)
  103234:	3c030011 	lui	v1,0x11
  103238:	10800003 	beqz	a0,103248 <_dtoa_r+0xe0>
  10323c:	2476f790 	addiu	s6,v1,-2160
  103240:	26c20001 	addiu	v0,s6,1
  103244:	ac820000 	sw	v0,0(a0)
  103248:	02c0102d 	move	v0,s6
  10324c:	dfbf00f0 	ld	ra,240(sp)
  103250:	dfbe00e0 	ld	s8,224(sp)
  103254:	dfb700d0 	ld	s7,208(sp)
  103258:	dfb600c0 	ld	s6,192(sp)
  10325c:	dfb500b0 	ld	s5,176(sp)
  103260:	dfb400a0 	ld	s4,160(sp)
  103264:	dfb30090 	ld	s3,144(sp)
  103268:	dfb20080 	ld	s2,128(sp)
  10326c:	dfb10070 	ld	s1,112(sp)
  103270:	dfb00060 	ld	s0,96(sp)
  103274:	03e00008 	jr	ra
  103278:	27bd0100 	addiu	sp,sp,256
  10327c:	00000000 	nop
  103280:	02a0202d 	move	a0,s5
  103284:	0280282d 	move	a1,s4
  103288:	03a0302d 	move	a2,sp
  10328c:	0c041bbc 	jal	106ef0 <_d2b>
  103290:	27a70004 	addiu	a3,sp,4
  103294:	0040f02d 	move	s8,v0
  103298:	00101502 	srl	v0,s0,0x14
  10329c:	305307ff 	andi	s3,v0,0x7ff
  1032a0:	126003f5 	beqz	s3,104278 <_dtoa_r+0x1110>
  1032a4:	8fa20000 	lw	v0,0(sp)
  1032a8:	3c02000f 	lui	v0,0xf
  1032ac:	0014183f 	dsra32	v1,s4,0x0
  1032b0:	3442ffff 	ori	v0,v0,0xffff
  1032b4:	3c05ffff 	lui	a1,0xffff
  1032b8:	0005283e 	dsrl32	a1,a1,0x0
  1032bc:	00621824 	and	v1,v1,v0
  1032c0:	0285b824 	and	s7,s4,a1
  1032c4:	0003183c 	dsll32	v1,v1,0x0
  1032c8:	3c023ff0 	lui	v0,0x3ff0
  1032cc:	02e3b825 	or	s7,s7,v1
  1032d0:	8fb10004 	lw	s1,4(sp)
  1032d4:	0017203f 	dsra32	a0,s7,0x0
  1032d8:	2673fc01 	addiu	s3,s3,-1023
  1032dc:	00822025 	or	a0,a0,v0
  1032e0:	02e5b824 	and	s7,s7,a1
  1032e4:	0004203c 	dsll32	a0,a0,0x0
  1032e8:	afa00044 	sw	zero,68(sp)
  1032ec:	02e4b825 	or	s7,s7,a0
  1032f0:	3405ffe0 	li	a1,0xffe0
  1032f4:	00052bbc 	dsll32	a1,a1,0xe
  1032f8:	0c043ab8 	jal	10eae0 <dpsub>
  1032fc:	02e0202d 	move	a0,s7
  103300:	3c010011 	lui	at,0x11
  103304:	dc25f7b0 	ld	a1,-2128(at)
  103308:	0c043ad4 	jal	10eb50 <dpmul>
  10330c:	0040202d 	move	a0,v0
  103310:	3c010011 	lui	at,0x11
  103314:	dc25f7b8 	ld	a1,-2120(at)
  103318:	0c043aa0 	jal	10ea80 <dpadd>
  10331c:	0040202d 	move	a0,v0
  103320:	0040802d 	move	s0,v0
  103324:	0c043c00 	jal	10f000 <litodp>
  103328:	0260202d 	move	a0,s3
  10332c:	3c010011 	lui	at,0x11
  103330:	dc25f7c0 	ld	a1,-2112(at)
  103334:	0c043ad4 	jal	10eb50 <dpmul>
  103338:	0040202d 	move	a0,v0
  10333c:	0200202d 	move	a0,s0
  103340:	0c043aa0 	jal	10ea80 <dpadd>
  103344:	0040282d 	move	a1,v0
  103348:	0040902d 	move	s2,v0
  10334c:	0c043c2e 	jal	10f0b8 <dptoli>
  103350:	0040202d 	move	a0,v0
  103354:	0000282d 	move	a1,zero
  103358:	0240202d 	move	a0,s2
  10335c:	0c043bea 	jal	10efa8 <dpcmp>
  103360:	afa2002c 	sw	v0,44(sp)
  103364:	044003ba 	bltz	v0,104250 <_dtoa_r+0x10e8>
  103368:	00000000 	nop
  10336c:	8fa3002c 	lw	v1,44(sp)
  103370:	24040001 	li	a0,1
  103374:	2c620017 	sltiu	v0,v1,23
  103378:	1040000e 	beqz	v0,1033b4 <_dtoa_r+0x24c>
  10337c:	afa40034 	sw	a0,52(sp)
  103380:	3c020011 	lui	v0,0x11
  103384:	000318c0 	sll	v1,v1,0x3
  103388:	2442f848 	addiu	v0,v0,-1976
  10338c:	0280282d 	move	a1,s4
  103390:	00621821 	addu	v1,v1,v0
  103394:	dc640000 	ld	a0,0(v1)
  103398:	0c043bea 	jal	10efa8 <dpcmp>
  10339c:	afa00034 	sw	zero,52(sp)
  1033a0:	8fa4002c 	lw	a0,44(sp)
  1033a4:	0002102a 	slt	v0,zero,v0
  1033a8:	2483ffff 	addiu	v1,a0,-1
  1033ac:	0062200b 	movn	a0,v1,v0
  1033b0:	afa4002c 	sw	a0,44(sp)
  1033b4:	02331023 	subu	v0,s1,s3
  1033b8:	2451ffff 	addiu	s1,v0,-1
  1033bc:	062203a1 	bltzl	s1,104244 <_dtoa_r+0x10dc>
  1033c0:	00118823 	negu	s1,s1
  1033c4:	afb1003c 	sw	s1,60(sp)
  1033c8:	afa00018 	sw	zero,24(sp)
  1033cc:	8fa2002c 	lw	v0,44(sp)
  1033d0:	04400394 	bltz	v0,104224 <_dtoa_r+0x10bc>
  1033d4:	8fa3003c 	lw	v1,60(sp)
  1033d8:	afa0001c 	sw	zero,28(sp)
  1033dc:	00621821 	addu	v1,v1,v0
  1033e0:	afa20040 	sw	v0,64(sp)
  1033e4:	afa3003c 	sw	v1,60(sp)
  1033e8:	8fa40008 	lw	a0,8(sp)
  1033ec:	24100001 	li	s0,1
  1033f0:	2c83000a 	sltiu	v1,a0,10
  1033f4:	0003200a 	movz	a0,zero,v1
  1033f8:	28820006 	slti	v0,a0,6
  1033fc:	14400004 	bnez	v0,103410 <_dtoa_r+0x2a8>
  103400:	afa40008 	sw	a0,8(sp)
  103404:	2484fffc 	addiu	a0,a0,-4
  103408:	0000802d 	move	s0,zero
  10340c:	afa40008 	sw	a0,8(sp)
  103410:	8fa30008 	lw	v1,8(sp)
  103414:	24040001 	li	a0,1
  103418:	afa40038 	sw	a0,56(sp)
  10341c:	2c620006 	sltiu	v0,v1,6
  103420:	2403ffff 	li	v1,-1
  103424:	afa30028 	sw	v1,40(sp)
  103428:	1040000b 	beqz	v0,103458 <_dtoa_r+0x2f0>
  10342c:	afa30020 	sw	v1,32(sp)
  103430:	8fa40008 	lw	a0,8(sp)
  103434:	3c030011 	lui	v1,0x11
  103438:	2463f7c8 	addiu	v1,v1,-2104
  10343c:	00041080 	sll	v0,a0,0x2
  103440:	00431021 	addu	v0,v0,v1
  103444:	8c440000 	lw	a0,0(v0)
  103448:	00800008 	jr	a0
  10344c:	00000000 	nop
  103450:	24130012 	li	s3,18
  103454:	afa0000c 	sw	zero,12(sp)
  103458:	2e620018 	sltiu	v0,s3,24
  10345c:	aea00044 	sw	zero,68(s5)
  103460:	1440000a 	bnez	v0,10348c <_dtoa_r+0x324>
  103464:	24110004 	li	s1,4
  103468:	0000182d 	move	v1,zero
  10346c:	00000000 	nop
  103470:	00118840 	sll	s1,s1,0x1
  103474:	24630001 	addiu	v1,v1,1
  103478:	26220014 	addiu	v0,s1,20
  10347c:	0262102b 	sltu	v0,s3,v0
  103480:	1040fffb 	beqz	v0,103470 <_dtoa_r+0x308>
  103484:	00000000 	nop
  103488:	aea30044 	sw	v1,68(s5)
  10348c:	8ea50044 	lw	a1,68(s5)
  103490:	0c041862 	jal	106188 <_Balloc>
  103494:	02a0202d 	move	a0,s5
  103498:	8fa40020 	lw	a0,32(sp)
  10349c:	afa20054 	sw	v0,84(sp)
  1034a0:	2c82000f 	sltiu	v0,a0,15
  1034a4:	8fa30054 	lw	v1,84(sp)
  1034a8:	8fb60054 	lw	s6,84(sp)
  1034ac:	1040008c 	beqz	v0,1036e0 <_dtoa_r+0x578>
  1034b0:	aea30040 	sw	v1,64(s5)
  1034b4:	1200008b 	beqz	s0,1036e4 <_dtoa_r+0x57c>
  1034b8:	8fa30000 	lw	v1,0(sp)
  1034bc:	8fa4002c 	lw	a0,44(sp)
  1034c0:	0280b82d 	move	s7,s4
  1034c4:	8fa20020 	lw	v0,32(sp)
  1034c8:	24130002 	li	s3,2
  1034cc:	afa40030 	sw	a0,48(sp)
  1034d0:	18800322 	blez	a0,10415c <_dtoa_r+0xff4>
  1034d4:	afa20024 	sw	v0,36(sp)
  1034d8:	3082000f 	andi	v0,a0,0xf
  1034dc:	3c030011 	lui	v1,0x11
  1034e0:	000210c0 	sll	v0,v0,0x3
  1034e4:	00048903 	sra	s1,a0,0x4
  1034e8:	2463f848 	addiu	v1,v1,-1976
  1034ec:	32240010 	andi	a0,s1,0x10
  1034f0:	00431021 	addu	v0,v0,v1
  1034f4:	dc520000 	ld	s2,0(v0)
  1034f8:	10800007 	beqz	a0,103518 <_dtoa_r+0x3b0>
  1034fc:	3c020011 	lui	v0,0x11
  103500:	0280202d 	move	a0,s4
  103504:	dc45f930 	ld	a1,-1744(v0)
  103508:	3231000f 	andi	s1,s1,0xf
  10350c:	0c043b88 	jal	10ee20 <dpdiv>
  103510:	24130003 	li	s3,3
  103514:	0040a02d 	move	s4,v0
  103518:	1220000e 	beqz	s1,103554 <_dtoa_r+0x3ec>
  10351c:	3c020011 	lui	v0,0x11
  103520:	2450f910 	addiu	s0,v0,-1776
  103524:	00000000 	nop
  103528:	32220001 	andi	v0,s1,0x1
  10352c:	50400007 	beqzl	v0,10354c <_dtoa_r+0x3e4>
  103530:	00118843 	sra	s1,s1,0x1
  103534:	de050000 	ld	a1,0(s0)
  103538:	0240202d 	move	a0,s2
  10353c:	0c043ad4 	jal	10eb50 <dpmul>
  103540:	26730001 	addiu	s3,s3,1
  103544:	0040902d 	move	s2,v0
  103548:	00118843 	sra	s1,s1,0x1
  10354c:	1620fff6 	bnez	s1,103528 <_dtoa_r+0x3c0>
  103550:	26100008 	addiu	s0,s0,8
  103554:	0280202d 	move	a0,s4
  103558:	0c043b88 	jal	10ee20 <dpdiv>
  10355c:	0240282d 	move	a1,s2
  103560:	0040a02d 	move	s4,v0
  103564:	8fa40034 	lw	a0,52(sp)
  103568:	10800007 	beqz	a0,103588 <_dtoa_r+0x420>
  10356c:	00000000 	nop
  103570:	3405ffc0 	li	a1,0xffc0
  103574:	00052bbc 	dsll32	a1,a1,0xe
  103578:	0c043bea 	jal	10efa8 <dpcmp>
  10357c:	0280202d 	move	a0,s4
  103580:	044002e7 	bltz	v0,104120 <_dtoa_r+0xfb8>
  103584:	8fa20020 	lw	v0,32(sp)
  103588:	0c043c00 	jal	10f000 <litodp>
  10358c:	0260202d 	move	a0,s3
  103590:	0280282d 	move	a1,s4
  103594:	0c043ad4 	jal	10eb50 <dpmul>
  103598:	0040202d 	move	a0,v0
  10359c:	34058038 	li	a1,0x8038
  1035a0:	00052bfc 	dsll32	a1,a1,0xf
  1035a4:	0c043aa0 	jal	10ea80 <dpadd>
  1035a8:	0040202d 	move	a0,v0
  1035ac:	3c04fcc0 	lui	a0,0xfcc0
  1035b0:	0040902d 	move	s2,v0
  1035b4:	3c03ffff 	lui	v1,0xffff
  1035b8:	0003183e 	dsrl32	v1,v1,0x0
  1035bc:	0002103f 	dsra32	v0,v0,0x0
  1035c0:	02439024 	and	s2,s2,v1
  1035c4:	00441021 	addu	v0,v0,a0
  1035c8:	0002103c 	dsll32	v0,v0,0x0
  1035cc:	02429025 	or	s2,s2,v0
  1035d0:	8fa20020 	lw	v0,32(sp)
  1035d4:	14400262 	bnez	v0,103f60 <_dtoa_r+0xdf8>
  1035d8:	8fa30038 	lw	v1,56(sp)
  1035dc:	34058028 	li	a1,0x8028
  1035e0:	00052bfc 	dsll32	a1,a1,0xf
  1035e4:	0280202d 	move	a0,s4
  1035e8:	afa0004c 	sw	zero,76(sp)
  1035ec:	0c043ab8 	jal	10eae0 <dpsub>
  1035f0:	afa00050 	sw	zero,80(sp)
  1035f4:	0040202d 	move	a0,v0
  1035f8:	0240282d 	move	a1,s2
  1035fc:	0c043bea 	jal	10efa8 <dpcmp>
  103600:	0040802d 	move	s0,v0
  103604:	18400024 	blez	v0,103698 <_dtoa_r+0x530>
  103608:	8fa4002c 	lw	a0,44(sp)
  10360c:	24020031 	li	v0,49
  103610:	8fa30054 	lw	v1,84(sp)
  103614:	24840001 	addiu	a0,a0,1
  103618:	24760001 	addiu	s6,v1,1
  10361c:	afa4002c 	sw	a0,44(sp)
  103620:	a0620000 	sb	v0,0(v1)
  103624:	8fa50050 	lw	a1,80(sp)
  103628:	0c04188e 	jal	106238 <_Bfree>
  10362c:	02a0202d 	move	a0,s5
  103630:	8fa2004c 	lw	v0,76(sp)
  103634:	1040000b 	beqz	v0,103664 <_dtoa_r+0x4fc>
  103638:	8fa30048 	lw	v1,72(sp)
  10363c:	10600007 	beqz	v1,10365c <_dtoa_r+0x4f4>
  103640:	8fa5004c 	lw	a1,76(sp)
  103644:	10620005 	beq	v1,v0,10365c <_dtoa_r+0x4f4>
  103648:	00000000 	nop
  10364c:	8fa50048 	lw	a1,72(sp)
  103650:	0c04188e 	jal	106238 <_Bfree>
  103654:	02a0202d 	move	a0,s5
  103658:	8fa5004c 	lw	a1,76(sp)
  10365c:	0c04188e 	jal	106238 <_Bfree>
  103660:	02a0202d 	move	a0,s5
  103664:	02a0202d 	move	a0,s5
  103668:	0c04188e 	jal	106238 <_Bfree>
  10366c:	03c0282d 	move	a1,s8
  103670:	8fa4002c 	lw	a0,44(sp)
  103674:	a2c00000 	sb	zero,0(s6)
  103678:	24820001 	addiu	v0,a0,1
  10367c:	8fa30010 	lw	v1,16(sp)
  103680:	8fa40014 	lw	a0,20(sp)
  103684:	10800002 	beqz	a0,103690 <_dtoa_r+0x528>
  103688:	ac620000 	sw	v0,0(v1)
  10368c:	ac960000 	sw	s6,0(a0)
  103690:	1000feee 	b	10324c <_dtoa_r+0xe4>
  103694:	8fa20054 	lw	v0,84(sp)
  103698:	0240282d 	move	a1,s2
  10369c:	0c043ab8 	jal	10eae0 <dpsub>
  1036a0:	0000202d 	move	a0,zero
  1036a4:	0200282d 	move	a1,s0
  1036a8:	0c043bea 	jal	10efa8 <dpcmp>
  1036ac:	0040202d 	move	a0,v0
  1036b0:	18400006 	blez	v0,1036cc <_dtoa_r+0x564>
  1036b4:	8fa30030 	lw	v1,48(sp)
  1036b8:	8fa2000c 	lw	v0,12(sp)
  1036bc:	00021027 	nor	v0,zero,v0
  1036c0:	1000ffd8 	b	103624 <_dtoa_r+0x4bc>
  1036c4:	afa2002c 	sw	v0,44(sp)
  1036c8:	8fa30030 	lw	v1,48(sp)
  1036cc:	02e0a02d 	move	s4,s7
  1036d0:	8fa40024 	lw	a0,36(sp)
  1036d4:	afa3002c 	sw	v1,44(sp)
  1036d8:	afa40020 	sw	a0,32(sp)
  1036dc:	8fb60054 	lw	s6,84(sp)
  1036e0:	8fa30000 	lw	v1,0(sp)
  1036e4:	0460006a 	bltz	v1,103890 <_dtoa_r+0x728>
  1036e8:	8fa4002c 	lw	a0,44(sp)
  1036ec:	2882000f 	slti	v0,a0,15
  1036f0:	50400068 	beqzl	v0,103894 <_dtoa_r+0x72c>
  1036f4:	8fa40008 	lw	a0,8(sp)
  1036f8:	3c020011 	lui	v0,0x11
  1036fc:	000418c0 	sll	v1,a0,0x3
  103700:	2442f848 	addiu	v0,v0,-1976
  103704:	00621821 	addu	v1,v1,v0
  103708:	8fa2000c 	lw	v0,12(sp)
  10370c:	dc720000 	ld	s2,0(v1)
  103710:	0440004e 	bltz	v0,10384c <_dtoa_r+0x6e4>
  103714:	8fa30020 	lw	v1,32(sp)
  103718:	24130001 	li	s3,1
  10371c:	00000000 	nop
  103720:	0240282d 	move	a1,s2
  103724:	0c043b88 	jal	10ee20 <dpdiv>
  103728:	0280202d 	move	a0,s4
  10372c:	0c043c2e 	jal	10f0b8 <dptoli>
  103730:	0040202d 	move	a0,v0
  103734:	0040202d 	move	a0,v0
  103738:	0c043c00 	jal	10f000 <litodp>
  10373c:	0040802d 	move	s0,v0
  103740:	0240282d 	move	a1,s2
  103744:	0c043ad4 	jal	10eb50 <dpmul>
  103748:	0040202d 	move	a0,v0
  10374c:	0280202d 	move	a0,s4
  103750:	0c043ab8 	jal	10eae0 <dpsub>
  103754:	0040282d 	move	a1,v0
  103758:	0040202d 	move	a0,v0
  10375c:	26020030 	addiu	v0,s0,48
  103760:	a2c20000 	sb	v0,0(s6)
  103764:	8fa20020 	lw	v0,32(sp)
  103768:	1262000e 	beq	s3,v0,1037a4 <_dtoa_r+0x63c>
  10376c:	26d60001 	addiu	s6,s6,1
  103770:	0080282d 	move	a1,a0
  103774:	34048048 	li	a0,0x8048
  103778:	000423fc 	dsll32	a0,a0,0xf
  10377c:	0c043ad4 	jal	10eb50 <dpmul>
  103780:	26730001 	addiu	s3,s3,1
  103784:	0000282d 	move	a1,zero
  103788:	0040202d 	move	a0,v0
  10378c:	0c043bea 	jal	10efa8 <dpcmp>
  103790:	0040a02d 	move	s4,v0
  103794:	1440ffe2 	bnez	v0,103720 <_dtoa_r+0x5b8>
  103798:	02a0202d 	move	a0,s5
  10379c:	1000ffb2 	b	103668 <_dtoa_r+0x500>
  1037a0:	00000000 	nop
  1037a4:	0c043aa0 	jal	10ea80 <dpadd>
  1037a8:	0080282d 	move	a1,a0
  1037ac:	0240202d 	move	a0,s2
  1037b0:	0040282d 	move	a1,v0
  1037b4:	0c043bea 	jal	10efa8 <dpcmp>
  1037b8:	0040882d 	move	s1,v0
  1037bc:	0442000a 	bltzl	v0,1037e8 <_dtoa_r+0x680>
  1037c0:	26d6ffff 	addiu	s6,s6,-1
  1037c4:	0240202d 	move	a0,s2
  1037c8:	0c043bea 	jal	10efa8 <dpcmp>
  1037cc:	0220282d 	move	a1,s1
  1037d0:	1440ffa5 	bnez	v0,103668 <_dtoa_r+0x500>
  1037d4:	02a0202d 	move	a0,s5
  1037d8:	32020001 	andi	v0,s0,0x1
  1037dc:	1040ffa2 	beqz	v0,103668 <_dtoa_r+0x500>
  1037e0:	00000000 	nop
  1037e4:	26d6ffff 	addiu	s6,s6,-1
  1037e8:	24020039 	li	v0,57
  1037ec:	82c30000 	lb	v1,0(s6)
  1037f0:	10620005 	beq	v1,v0,103808 <_dtoa_r+0x6a0>
  1037f4:	92c40000 	lbu	a0,0(s6)
  1037f8:	24820001 	addiu	v0,a0,1
  1037fc:	a2c20000 	sb	v0,0(s6)
  103800:	1000ff98 	b	103664 <_dtoa_r+0x4fc>
  103804:	26d60001 	addiu	s6,s6,1
  103808:	24030039 	li	v1,57
  10380c:	8fa40054 	lw	a0,84(sp)
  103810:	12c40007 	beq	s6,a0,103830 <_dtoa_r+0x6c8>
  103814:	8fa2002c 	lw	v0,44(sp)
  103818:	26d6ffff 	addiu	s6,s6,-1
  10381c:	82c20000 	lb	v0,0(s6)
  103820:	1043fffa 	beq	v0,v1,10380c <_dtoa_r+0x6a4>
  103824:	92c40000 	lbu	a0,0(s6)
  103828:	1000fff4 	b	1037fc <_dtoa_r+0x694>
  10382c:	24820001 	addiu	v0,a0,1
  103830:	24040030 	li	a0,48
  103834:	8fa30054 	lw	v1,84(sp)
  103838:	24420001 	addiu	v0,v0,1
  10383c:	afa2002c 	sw	v0,44(sp)
  103840:	24020030 	li	v0,48
  103844:	1000ffec 	b	1037f8 <_dtoa_r+0x690>
  103848:	a0620000 	sb	v0,0(v1)
  10384c:	1c60ffb4 	bgtz	v1,103720 <_dtoa_r+0x5b8>
  103850:	24130001 	li	s3,1
  103854:	afa0004c 	sw	zero,76(sp)
  103858:	0460ff97 	bltz	v1,1036b8 <_dtoa_r+0x550>
  10385c:	afa00050 	sw	zero,80(sp)
  103860:	34058028 	li	a1,0x8028
  103864:	00052bfc 	dsll32	a1,a1,0xf
  103868:	0c043ad4 	jal	10eb50 <dpmul>
  10386c:	0240202d 	move	a0,s2
  103870:	0280282d 	move	a1,s4
  103874:	0c043bea 	jal	10efa8 <dpcmp>
  103878:	0040202d 	move	a0,v0
  10387c:	0441ff8f 	bgez	v0,1036bc <_dtoa_r+0x554>
  103880:	8fa2000c 	lw	v0,12(sp)
  103884:	1000ff61 	b	10360c <_dtoa_r+0x4a4>
  103888:	8fa4002c 	lw	a0,44(sp)
  10388c:	00000000 	nop
  103890:	8fa40008 	lw	a0,8(sp)
  103894:	8fa20038 	lw	v0,56(sp)
  103898:	28840002 	slti	a0,a0,2
  10389c:	8fb20018 	lw	s2,24(sp)
  1038a0:	8fb7001c 	lw	s7,28(sp)
  1038a4:	afa00048 	sw	zero,72(sp)
  1038a8:	afa0004c 	sw	zero,76(sp)
  1038ac:	1040001f 	beqz	v0,10392c <_dtoa_r+0x7c4>
  1038b0:	afa4005c 	sw	a0,92(sp)
  1038b4:	8fa40008 	lw	a0,8(sp)
  1038b8:	28840002 	slti	a0,a0,2
  1038bc:	148001a1 	bnez	a0,103f44 <_dtoa_r+0xddc>
  1038c0:	8fa4001c 	lw	a0,28(sp)
  1038c4:	8fa30020 	lw	v1,32(sp)
  1038c8:	2471ffff 	addiu	s1,v1,-1
  1038cc:	0091102a 	slt	v0,a0,s1
  1038d0:	10400009 	beqz	v0,1038f8 <_dtoa_r+0x790>
  1038d4:	0091b823 	subu	s7,a0,s1
  1038d8:	8fa2001c 	lw	v0,28(sp)
  1038dc:	0000b82d 	move	s7,zero
  1038e0:	8fa30040 	lw	v1,64(sp)
  1038e4:	02228823 	subu	s1,s1,v0
  1038e8:	00511021 	addu	v0,v0,s1
  1038ec:	00711821 	addu	v1,v1,s1
  1038f0:	afa2001c 	sw	v0,28(sp)
  1038f4:	afa30040 	sw	v1,64(sp)
  1038f8:	8fb30020 	lw	s3,32(sp)
  1038fc:	0660018e 	bltz	s3,103f38 <_dtoa_r+0xdd0>
  103900:	8fa40018 	lw	a0,24(sp)
  103904:	8fa2003c 	lw	v0,60(sp)
  103908:	02a0202d 	move	a0,s5
  10390c:	24050001 	li	a1,1
  103910:	00531021 	addu	v0,v0,s3
  103914:	0c04197a 	jal	1065e8 <_i2b>
  103918:	afa2003c 	sw	v0,60(sp)
  10391c:	8fa30018 	lw	v1,24(sp)
  103920:	afa2004c 	sw	v0,76(sp)
  103924:	00731821 	addu	v1,v1,s3
  103928:	afa30018 	sw	v1,24(sp)
  10392c:	1a40000b 	blez	s2,10395c <_dtoa_r+0x7f4>
  103930:	8fa4003c 	lw	a0,60(sp)
  103934:	18800009 	blez	a0,10395c <_dtoa_r+0x7f4>
  103938:	8fb3003c 	lw	s3,60(sp)
  10393c:	0253102a 	slt	v0,s2,s3
  103940:	0242980b 	movn	s3,s2,v0
  103944:	8fa20018 	lw	v0,24(sp)
  103948:	00932023 	subu	a0,a0,s3
  10394c:	02539023 	subu	s2,s2,s3
  103950:	00531023 	subu	v0,v0,s3
  103954:	afa4003c 	sw	a0,60(sp)
  103958:	afa20018 	sw	v0,24(sp)
  10395c:	8fa3001c 	lw	v1,28(sp)
  103960:	18600016 	blez	v1,1039bc <_dtoa_r+0x854>
  103964:	8fa40038 	lw	a0,56(sp)
  103968:	10800171 	beqz	a0,103f30 <_dtoa_r+0xdc8>
  10396c:	8fa6001c 	lw	a2,28(sp)
  103970:	1ae0000e 	blez	s7,1039ac <_dtoa_r+0x844>
  103974:	8fa5004c 	lw	a1,76(sp)
  103978:	02a0202d 	move	a0,s5
  10397c:	0c041a0c 	jal	106830 <_pow5mult>
  103980:	02e0302d 	move	a2,s7
  103984:	03c0302d 	move	a2,s8
  103988:	afa2004c 	sw	v0,76(sp)
  10398c:	02a0202d 	move	a0,s5
  103990:	0c041988 	jal	106620 <_multiply>
  103994:	8fa5004c 	lw	a1,76(sp)
  103998:	03c0282d 	move	a1,s8
  10399c:	0040802d 	move	s0,v0
  1039a0:	0c04188e 	jal	106238 <_Bfree>
  1039a4:	02a0202d 	move	a0,s5
  1039a8:	0200f02d 	move	s8,s0
  1039ac:	8fa2001c 	lw	v0,28(sp)
  1039b0:	00578823 	subu	s1,v0,s7
  1039b4:	16200159 	bnez	s1,103f1c <_dtoa_r+0xdb4>
  1039b8:	03c0282d 	move	a1,s8
  1039bc:	02a0202d 	move	a0,s5
  1039c0:	0c04197a 	jal	1065e8 <_i2b>
  1039c4:	24050001 	li	a1,1
  1039c8:	8fa30040 	lw	v1,64(sp)
  1039cc:	18600006 	blez	v1,1039e8 <_dtoa_r+0x880>
  1039d0:	afa20050 	sw	v0,80(sp)
  1039d4:	8fa50050 	lw	a1,80(sp)
  1039d8:	02a0202d 	move	a0,s5
  1039dc:	0c041a0c 	jal	106830 <_pow5mult>
  1039e0:	8fa60040 	lw	a2,64(sp)
  1039e4:	afa20050 	sw	v0,80(sp)
  1039e8:	8fa4005c 	lw	a0,92(sp)
  1039ec:	10800011 	beqz	a0,103a34 <_dtoa_r+0x8cc>
  1039f0:	0000802d 	move	s0,zero
  1039f4:	2402ffff 	li	v0,-1
  1039f8:	0002133a 	dsrl	v0,v0,0xc
  1039fc:	02821024 	and	v0,s4,v0
  103a00:	1440000d 	bnez	v0,103a38 <_dtoa_r+0x8d0>
  103a04:	8fa40040 	lw	a0,64(sp)
  103a08:	0014103f 	dsra32	v0,s4,0x0
  103a0c:	3c037ff0 	lui	v1,0x7ff0
  103a10:	00431024 	and	v0,v0,v1
  103a14:	10400008 	beqz	v0,103a38 <_dtoa_r+0x8d0>
  103a18:	8fa20018 	lw	v0,24(sp)
  103a1c:	24100001 	li	s0,1
  103a20:	8fa3003c 	lw	v1,60(sp)
  103a24:	24420001 	addiu	v0,v0,1
  103a28:	24630001 	addiu	v1,v1,1
  103a2c:	afa20018 	sw	v0,24(sp)
  103a30:	afa3003c 	sw	v1,60(sp)
  103a34:	8fa40040 	lw	a0,64(sp)
  103a38:	1480012f 	bnez	a0,103ef8 <_dtoa_r+0xd90>
  103a3c:	8fa3003c 	lw	v1,60(sp)
  103a40:	24620001 	addiu	v0,v1,1
  103a44:	3053001f 	andi	s3,v0,0x1f
  103a48:	12600004 	beqz	s3,103a5c <_dtoa_r+0x8f4>
  103a4c:	2a620005 	slti	v0,s3,5
  103a50:	24020020 	li	v0,32
  103a54:	00539823 	subu	s3,v0,s3
  103a58:	2a620005 	slti	v0,s3,5
  103a5c:	1440011c 	bnez	v0,103ed0 <_dtoa_r+0xd68>
  103a60:	2a620004 	slti	v0,s3,4
  103a64:	8fa4003c 	lw	a0,60(sp)
  103a68:	2673fffc 	addiu	s3,s3,-4
  103a6c:	8fa20018 	lw	v0,24(sp)
  103a70:	00932021 	addu	a0,a0,s3
  103a74:	00531021 	addu	v0,v0,s3
  103a78:	afa4003c 	sw	a0,60(sp)
  103a7c:	afa20018 	sw	v0,24(sp)
  103a80:	02539021 	addu	s2,s2,s3
  103a84:	8fa20018 	lw	v0,24(sp)
  103a88:	18400005 	blez	v0,103aa0 <_dtoa_r+0x938>
  103a8c:	8fa60018 	lw	a2,24(sp)
  103a90:	03c0282d 	move	a1,s8
  103a94:	0c041a54 	jal	106950 <_lshift>
  103a98:	02a0202d 	move	a0,s5
  103a9c:	0040f02d 	move	s8,v0
  103aa0:	8fa3003c 	lw	v1,60(sp)
  103aa4:	18600005 	blez	v1,103abc <_dtoa_r+0x954>
  103aa8:	8fa50050 	lw	a1,80(sp)
  103aac:	02a0202d 	move	a0,s5
  103ab0:	0c041a54 	jal	106950 <_lshift>
  103ab4:	8fa6003c 	lw	a2,60(sp)
  103ab8:	afa20050 	sw	v0,80(sp)
  103abc:	8fa40034 	lw	a0,52(sp)
  103ac0:	148000e9 	bnez	a0,103e68 <_dtoa_r+0xd00>
  103ac4:	8fa50050 	lw	a1,80(sp)
  103ac8:	8fa20020 	lw	v0,32(sp)
  103acc:	184000d3 	blez	v0,103e1c <_dtoa_r+0xcb4>
  103ad0:	8fa30008 	lw	v1,8(sp)
  103ad4:	8fa20038 	lw	v0,56(sp)
  103ad8:	104000bf 	beqz	v0,103dd8 <_dtoa_r+0xc70>
  103adc:	24130001 	li	s3,1
  103ae0:	1a400005 	blez	s2,103af8 <_dtoa_r+0x990>
  103ae4:	8fa5004c 	lw	a1,76(sp)
  103ae8:	0240302d 	move	a2,s2
  103aec:	0c041a54 	jal	106950 <_lshift>
  103af0:	02a0202d 	move	a0,s5
  103af4:	afa2004c 	sw	v0,76(sp)
  103af8:	8fa3004c 	lw	v1,76(sp)
  103afc:	160000a4 	bnez	s0,103d90 <_dtoa_r+0xc28>
  103b00:	afa30048 	sw	v1,72(sp)
  103b04:	0014103c 	dsll32	v0,s4,0x0
  103b08:	0002103f 	dsra32	v0,v0,0x0
  103b0c:	24130001 	li	s3,1
  103b10:	30570001 	andi	s7,v0,0x1
  103b14:	afb70058 	sw	s7,88(sp)
  103b18:	8fa50050 	lw	a1,80(sp)
  103b1c:	0c040bc8 	jal	102f20 <quorem>
  103b20:	03c0202d 	move	a0,s8
  103b24:	03c0202d 	move	a0,s8
  103b28:	8fa50048 	lw	a1,72(sp)
  103b2c:	0c041aa8 	jal	106aa0 <__mcmp>
  103b30:	24540030 	addiu	s4,v0,48
  103b34:	8fa6004c 	lw	a2,76(sp)
  103b38:	8fa50050 	lw	a1,80(sp)
  103b3c:	02a0202d 	move	a0,s5
  103b40:	0c041ac2 	jal	106b08 <__mdiff>
  103b44:	0040882d 	move	s1,v0
  103b48:	0040802d 	move	s0,v0
  103b4c:	8c42000c 	lw	v0,12(v0)
  103b50:	1040008b 	beqz	v0,103d80 <_dtoa_r+0xc18>
  103b54:	03c0202d 	move	a0,s8
  103b58:	24120001 	li	s2,1
  103b5c:	0200282d 	move	a1,s0
  103b60:	0c04188e 	jal	106238 <_Bfree>
  103b64:	02a0202d 	move	a0,s5
  103b68:	16400005 	bnez	s2,103b80 <_dtoa_r+0xa18>
  103b6c:	8fa30008 	lw	v1,8(sp)
  103b70:	14600003 	bnez	v1,103b80 <_dtoa_r+0xa18>
  103b74:	00000000 	nop
  103b78:	12e0007d 	beqz	s7,103d70 <_dtoa_r+0xc08>
  103b7c:	24020039 	li	v0,57
  103b80:	06200063 	bltz	s1,103d10 <_dtoa_r+0xba8>
  103b84:	00000000 	nop
  103b88:	16200005 	bnez	s1,103ba0 <_dtoa_r+0xa38>
  103b8c:	8fa40008 	lw	a0,8(sp)
  103b90:	14800003 	bnez	a0,103ba0 <_dtoa_r+0xa38>
  103b94:	8fa20058 	lw	v0,88(sp)
  103b98:	1040005d 	beqz	v0,103d10 <_dtoa_r+0xba8>
  103b9c:	00000000 	nop
  103ba0:	1e400055 	bgtz	s2,103cf8 <_dtoa_r+0xb90>
  103ba4:	24020039 	li	v0,57
  103ba8:	a2d40000 	sb	s4,0(s6)
  103bac:	8fa30020 	lw	v1,32(sp)
  103bb0:	12630020 	beq	s3,v1,103c34 <_dtoa_r+0xacc>
  103bb4:	26d60001 	addiu	s6,s6,1
  103bb8:	03c0282d 	move	a1,s8
  103bbc:	02a0202d 	move	a0,s5
  103bc0:	2406000a 	li	a2,10
  103bc4:	0c04189a 	jal	106268 <_multadd>
  103bc8:	0000382d 	move	a3,zero
  103bcc:	8fa40048 	lw	a0,72(sp)
  103bd0:	0040f02d 	move	s8,v0
  103bd4:	8fa2004c 	lw	v0,76(sp)
  103bd8:	1082000e 	beq	a0,v0,103c14 <_dtoa_r+0xaac>
  103bdc:	8fa50048 	lw	a1,72(sp)
  103be0:	2406000a 	li	a2,10
  103be4:	0000382d 	move	a3,zero
  103be8:	0c04189a 	jal	106268 <_multadd>
  103bec:	02a0202d 	move	a0,s5
  103bf0:	2406000a 	li	a2,10
  103bf4:	8fa5004c 	lw	a1,76(sp)
  103bf8:	02a0202d 	move	a0,s5
  103bfc:	0000382d 	move	a3,zero
  103c00:	0c04189a 	jal	106268 <_multadd>
  103c04:	afa20048 	sw	v0,72(sp)
  103c08:	afa2004c 	sw	v0,76(sp)
  103c0c:	1000ffc2 	b	103b18 <_dtoa_r+0x9b0>
  103c10:	26730001 	addiu	s3,s3,1
  103c14:	8fa5004c 	lw	a1,76(sp)
  103c18:	02a0202d 	move	a0,s5
  103c1c:	2406000a 	li	a2,10
  103c20:	0c04189a 	jal	106268 <_multadd>
  103c24:	0000382d 	move	a3,zero
  103c28:	afa2004c 	sw	v0,76(sp)
  103c2c:	1000fff7 	b	103c0c <_dtoa_r+0xaa4>
  103c30:	afa20048 	sw	v0,72(sp)
  103c34:	03c0282d 	move	a1,s8
  103c38:	02a0202d 	move	a0,s5
  103c3c:	0c041a54 	jal	106950 <_lshift>
  103c40:	24060001 	li	a2,1
  103c44:	8fa50050 	lw	a1,80(sp)
  103c48:	0040202d 	move	a0,v0
  103c4c:	0c041aa8 	jal	106aa0 <__mcmp>
  103c50:	0040f02d 	move	s8,v0
  103c54:	1840001c 	blez	v0,103cc8 <_dtoa_r+0xb60>
  103c58:	00000000 	nop
  103c5c:	26d6ffff 	addiu	s6,s6,-1
  103c60:	24020039 	li	v0,57
  103c64:	82c30000 	lb	v1,0(s6)
  103c68:	10620005 	beq	v1,v0,103c80 <_dtoa_r+0xb18>
  103c6c:	92c40000 	lbu	a0,0(s6)
  103c70:	24820001 	addiu	v0,a0,1
  103c74:	a2c20000 	sb	v0,0(s6)
  103c78:	1000fe6a 	b	103624 <_dtoa_r+0x4bc>
  103c7c:	26d60001 	addiu	s6,s6,1
  103c80:	24030039 	li	v1,57
  103c84:	00000000 	nop
  103c88:	8fa20054 	lw	v0,84(sp)
  103c8c:	52c20007 	beql	s6,v0,103cac <_dtoa_r+0xb44>
  103c90:	8fa3002c 	lw	v1,44(sp)
  103c94:	26d6ffff 	addiu	s6,s6,-1
  103c98:	82c20000 	lb	v0,0(s6)
  103c9c:	1043fffa 	beq	v0,v1,103c88 <_dtoa_r+0xb20>
  103ca0:	92c40000 	lbu	a0,0(s6)
  103ca4:	1000fff3 	b	103c74 <_dtoa_r+0xb0c>
  103ca8:	24820001 	addiu	v0,a0,1
  103cac:	24020031 	li	v0,49
  103cb0:	8fa40054 	lw	a0,84(sp)
  103cb4:	24630001 	addiu	v1,v1,1
  103cb8:	24960001 	addiu	s6,a0,1
  103cbc:	afa3002c 	sw	v1,44(sp)
  103cc0:	1000fe58 	b	103624 <_dtoa_r+0x4bc>
  103cc4:	a0820000 	sb	v0,0(a0)
  103cc8:	14400005 	bnez	v0,103ce0 <_dtoa_r+0xb78>
  103ccc:	24030030 	li	v1,48
  103cd0:	32820001 	andi	v0,s4,0x1
  103cd4:	5440ffe2 	bnezl	v0,103c60 <_dtoa_r+0xaf8>
  103cd8:	26d6ffff 	addiu	s6,s6,-1
  103cdc:	24030030 	li	v1,48
  103ce0:	26d6ffff 	addiu	s6,s6,-1
  103ce4:	82c20000 	lb	v0,0(s6)
  103ce8:	1043fffd 	beq	v0,v1,103ce0 <_dtoa_r+0xb78>
  103cec:	00000000 	nop
  103cf0:	1000fe4c 	b	103624 <_dtoa_r+0x4bc>
  103cf4:	26d60001 	addiu	s6,s6,1
  103cf8:	1682ffde 	bne	s4,v0,103c74 <_dtoa_r+0xb0c>
  103cfc:	26820001 	addiu	v0,s4,1
  103d00:	24020039 	li	v0,57
  103d04:	a2c20000 	sb	v0,0(s6)
  103d08:	1000ffd4 	b	103c5c <_dtoa_r+0xaf4>
  103d0c:	26d60001 	addiu	s6,s6,1
  103d10:	1a40000e 	blez	s2,103d4c <_dtoa_r+0xbe4>
  103d14:	03c0282d 	move	a1,s8
  103d18:	02a0202d 	move	a0,s5
  103d1c:	0c041a54 	jal	106950 <_lshift>
  103d20:	24060001 	li	a2,1
  103d24:	8fa50050 	lw	a1,80(sp)
  103d28:	0040202d 	move	a0,v0
  103d2c:	0c041aa8 	jal	106aa0 <__mcmp>
  103d30:	0040f02d 	move	s8,v0
  103d34:	18400007 	blez	v0,103d54 <_dtoa_r+0xbec>
  103d38:	00000000 	nop
  103d3c:	26940001 	addiu	s4,s4,1
  103d40:	2402003a 	li	v0,58
  103d44:	1282ffef 	beq	s4,v0,103d04 <_dtoa_r+0xb9c>
  103d48:	24020039 	li	v0,57
  103d4c:	1000ffca 	b	103c78 <_dtoa_r+0xb10>
  103d50:	a2d40000 	sb	s4,0(s6)
  103d54:	5440ffc8 	bnezl	v0,103c78 <_dtoa_r+0xb10>
  103d58:	a2d40000 	sb	s4,0(s6)
  103d5c:	32820001 	andi	v0,s4,0x1
  103d60:	5040ffc5 	beqzl	v0,103c78 <_dtoa_r+0xb10>
  103d64:	a2d40000 	sb	s4,0(s6)
  103d68:	1000fff5 	b	103d40 <_dtoa_r+0xbd8>
  103d6c:	26940001 	addiu	s4,s4,1
  103d70:	1282ffe3 	beq	s4,v0,103d00 <_dtoa_r+0xb98>
  103d74:	0251102a 	slt	v0,s2,s1
  103d78:	1000fff4 	b	103d4c <_dtoa_r+0xbe4>
  103d7c:	0282a021 	addu	s4,s4,v0
  103d80:	0c041aa8 	jal	106aa0 <__mcmp>
  103d84:	0200282d 	move	a1,s0
  103d88:	1000ff74 	b	103b5c <_dtoa_r+0x9f4>
  103d8c:	0040902d 	move	s2,v0
  103d90:	8c650004 	lw	a1,4(v1)
  103d94:	0c041862 	jal	106188 <_Balloc>
  103d98:	02a0202d 	move	a0,s5
  103d9c:	8fa40048 	lw	a0,72(sp)
  103da0:	afa2004c 	sw	v0,76(sp)
  103da4:	8c860010 	lw	a2,16(a0)
  103da8:	2444000c 	addiu	a0,v0,12
  103dac:	8fa20048 	lw	v0,72(sp)
  103db0:	00063080 	sll	a2,a2,0x2
  103db4:	2445000c 	addiu	a1,v0,12
  103db8:	0c0417c0 	jal	105f00 <memcpy>
  103dbc:	24c60008 	addiu	a2,a2,8
  103dc0:	24060001 	li	a2,1
  103dc4:	8fa5004c 	lw	a1,76(sp)
  103dc8:	0c041a54 	jal	106950 <_lshift>
  103dcc:	02a0202d 	move	a0,s5
  103dd0:	1000ff4c 	b	103b04 <_dtoa_r+0x99c>
  103dd4:	afa2004c 	sw	v0,76(sp)
  103dd8:	8fa50050 	lw	a1,80(sp)
  103ddc:	0c040bc8 	jal	102f20 <quorem>
  103de0:	03c0202d 	move	a0,s8
  103de4:	8fa40020 	lw	a0,32(sp)
  103de8:	24540030 	addiu	s4,v0,48
  103dec:	0264102a 	slt	v0,s3,a0
  103df0:	a2d40000 	sb	s4,0(s6)
  103df4:	1040ff8f 	beqz	v0,103c34 <_dtoa_r+0xacc>
  103df8:	26d60001 	addiu	s6,s6,1
  103dfc:	03c0282d 	move	a1,s8
  103e00:	02a0202d 	move	a0,s5
  103e04:	2406000a 	li	a2,10
  103e08:	0c04189a 	jal	106268 <_multadd>
  103e0c:	0000382d 	move	a3,zero
  103e10:	26730001 	addiu	s3,s3,1
  103e14:	1000fff0 	b	103dd8 <_dtoa_r+0xc70>
  103e18:	0040f02d 	move	s8,v0
  103e1c:	28620003 	slti	v0,v1,3
  103e20:	1440ff2d 	bnez	v0,103ad8 <_dtoa_r+0x970>
  103e24:	8fa20038 	lw	v0,56(sp)
  103e28:	8fa40020 	lw	a0,32(sp)
  103e2c:	0480fe22 	bltz	a0,1036b8 <_dtoa_r+0x550>
  103e30:	8fa50050 	lw	a1,80(sp)
  103e34:	02a0202d 	move	a0,s5
  103e38:	24060005 	li	a2,5
  103e3c:	0c04189a 	jal	106268 <_multadd>
  103e40:	0000382d 	move	a3,zero
  103e44:	03c0202d 	move	a0,s8
  103e48:	afa20050 	sw	v0,80(sp)
  103e4c:	0c041aa8 	jal	106aa0 <__mcmp>
  103e50:	8fa50050 	lw	a1,80(sp)
  103e54:	1c40fded 	bgtz	v0,10360c <_dtoa_r+0x4a4>
  103e58:	8fa4002c 	lw	a0,44(sp)
  103e5c:	1000fe17 	b	1036bc <_dtoa_r+0x554>
  103e60:	8fa2000c 	lw	v0,12(sp)
  103e64:	00000000 	nop
  103e68:	0c041aa8 	jal	106aa0 <__mcmp>
  103e6c:	03c0202d 	move	a0,s8
  103e70:	0441ff16 	bgez	v0,103acc <_dtoa_r+0x964>
  103e74:	8fa20020 	lw	v0,32(sp)
  103e78:	03c0282d 	move	a1,s8
  103e7c:	02a0202d 	move	a0,s5
  103e80:	2406000a 	li	a2,10
  103e84:	0c04189a 	jal	106268 <_multadd>
  103e88:	0000382d 	move	a3,zero
  103e8c:	8fa30038 	lw	v1,56(sp)
  103e90:	0040f02d 	move	s8,v0
  103e94:	8fa2002c 	lw	v0,44(sp)
  103e98:	2442ffff 	addiu	v0,v0,-1
  103e9c:	14600004 	bnez	v1,103eb0 <_dtoa_r+0xd48>
  103ea0:	afa2002c 	sw	v0,44(sp)
  103ea4:	8fa40028 	lw	a0,40(sp)
  103ea8:	1000ff07 	b	103ac8 <_dtoa_r+0x960>
  103eac:	afa40020 	sw	a0,32(sp)
  103eb0:	8fa5004c 	lw	a1,76(sp)
  103eb4:	02a0202d 	move	a0,s5
  103eb8:	2406000a 	li	a2,10
  103ebc:	0c04189a 	jal	106268 <_multadd>
  103ec0:	0000382d 	move	a3,zero
  103ec4:	1000fff7 	b	103ea4 <_dtoa_r+0xd3c>
  103ec8:	afa2004c 	sw	v0,76(sp)
  103ecc:	00000000 	nop
  103ed0:	1040feed 	beqz	v0,103a88 <_dtoa_r+0x920>
  103ed4:	8fa20018 	lw	v0,24(sp)
  103ed8:	8fa3003c 	lw	v1,60(sp)
  103edc:	2673001c 	addiu	s3,s3,28
  103ee0:	8fa40018 	lw	a0,24(sp)
  103ee4:	00731821 	addu	v1,v1,s3
  103ee8:	00932021 	addu	a0,a0,s3
  103eec:	afa3003c 	sw	v1,60(sp)
  103ef0:	1000fee3 	b	103a80 <_dtoa_r+0x918>
  103ef4:	afa40018 	sw	a0,24(sp)
  103ef8:	8fa30050 	lw	v1,80(sp)
  103efc:	8c620010 	lw	v0,16(v1)
  103f00:	00021080 	sll	v0,v0,0x2
  103f04:	00431021 	addu	v0,v0,v1
  103f08:	0c04192a 	jal	1064a8 <_hi0bits>
  103f0c:	8c440010 	lw	a0,16(v0)
  103f10:	8fa4003c 	lw	a0,60(sp)
  103f14:	1000fecb 	b	103a44 <_dtoa_r+0x8dc>
  103f18:	00821023 	subu	v0,a0,v0
  103f1c:	0220302d 	move	a2,s1
  103f20:	0c041a0c 	jal	106830 <_pow5mult>
  103f24:	02a0202d 	move	a0,s5
  103f28:	1000fea4 	b	1039bc <_dtoa_r+0x854>
  103f2c:	0040f02d 	move	s8,v0
  103f30:	1000fffb 	b	103f20 <_dtoa_r+0xdb8>
  103f34:	03c0282d 	move	a1,s8
  103f38:	00939023 	subu	s2,a0,s3
  103f3c:	1000fe71 	b	103904 <_dtoa_r+0x79c>
  103f40:	0000982d 	move	s3,zero
  103f44:	8fa20044 	lw	v0,68(sp)
  103f48:	1440fe6e 	bnez	v0,103904 <_dtoa_r+0x79c>
  103f4c:	24730433 	addiu	s3,v1,1075
  103f50:	8fa20004 	lw	v0,4(sp)
  103f54:	24030036 	li	v1,54
  103f58:	1000fe6a 	b	103904 <_dtoa_r+0x79c>
  103f5c:	00629823 	subu	s3,v1,v0
  103f60:	10600038 	beqz	v1,104044 <_dtoa_r+0xedc>
  103f64:	8fa40020 	lw	a0,32(sp)
  103f68:	3c020011 	lui	v0,0x11
  103f6c:	2442f848 	addiu	v0,v0,-1976
  103f70:	000418c0 	sll	v1,a0,0x3
  103f74:	3404ff80 	li	a0,0xff80
  103f78:	000423bc 	dsll32	a0,a0,0xe
  103f7c:	00621821 	addu	v1,v1,v0
  103f80:	dc65fff8 	ld	a1,-8(v1)
  103f84:	0c043b88 	jal	10ee20 <dpdiv>
  103f88:	0000982d 	move	s3,zero
  103f8c:	0240282d 	move	a1,s2
  103f90:	0c043ab8 	jal	10eae0 <dpsub>
  103f94:	0040202d 	move	a0,v0
  103f98:	0040902d 	move	s2,v0
  103f9c:	00000000 	nop
  103fa0:	0c043c2e 	jal	10f0b8 <dptoli>
  103fa4:	0280202d 	move	a0,s4
  103fa8:	0040202d 	move	a0,v0
  103fac:	0c043c00 	jal	10f000 <litodp>
  103fb0:	0040802d 	move	s0,v0
  103fb4:	0280202d 	move	a0,s4
  103fb8:	0c043ab8 	jal	10eae0 <dpsub>
  103fbc:	0040282d 	move	a1,v0
  103fc0:	0240282d 	move	a1,s2
  103fc4:	0040882d 	move	s1,v0
  103fc8:	26020030 	addiu	v0,s0,48
  103fcc:	a2c20000 	sb	v0,0(s6)
  103fd0:	0220202d 	move	a0,s1
  103fd4:	0c043bea 	jal	10efa8 <dpcmp>
  103fd8:	26d60001 	addiu	s6,s6,1
  103fdc:	0440fda2 	bltz	v0,103668 <_dtoa_r+0x500>
  103fe0:	02a0202d 	move	a0,s5
  103fe4:	3404ffc0 	li	a0,0xffc0
  103fe8:	000423bc 	dsll32	a0,a0,0xe
  103fec:	0c043ab8 	jal	10eae0 <dpsub>
  103ff0:	0220282d 	move	a1,s1
  103ff4:	0240282d 	move	a1,s2
  103ff8:	0c043bea 	jal	10efa8 <dpcmp>
  103ffc:	0040202d 	move	a0,v0
  104000:	0440fdf8 	bltz	v0,1037e4 <_dtoa_r+0x67c>
  104004:	8fa30020 	lw	v1,32(sp)
  104008:	26730001 	addiu	s3,s3,1
  10400c:	0263102a 	slt	v0,s3,v1
  104010:	1040fdae 	beqz	v0,1036cc <_dtoa_r+0x564>
  104014:	8fa30030 	lw	v1,48(sp)
  104018:	34048048 	li	a0,0x8048
  10401c:	000423fc 	dsll32	a0,a0,0xf
  104020:	0c043ad4 	jal	10eb50 <dpmul>
  104024:	0240282d 	move	a1,s2
  104028:	34048048 	li	a0,0x8048
  10402c:	000423fc 	dsll32	a0,a0,0xf
  104030:	0220282d 	move	a1,s1
  104034:	0c043ad4 	jal	10eb50 <dpmul>
  104038:	0040902d 	move	s2,v0
  10403c:	1000ffd8 	b	103fa0 <_dtoa_r+0xe38>
  104040:	0040a02d 	move	s4,v0
  104044:	3c020011 	lui	v0,0x11
  104048:	2442f848 	addiu	v0,v0,-1976
  10404c:	0240282d 	move	a1,s2
  104050:	000418c0 	sll	v1,a0,0x3
  104054:	00621821 	addu	v1,v1,v0
  104058:	dc64fff8 	ld	a0,-8(v1)
  10405c:	0c043ad4 	jal	10eb50 <dpmul>
  104060:	24130001 	li	s3,1
  104064:	0040902d 	move	s2,v0
  104068:	0c043c2e 	jal	10f0b8 <dptoli>
  10406c:	0280202d 	move	a0,s4
  104070:	0040202d 	move	a0,v0
  104074:	0c043c00 	jal	10f000 <litodp>
  104078:	0040802d 	move	s0,v0
  10407c:	0280202d 	move	a0,s4
  104080:	0c043ab8 	jal	10eae0 <dpsub>
  104084:	0040282d 	move	a1,v0
  104088:	0040882d 	move	s1,v0
  10408c:	26020030 	addiu	v0,s0,48
  104090:	a2c20000 	sb	v0,0(s6)
  104094:	8fa20020 	lw	v0,32(sp)
  104098:	12620009 	beq	s3,v0,1040c0 <_dtoa_r+0xf58>
  10409c:	26d60001 	addiu	s6,s6,1
  1040a0:	34048048 	li	a0,0x8048
  1040a4:	000423fc 	dsll32	a0,a0,0xf
  1040a8:	0220282d 	move	a1,s1
  1040ac:	0c043ad4 	jal	10eb50 <dpmul>
  1040b0:	26730001 	addiu	s3,s3,1
  1040b4:	0040a02d 	move	s4,v0
  1040b8:	1000ffeb 	b	104068 <_dtoa_r+0xf00>
  1040bc:	00000000 	nop
  1040c0:	3410ff80 	li	s0,0xff80
  1040c4:	001083bc 	dsll32	s0,s0,0xe
  1040c8:	0240282d 	move	a1,s2
  1040cc:	0c043aa0 	jal	10ea80 <dpadd>
  1040d0:	0200202d 	move	a0,s0
  1040d4:	0220282d 	move	a1,s1
  1040d8:	0c043bea 	jal	10efa8 <dpcmp>
  1040dc:	0040202d 	move	a0,v0
  1040e0:	0442fdc1 	bltzl	v0,1037e8 <_dtoa_r+0x680>
  1040e4:	26d6ffff 	addiu	s6,s6,-1
  1040e8:	0200202d 	move	a0,s0
  1040ec:	0c043ab8 	jal	10eae0 <dpsub>
  1040f0:	0240282d 	move	a1,s2
  1040f4:	0220282d 	move	a1,s1
  1040f8:	0c043bea 	jal	10efa8 <dpcmp>
  1040fc:	0040202d 	move	a0,v0
  104100:	1840fd71 	blez	v0,1036c8 <_dtoa_r+0x560>
  104104:	24030030 	li	v1,48
  104108:	26d6ffff 	addiu	s6,s6,-1
  10410c:	82c20000 	lb	v0,0(s6)
  104110:	1043fffd 	beq	v0,v1,104108 <_dtoa_r+0xfa0>
  104114:	00000000 	nop
  104118:	1000fd52 	b	103664 <_dtoa_r+0x4fc>
  10411c:	26d60001 	addiu	s6,s6,1
  104120:	1840fd19 	blez	v0,103588 <_dtoa_r+0x420>
  104124:	8fa30028 	lw	v1,40(sp)
  104128:	1860fd67 	blez	v1,1036c8 <_dtoa_r+0x560>
  10412c:	8fa4002c 	lw	a0,44(sp)
  104130:	0280282d 	move	a1,s4
  104134:	afa30020 	sw	v1,32(sp)
  104138:	2484ffff 	addiu	a0,a0,-1
  10413c:	afa4002c 	sw	a0,44(sp)
  104140:	34048048 	li	a0,0x8048
  104144:	000423fc 	dsll32	a0,a0,0xf
  104148:	0c043ad4 	jal	10eb50 <dpmul>
  10414c:	26730001 	addiu	s3,s3,1
  104150:	0040a02d 	move	s4,v0
  104154:	1000fd0c 	b	103588 <_dtoa_r+0x420>
  104158:	00000000 	nop
  10415c:	8fa3002c 	lw	v1,44(sp)
  104160:	00039023 	negu	s2,v1
  104164:	1240fd00 	beqz	s2,103568 <_dtoa_r+0x400>
  104168:	8fa40034 	lw	a0,52(sp)
  10416c:	3243000f 	andi	v1,s2,0xf
  104170:	3c020011 	lui	v0,0x11
  104174:	2442f848 	addiu	v0,v0,-1976
  104178:	000318c0 	sll	v1,v1,0x3
  10417c:	00621821 	addu	v1,v1,v0
  104180:	0280282d 	move	a1,s4
  104184:	dc640000 	ld	a0,0(v1)
  104188:	0c043ad4 	jal	10eb50 <dpmul>
  10418c:	00128903 	sra	s1,s2,0x4
  104190:	0040a02d 	move	s4,v0
  104194:	1220fcf3 	beqz	s1,103564 <_dtoa_r+0x3fc>
  104198:	3c020011 	lui	v0,0x11
  10419c:	2450f910 	addiu	s0,v0,-1776
  1041a0:	32220001 	andi	v0,s1,0x1
  1041a4:	50400007 	beqzl	v0,1041c4 <_dtoa_r+0x105c>
  1041a8:	00118843 	sra	s1,s1,0x1
  1041ac:	de040000 	ld	a0,0(s0)
  1041b0:	0280282d 	move	a1,s4
  1041b4:	0c043ad4 	jal	10eb50 <dpmul>
  1041b8:	26730001 	addiu	s3,s3,1
  1041bc:	0040a02d 	move	s4,v0
  1041c0:	00118843 	sra	s1,s1,0x1
  1041c4:	1620fff6 	bnez	s1,1041a0 <_dtoa_r+0x1038>
  1041c8:	26100008 	addiu	s0,s0,8
  1041cc:	1000fce6 	b	103568 <_dtoa_r+0x400>
  1041d0:	8fa40034 	lw	a0,52(sp)
  1041d4:	afa00038 	sw	zero,56(sp)
  1041d8:	8fa3000c 	lw	v1,12(sp)
  1041dc:	24130001 	li	s3,1
  1041e0:	0003102a 	slt	v0,zero,v1
  1041e4:	0062980b 	movn	s3,v1,v0
  1041e8:	afb3000c 	sw	s3,12(sp)
  1041ec:	afb30028 	sw	s3,40(sp)
  1041f0:	1000fc99 	b	103458 <_dtoa_r+0x2f0>
  1041f4:	afb30020 	sw	s3,32(sp)
  1041f8:	afa00038 	sw	zero,56(sp)
  1041fc:	8fa3002c 	lw	v1,44(sp)
  104200:	8fa4000c 	lw	a0,12(sp)
  104204:	00831021 	addu	v0,a0,v1
  104208:	24530001 	addiu	s3,v0,1
  10420c:	afa20028 	sw	v0,40(sp)
  104210:	0013182a 	slt	v1,zero,s3
  104214:	24020001 	li	v0,1
  104218:	afb30020 	sw	s3,32(sp)
  10421c:	1000fc8e 	b	103458 <_dtoa_r+0x2f0>
  104220:	0043980a 	movz	s3,v0,v1
  104224:	8fa40018 	lw	a0,24(sp)
  104228:	8fa2002c 	lw	v0,44(sp)
  10422c:	afa00040 	sw	zero,64(sp)
  104230:	00822023 	subu	a0,a0,v0
  104234:	00021823 	negu	v1,v0
  104238:	afa40018 	sw	a0,24(sp)
  10423c:	1000fc6a 	b	1033e8 <_dtoa_r+0x280>
  104240:	afa3001c 	sw	v1,28(sp)
  104244:	afa0003c 	sw	zero,60(sp)
  104248:	1000fc60 	b	1033cc <_dtoa_r+0x264>
  10424c:	afb10018 	sw	s1,24(sp)
  104250:	0c043c00 	jal	10f000 <litodp>
  104254:	8fa4002c 	lw	a0,44(sp)
  104258:	0240202d 	move	a0,s2
  10425c:	0c043bea 	jal	10efa8 <dpcmp>
  104260:	0040282d 	move	a1,v0
  104264:	8fa4002c 	lw	a0,44(sp)
  104268:	2483ffff 	addiu	v1,a0,-1
  10426c:	0062200b 	movn	a0,v1,v0
  104270:	1000fc3e 	b	10336c <_dtoa_r+0x204>
  104274:	afa4002c 	sw	a0,44(sp)
  104278:	8fb10004 	lw	s1,4(sp)
  10427c:	02222021 	addu	a0,s1,v0
  104280:	24930432 	addiu	s3,a0,1074
  104284:	2a620021 	slti	v0,s3,33
  104288:	1440001f 	bnez	v0,104308 <_dtoa_r+0x11a0>
  10428c:	00131023 	negu	v0,s3
  104290:	24840412 	addiu	a0,a0,1042
  104294:	00131823 	negu	v1,s3
  104298:	0014103c 	dsll32	v0,s4,0x0
  10429c:	0002103f 	dsra32	v0,v0,0x0
  1042a0:	00701804 	sllv	v1,s0,v1
  1042a4:	00821006 	srlv	v0,v0,a0
  1042a8:	00628025 	or	s0,v1,v0
  1042ac:	0c043c00 	jal	10f000 <litodp>
  1042b0:	0200202d 	move	a0,s0
  1042b4:	0600000e 	bltz	s0,1042f0 <_dtoa_r+0x1188>
  1042b8:	00000000 	nop
  1042bc:	0040b82d 	move	s7,v0
  1042c0:	3c03fe10 	lui	v1,0xfe10
  1042c4:	0002103f 	dsra32	v0,v0,0x0
  1042c8:	3c04ffff 	lui	a0,0xffff
  1042cc:	0004203e 	dsrl32	a0,a0,0x0
  1042d0:	00431021 	addu	v0,v0,v1
  1042d4:	02e4b824 	and	s7,s7,a0
  1042d8:	0002103c 	dsll32	v0,v0,0x0
  1042dc:	2673fbcd 	addiu	s3,s3,-1075
  1042e0:	02e2b825 	or	s7,s7,v0
  1042e4:	24020001 	li	v0,1
  1042e8:	1000fc01 	b	1032f0 <_dtoa_r+0x188>
  1042ec:	afa20044 	sw	v0,68(sp)
  1042f0:	340583e0 	li	a1,0x83e0
  1042f4:	00052bfc 	dsll32	a1,a1,0xf
  1042f8:	0c043aa0 	jal	10ea80 <dpadd>
  1042fc:	0040202d 	move	a0,v0
  104300:	1000ffee 	b	1042bc <_dtoa_r+0x1154>
  104304:	00000000 	nop
  104308:	0014183c 	dsll32	v1,s4,0x0
  10430c:	0003183f 	dsra32	v1,v1,0x0
  104310:	1000ffe6 	b	1042ac <_dtoa_r+0x1144>
  104314:	00438004 	sllv	s0,v1,v0
  104318:	2402ffff 	li	v0,-1
  10431c:	0002133a 	dsrl	v0,v0,0xc
  104320:	2403270f 	li	v1,9999
  104324:	02821024 	and	v0,s4,v0
  104328:	1440000d 	bnez	v0,104360 <_dtoa_r+0x11f8>
  10432c:	ac830000 	sw	v1,0(a0)
  104330:	3c020011 	lui	v0,0x11
  104334:	2456f798 	addiu	s6,v0,-2152
  104338:	8fa20014 	lw	v0,20(sp)
  10433c:	1040fbc2 	beqz	v0,103248 <_dtoa_r+0xe0>
  104340:	26c40003 	addiu	a0,s6,3
  104344:	82c20003 	lb	v0,3(s6)
  104348:	26c30008 	addiu	v1,s6,8
  10434c:	0082180a 	movz	v1,a0,v0
  104350:	8fa40014 	lw	a0,20(sp)
  104354:	1000fbbc 	b	103248 <_dtoa_r+0xe0>
  104358:	ac830000 	sw	v1,0(a0)
  10435c:	00000000 	nop
  104360:	3c020011 	lui	v0,0x11
  104364:	1000fff4 	b	104338 <_dtoa_r+0x11d0>
  104368:	2456f7a8 	addiu	s6,v0,-2136
  10436c:	00000000 	nop
  104370:	8c820044 	lw	v0,68(a0)
  104374:	0160282d 	move	a1,t3
  104378:	ad620004 	sw	v0,4(t3)
  10437c:	24020001 	li	v0,1
  104380:	8c830044 	lw	v1,68(a0)
  104384:	00621004 	sllv	v0,v0,v1
  104388:	0c04188e 	jal	106238 <_Bfree>
  10438c:	ad620008 	sw	v0,8(t3)
  104390:	1000fb8a 	b	1031bc <_dtoa_r+0x54>
  104394:	aea00040 	sw	zero,64(s5)

00104398 <fflush>:
  104398:	27bdffc0 	addiu	sp,sp,-64
  10439c:	ffb10010 	sd	s1,16(sp)
  1043a0:	0080882d 	move	s1,a0
  1043a4:	ffbf0030 	sd	ra,48(sp)
  1043a8:	ffb20020 	sd	s2,32(sp)
  1043ac:	10800032 	beqz	a0,104478 <fflush+0xe0>
  1043b0:	ffb00000 	sd	s0,0(sp)
  1043b4:	3c020011 	lui	v0,0x11
  1043b8:	8c440c80 	lw	a0,3200(v0)
  1043bc:	50800005 	beqzl	a0,1043d4 <fflush+0x3c>
  1043c0:	8623000c 	lh	v1,12(s1)
  1043c4:	8c820038 	lw	v0,56(a0)
  1043c8:	10400027 	beqz	v0,104468 <fflush+0xd0>
  1043cc:	00000000 	nop
  1043d0:	8623000c 	lh	v1,12(s1)
  1043d4:	30620008 	andi	v0,v1,0x8
  1043d8:	50400017 	beqzl	v0,104438 <fflush+0xa0>
  1043dc:	0000182d 	move	v1,zero
  1043e0:	8e320010 	lw	s2,16(s1)
  1043e4:	12400013 	beqz	s2,104434 <fflush+0x9c>
  1043e8:	30630003 	andi	v1,v1,0x3
  1043ec:	8e220000 	lw	v0,0(s1)
  1043f0:	ae320000 	sw	s2,0(s1)
  1043f4:	0000202d 	move	a0,zero
  1043f8:	14600002 	bnez	v1,104404 <fflush+0x6c>
  1043fc:	00528023 	subu	s0,v0,s2
  104400:	8e240014 	lw	a0,20(s1)
  104404:	1a00000b 	blez	s0,104434 <fflush+0x9c>
  104408:	ae240008 	sw	a0,8(s1)
  10440c:	8e220024 	lw	v0,36(s1)
  104410:	0240282d 	move	a1,s2
  104414:	8e24001c 	lw	a0,28(s1)
  104418:	0040f809 	jalr	v0
  10441c:	0200302d 	move	a2,s0
  104420:	02028023 	subu	s0,s0,v0
  104424:	1840000b 	blez	v0,104454 <fflush+0xbc>
  104428:	02429021 	addu	s2,s2,v0
  10442c:	5e00fff8 	bgtzl	s0,104410 <fflush+0x78>
  104430:	8e220024 	lw	v0,36(s1)
  104434:	0000182d 	move	v1,zero
  104438:	dfbf0030 	ld	ra,48(sp)
  10443c:	0060102d 	move	v0,v1
  104440:	dfb20020 	ld	s2,32(sp)
  104444:	dfb10010 	ld	s1,16(sp)
  104448:	dfb00000 	ld	s0,0(sp)
  10444c:	03e00008 	jr	ra
  104450:	27bd0040 	addiu	sp,sp,64
  104454:	9622000c 	lhu	v0,12(s1)
  104458:	2403ffff 	li	v1,-1
  10445c:	34420040 	ori	v0,v0,0x40
  104460:	1000fff5 	b	104438 <fflush+0xa0>
  104464:	a622000c 	sh	v0,12(s1)
  104468:	0c0411ac 	jal	1046b0 <__sinit>
  10446c:	00000000 	nop
  104470:	1000ffd8 	b	1043d4 <fflush+0x3c>
  104474:	8623000c 	lh	v1,12(s1)
  104478:	3c020011 	lui	v0,0x11
  10447c:	3c050010 	lui	a1,0x10
  104480:	8c44f55c 	lw	a0,-2724(v0)
  104484:	0c041466 	jal	105198 <_fwalk>
  104488:	24a54398 	addiu	a1,a1,17304
  10448c:	1000ffea 	b	104438 <fflush+0xa0>
  104490:	0040182d 	move	v1,v0
  104494:	00000000 	nop

00104498 <std>:
  104498:	3c020010 	lui	v0,0x10
  10449c:	3c030010 	lui	v1,0x10
  1044a0:	24427988 	addiu	v0,v0,31112
  1044a4:	24637880 	addiu	v1,v1,30848
  1044a8:	ac82002c 	sw	v0,44(a0)
  1044ac:	3c020010 	lui	v0,0x10
  1044b0:	24427818 	addiu	v0,v0,30744
  1044b4:	a485000c 	sh	a1,12(a0)
  1044b8:	ac820020 	sw	v0,32(a0)
  1044bc:	3c020010 	lui	v0,0x10
  1044c0:	24427918 	addiu	v0,v0,31000
  1044c4:	a486000e 	sh	a2,14(a0)
  1044c8:	ac830024 	sw	v1,36(a0)
  1044cc:	ac820028 	sw	v0,40(a0)
  1044d0:	ac800000 	sw	zero,0(a0)
  1044d4:	ac800004 	sw	zero,4(a0)
  1044d8:	ac800008 	sw	zero,8(a0)
  1044dc:	ac800010 	sw	zero,16(a0)
  1044e0:	ac800014 	sw	zero,20(a0)
  1044e4:	ac800018 	sw	zero,24(a0)
  1044e8:	03e00008 	jr	ra
  1044ec:	ac84001c 	sw	a0,28(a0)

001044f0 <__sfmoreglue>:
  1044f0:	27bdffc0 	addiu	sp,sp,-64
  1044f4:	2402005c 	li	v0,92
  1044f8:	ffb20020 	sd	s2,32(sp)
  1044fc:	00a29018 	mult	s2,a1,v0
  104500:	ffb10010 	sd	s1,16(sp)
  104504:	00a0882d 	move	s1,a1
  104508:	ffb00000 	sd	s0,0(sp)
  10450c:	ffbf0030 	sd	ra,48(sp)
  104510:	0c0415c6 	jal	105718 <_malloc_r>
  104514:	2645000c 	addiu	a1,s2,12
  104518:	0040802d 	move	s0,v0
  10451c:	1200000a 	beqz	s0,104548 <__sfmoreglue+0x58>
  104520:	0000102d 	move	v0,zero
  104524:	2602000c 	addiu	v0,s0,12
  104528:	ae110004 	sw	s1,4(s0)
  10452c:	ae000000 	sw	zero,0(s0)
  104530:	0040202d 	move	a0,v0
  104534:	ae020008 	sw	v0,8(s0)
  104538:	0240302d 	move	a2,s2
  10453c:	0c04182d 	jal	1060b4 <memset>
  104540:	0000282d 	move	a1,zero
  104544:	0200102d 	move	v0,s0
  104548:	dfbf0030 	ld	ra,48(sp)
  10454c:	dfb20020 	ld	s2,32(sp)
  104550:	dfb10010 	ld	s1,16(sp)
  104554:	dfb00000 	ld	s0,0(sp)
  104558:	03e00008 	jr	ra
  10455c:	27bd0040 	addiu	sp,sp,64

00104560 <__sfp>:
  104560:	27bdffc0 	addiu	sp,sp,-64
  104564:	ffb20020 	sd	s2,32(sp)
  104568:	0080902d 	move	s2,a0
  10456c:	ffb00000 	sd	s0,0(sp)
  104570:	ffbf0030 	sd	ra,48(sp)
  104574:	0c0411d2 	jal	104748 <__sfp_lock_acquire>
  104578:	ffb10010 	sd	s1,16(sp)
  10457c:	3c020011 	lui	v0,0x11
  104580:	8c50f55c 	lw	s0,-2724(v0)
  104584:	8e030038 	lw	v1,56(s0)
  104588:	10600032 	beqz	v1,104654 <__sfp+0xf4>
  10458c:	00000000 	nop
  104590:	261102e0 	addiu	s1,s0,736
  104594:	8e230004 	lw	v1,4(s1)
  104598:	2463ffff 	addiu	v1,v1,-1
  10459c:	04600007 	bltz	v1,1045bc <__sfp+0x5c>
  1045a0:	8e300008 	lw	s0,8(s1)
  1045a4:	00000000 	nop
  1045a8:	8602000c 	lh	v0,12(s0)
  1045ac:	10400018 	beqz	v0,104610 <__sfp+0xb0>
  1045b0:	2463ffff 	addiu	v1,v1,-1
  1045b4:	0461fffc 	bgez	v1,1045a8 <__sfp+0x48>
  1045b8:	2610005c 	addiu	s0,s0,92
  1045bc:	8e220000 	lw	v0,0(s1)
  1045c0:	10400003 	beqz	v0,1045d0 <__sfp+0x70>
  1045c4:	0240202d 	move	a0,s2
  1045c8:	1000fff2 	b	104594 <__sfp+0x34>
  1045cc:	0040882d 	move	s1,v0
  1045d0:	0c04113c 	jal	1044f0 <__sfmoreglue>
  1045d4:	24050004 	li	a1,4
  1045d8:	1440fffb 	bnez	v0,1045c8 <__sfp+0x68>
  1045dc:	ae220000 	sw	v0,0(s1)
  1045e0:	0c0411d4 	jal	104750 <__sfp_lock_release>
  1045e4:	00000000 	nop
  1045e8:	2402000c 	li	v0,12
  1045ec:	0000182d 	move	v1,zero
  1045f0:	ae420000 	sw	v0,0(s2)
  1045f4:	dfbf0030 	ld	ra,48(sp)
  1045f8:	0060102d 	move	v0,v1
  1045fc:	dfb20020 	ld	s2,32(sp)
  104600:	dfb10010 	ld	s1,16(sp)
  104604:	dfb00000 	ld	s0,0(sp)
  104608:	03e00008 	jr	ra
  10460c:	27bd0040 	addiu	sp,sp,64
  104610:	24030001 	li	v1,1
  104614:	2402ffff 	li	v0,-1
  104618:	a603000c 	sh	v1,12(s0)
  10461c:	0c0411d4 	jal	104750 <__sfp_lock_release>
  104620:	a602000e 	sh	v0,14(s0)
  104624:	ae000048 	sw	zero,72(s0)
  104628:	ae000000 	sw	zero,0(s0)
  10462c:	0200182d 	move	v1,s0
  104630:	ae000008 	sw	zero,8(s0)
  104634:	ae000004 	sw	zero,4(s0)
  104638:	ae000010 	sw	zero,16(s0)
  10463c:	ae000014 	sw	zero,20(s0)
  104640:	ae000018 	sw	zero,24(s0)
  104644:	ae000030 	sw	zero,48(s0)
  104648:	ae000034 	sw	zero,52(s0)
  10464c:	1000ffe9 	b	1045f4 <__sfp+0x94>
  104650:	ae000044 	sw	zero,68(s0)
  104654:	0c0411ac 	jal	1046b0 <__sinit>
  104658:	0200202d 	move	a0,s0
  10465c:	1000ffcd 	b	104594 <__sfp+0x34>
  104660:	261102e0 	addiu	s1,s0,736
  104664:	00000000 	nop

00104668 <_cleanup_r>:
  104668:	3c050010 	lui	a1,0x10
  10466c:	27bdfff0 	addiu	sp,sp,-16
  104670:	ffbf0000 	sd	ra,0(sp)
  104674:	0c041466 	jal	105198 <_fwalk>
  104678:	24a57ed8 	addiu	a1,a1,32472
  10467c:	dfbf0000 	ld	ra,0(sp)
  104680:	03e00008 	jr	ra
  104684:	27bd0010 	addiu	sp,sp,16

00104688 <_cleanup>:
  104688:	3c020011 	lui	v0,0x11
  10468c:	27bdfff0 	addiu	sp,sp,-16
  104690:	8c44f55c 	lw	a0,-2724(v0)
  104694:	ffbf0000 	sd	ra,0(sp)
  104698:	0c04119a 	jal	104668 <_cleanup_r>
  10469c:	00000000 	nop
  1046a0:	dfbf0000 	ld	ra,0(sp)
  1046a4:	03e00008 	jr	ra
  1046a8:	27bd0010 	addiu	sp,sp,16
  1046ac:	00000000 	nop

001046b0 <__sinit>:
  1046b0:	27bdffe0 	addiu	sp,sp,-32
  1046b4:	ffb00000 	sd	s0,0(sp)
  1046b8:	ffbf0010 	sd	ra,16(sp)
  1046bc:	0c0411d6 	jal	104758 <__sinit_lock_acquire>
  1046c0:	0080802d 	move	s0,a0
  1046c4:	8e020038 	lw	v0,56(s0)
  1046c8:	260402ec 	addiu	a0,s0,748
  1046cc:	24050004 	li	a1,4
  1046d0:	0000302d 	move	a2,zero
  1046d4:	14400016 	bnez	v0,104730 <__sinit+0x80>
  1046d8:	0200382d 	move	a3,s0
  1046dc:	3c020010 	lui	v0,0x10
  1046e0:	24030001 	li	v1,1
  1046e4:	24424668 	addiu	v0,v0,18024
  1046e8:	ae030038 	sw	v1,56(s0)
  1046ec:	ae02003c 	sw	v0,60(s0)
  1046f0:	24020003 	li	v0,3
  1046f4:	ae0202e4 	sw	v0,740(s0)
  1046f8:	ae0402e8 	sw	a0,744(s0)
  1046fc:	ae0002e0 	sw	zero,736(s0)
  104700:	0c041126 	jal	104498 <std>
  104704:	8e040004 	lw	a0,4(s0)
  104708:	24060001 	li	a2,1
  10470c:	8e040008 	lw	a0,8(s0)
  104710:	0200382d 	move	a3,s0
  104714:	0c041126 	jal	104498 <std>
  104718:	24050009 	li	a1,9
  10471c:	24060002 	li	a2,2
  104720:	8e04000c 	lw	a0,12(s0)
  104724:	0200382d 	move	a3,s0
  104728:	0c041126 	jal	104498 <std>
  10472c:	2405000a 	li	a1,10
  104730:	0c0411d8 	jal	104760 <__sinit_lock_release>
  104734:	00000000 	nop
  104738:	dfb00000 	ld	s0,0(sp)
  10473c:	dfbf0010 	ld	ra,16(sp)
  104740:	03e00008 	jr	ra
  104744:	27bd0020 	addiu	sp,sp,32

00104748 <__sfp_lock_acquire>:
  104748:	03e00008 	jr	ra
  10474c:	00000000 	nop

00104750 <__sfp_lock_release>:
  104750:	03e00008 	jr	ra
  104754:	00000000 	nop

00104758 <__sinit_lock_acquire>:
  104758:	03e00008 	jr	ra
  10475c:	00000000 	nop

00104760 <__sinit_lock_release>:
  104760:	03e00008 	jr	ra
  104764:	00000000 	nop

00104768 <__fp_lock>:
  104768:	03e00008 	jr	ra
  10476c:	0000102d 	move	v0,zero

00104770 <__fp_unlock>:
  104770:	03e00008 	jr	ra
  104774:	0000102d 	move	v0,zero

00104778 <__fp_lock_all>:
  104778:	27bdfff0 	addiu	sp,sp,-16
  10477c:	ffbf0000 	sd	ra,0(sp)
  104780:	0c0411d2 	jal	104748 <__sfp_lock_acquire>
  104784:	00000000 	nop
  104788:	3c020011 	lui	v0,0x11
  10478c:	3c050010 	lui	a1,0x10
  104790:	8c440c80 	lw	a0,3200(v0)
  104794:	0c041466 	jal	105198 <_fwalk>
  104798:	24a54768 	addiu	a1,a1,18280
  10479c:	dfbf0000 	ld	ra,0(sp)
  1047a0:	03e00008 	jr	ra
  1047a4:	27bd0010 	addiu	sp,sp,16

001047a8 <__fp_unlock_all>:
  1047a8:	27bdfff0 	addiu	sp,sp,-16
  1047ac:	3c020011 	lui	v0,0x11
  1047b0:	ffbf0000 	sd	ra,0(sp)
  1047b4:	3c050010 	lui	a1,0x10
  1047b8:	24a54770 	addiu	a1,a1,18288
  1047bc:	0c041466 	jal	105198 <_fwalk>
  1047c0:	8c440c80 	lw	a0,3200(v0)
  1047c4:	0c0411d4 	jal	104750 <__sfp_lock_release>
  1047c8:	00000000 	nop
  1047cc:	dfbf0000 	ld	ra,0(sp)
  1047d0:	03e00008 	jr	ra
  1047d4:	27bd0010 	addiu	sp,sp,16

001047d8 <_free_r>:
  1047d8:	27bdffd0 	addiu	sp,sp,-48
  1047dc:	ffb10010 	sd	s1,16(sp)
  1047e0:	0080882d 	move	s1,a0
  1047e4:	ffb00000 	sd	s0,0(sp)
  1047e8:	00a0802d 	move	s0,a1
  1047ec:	10a00047 	beqz	a1,10490c <_free_r+0x134>
  1047f0:	ffbf0020 	sd	ra,32(sp)
  1047f4:	0c04185e 	jal	106178 <__malloc_lock>
  1047f8:	00000000 	nop
  1047fc:	3c020011 	lui	v0,0x11
  104800:	260bfff8 	addiu	t3,s0,-8
  104804:	244c0cb8 	addiu	t4,v0,3256
  104808:	8d650004 	lw	a1,4(t3)
  10480c:	2402fffe 	li	v0,-2
  104810:	8d840008 	lw	a0,8(t4)
  104814:	00a24824 	and	t1,a1,v0
  104818:	2402fffc 	li	v0,-4
  10481c:	01693821 	addu	a3,t3,t1
  104820:	8ce30004 	lw	v1,4(a3)
  104824:	10e40086 	beq	a3,a0,104a40 <_free_r+0x268>
  104828:	00625024 	and	t2,v1,v0
  10482c:	30a20001 	andi	v0,a1,0x1
  104830:	acea0004 	sw	t2,4(a3)
  104834:	1440000a 	bnez	v0,104860 <_free_r+0x88>
  104838:	0000202d 	move	a0,zero
  10483c:	8e05fff8 	lw	a1,-8(s0)
  104840:	25820008 	addiu	v0,t4,8
  104844:	01655823 	subu	t3,t3,a1
  104848:	8d630008 	lw	v1,8(t3)
  10484c:	1062007a 	beq	v1,v0,104a38 <_free_r+0x260>
  104850:	01254821 	addu	t1,t1,a1
  104854:	8d68000c 	lw	t0,12(t3)
  104858:	ad030008 	sw	v1,8(t0)
  10485c:	ac68000c 	sw	t0,12(v1)
  104860:	00ea1821 	addu	v1,a3,t2
  104864:	8c620004 	lw	v0,4(v1)
  104868:	30420001 	andi	v0,v0,0x1
  10486c:	1440000c 	bnez	v0,1048a0 <_free_r+0xc8>
  104870:	35220001 	ori	v0,t1,0x1
  104874:	1480006e 	bnez	a0,104a30 <_free_r+0x258>
  104878:	012a4821 	addu	t1,t1,t2
  10487c:	3c020011 	lui	v0,0x11
  104880:	8ce30008 	lw	v1,8(a3)
  104884:	24420cc0 	addiu	v0,v0,3264
  104888:	50620063 	beql	v1,v0,104a18 <_free_r+0x240>
  10488c:	24040001 	li	a0,1
  104890:	8ce8000c 	lw	t0,12(a3)
  104894:	ad030008 	sw	v1,8(t0)
  104898:	ac68000c 	sw	t0,12(v1)
  10489c:	35220001 	ori	v0,t1,0x1
  1048a0:	01691821 	addu	v1,t3,t1
  1048a4:	ad620004 	sw	v0,4(t3)
  1048a8:	14800016 	bnez	a0,104904 <_free_r+0x12c>
  1048ac:	ac690000 	sw	t1,0(v1)
  1048b0:	2d220200 	sltiu	v0,t1,512
  1048b4:	1040001a 	beqz	v0,104920 <_free_r+0x148>
  1048b8:	00091a42 	srl	v1,t1,0x9
  1048bc:	000928c2 	srl	a1,t1,0x3
  1048c0:	3c040011 	lui	a0,0x11
  1048c4:	24840cb8 	addiu	a0,a0,3256
  1048c8:	000518c0 	sll	v1,a1,0x3
  1048cc:	24020001 	li	v0,1
  1048d0:	00052882 	srl	a1,a1,0x2
  1048d4:	00644021 	addu	t0,v1,a0
  1048d8:	00a21014 	dsllv	v0,v0,a1
  1048dc:	8c830004 	lw	v1,4(a0)
  1048e0:	0002103c 	dsll32	v0,v0,0x0
  1048e4:	0002103f 	dsra32	v0,v0,0x0
  1048e8:	8d060008 	lw	a2,8(t0)
  1048ec:	00621825 	or	v1,v1,v0
  1048f0:	ad68000c 	sw	t0,12(t3)
  1048f4:	ac830004 	sw	v1,4(a0)
  1048f8:	accb000c 	sw	t3,12(a2)
  1048fc:	ad660008 	sw	a2,8(t3)
  104900:	ad0b0008 	sw	t3,8(t0)
  104904:	0c041860 	jal	106180 <__malloc_unlock>
  104908:	0220202d 	move	a0,s1
  10490c:	dfbf0020 	ld	ra,32(sp)
  104910:	dfb10010 	ld	s1,16(sp)
  104914:	dfb00000 	ld	s0,0(sp)
  104918:	03e00008 	jr	ra
  10491c:	27bd0030 	addiu	sp,sp,48
  104920:	10600006 	beqz	v1,10493c <_free_r+0x164>
  104924:	000928c2 	srl	a1,t1,0x3
  104928:	2c620005 	sltiu	v0,v1,5
  10492c:	10400027 	beqz	v0,1049cc <_free_r+0x1f4>
  104930:	2c620015 	sltiu	v0,v1,21
  104934:	00091182 	srl	v0,t1,0x6
  104938:	24450038 	addiu	a1,v0,56
  10493c:	3c020011 	lui	v0,0x11
  104940:	000518c0 	sll	v1,a1,0x3
  104944:	24470cb8 	addiu	a3,v0,3256
  104948:	00674021 	addu	t0,v1,a3
  10494c:	8d060008 	lw	a2,8(t0)
  104950:	10c80012 	beq	a2,t0,10499c <_free_r+0x1c4>
  104954:	2403fffc 	li	v1,-4
  104958:	8cc20004 	lw	v0,4(a2)
  10495c:	00431024 	and	v0,v0,v1
  104960:	0122102b 	sltu	v0,t1,v0
  104964:	5040000a 	beqzl	v0,104990 <_free_r+0x1b8>
  104968:	8cc8000c 	lw	t0,12(a2)
  10496c:	8cc60008 	lw	a2,8(a2)
  104970:	50c80007 	beql	a2,t0,104990 <_free_r+0x1b8>
  104974:	8cc8000c 	lw	t0,12(a2)
  104978:	8cc20004 	lw	v0,4(a2)
  10497c:	00431024 	and	v0,v0,v1
  104980:	0122102b 	sltu	v0,t1,v0
  104984:	5440fffa 	bnezl	v0,104970 <_free_r+0x198>
  104988:	8cc60008 	lw	a2,8(a2)
  10498c:	8cc8000c 	lw	t0,12(a2)
  104990:	ad68000c 	sw	t0,12(t3)
  104994:	1000ffd9 	b	1048fc <_free_r+0x124>
  104998:	accb000c 	sw	t3,12(a2)
  10499c:	24a30003 	addiu	v1,a1,3
  1049a0:	28a20000 	slti	v0,a1,0
  1049a4:	0062280b 	movn	a1,v1,v0
  1049a8:	24020001 	li	v0,1
  1049ac:	00052083 	sra	a0,a1,0x2
  1049b0:	8ce30004 	lw	v1,4(a3)
  1049b4:	00821014 	dsllv	v0,v0,a0
  1049b8:	0002103c 	dsll32	v0,v0,0x0
  1049bc:	0002103f 	dsra32	v0,v0,0x0
  1049c0:	00621825 	or	v1,v1,v0
  1049c4:	1000fff2 	b	104990 <_free_r+0x1b8>
  1049c8:	ace30004 	sw	v1,4(a3)
  1049cc:	1440ffdb 	bnez	v0,10493c <_free_r+0x164>
  1049d0:	2465005b 	addiu	a1,v1,91
  1049d4:	2c620055 	sltiu	v0,v1,85
  1049d8:	10400004 	beqz	v0,1049ec <_free_r+0x214>
  1049dc:	2c620155 	sltiu	v0,v1,341
  1049e0:	00091302 	srl	v0,t1,0xc
  1049e4:	1000ffd5 	b	10493c <_free_r+0x164>
  1049e8:	2445006e 	addiu	a1,v0,110
  1049ec:	10400004 	beqz	v0,104a00 <_free_r+0x228>
  1049f0:	2c620555 	sltiu	v0,v1,1365
  1049f4:	000913c2 	srl	v0,t1,0xf
  1049f8:	1000ffd0 	b	10493c <_free_r+0x164>
  1049fc:	24450077 	addiu	a1,v0,119
  104a00:	5040ffce 	beqzl	v0,10493c <_free_r+0x164>
  104a04:	2405007e 	li	a1,126
  104a08:	00091482 	srl	v0,t1,0x12
  104a0c:	1000ffcb 	b	10493c <_free_r+0x164>
  104a10:	2445007c 	addiu	a1,v0,124
  104a14:	00000000 	nop
  104a18:	ac6b000c 	sw	t3,12(v1)
  104a1c:	ac6b0008 	sw	t3,8(v1)
  104a20:	ad63000c 	sw	v1,12(t3)
  104a24:	1000ff9d 	b	10489c <_free_r+0xc4>
  104a28:	ad630008 	sw	v1,8(t3)
  104a2c:	00000000 	nop
  104a30:	1000ff97 	b	104890 <_free_r+0xb8>
  104a34:	8ce30008 	lw	v1,8(a3)
  104a38:	1000ff89 	b	104860 <_free_r+0x88>
  104a3c:	24040001 	li	a0,1
  104a40:	30a20001 	andi	v0,a1,0x1
  104a44:	14400008 	bnez	v0,104a68 <_free_r+0x290>
  104a48:	012a4821 	addu	t1,t1,t2
  104a4c:	8e05fff8 	lw	a1,-8(s0)
  104a50:	01655823 	subu	t3,t3,a1
  104a54:	01254821 	addu	t1,t1,a1
  104a58:	8d68000c 	lw	t0,12(t3)
  104a5c:	8d660008 	lw	a2,8(t3)
  104a60:	ad060008 	sw	a2,8(t0)
  104a64:	acc8000c 	sw	t0,12(a2)
  104a68:	3c020011 	lui	v0,0x11
  104a6c:	0009183c 	dsll32	v1,t1,0x0
  104a70:	dc4410c0 	ld	a0,4288(v0)
  104a74:	0003183e 	dsrl32	v1,v1,0x0
  104a78:	35220001 	ori	v0,t1,0x1
  104a7c:	ad8b0008 	sw	t3,8(t4)
  104a80:	0064182b 	sltu	v1,v1,a0
  104a84:	1460ff9f 	bnez	v1,104904 <_free_r+0x12c>
  104a88:	ad620004 	sw	v0,4(t3)
  104a8c:	3c020011 	lui	v0,0x11
  104a90:	0220202d 	move	a0,s1
  104a94:	0c0412aa 	jal	104aa8 <_malloc_trim_r>
  104a98:	8c4510c8 	lw	a1,4296(v0)
  104a9c:	1000ff99 	b	104904 <_free_r+0x12c>
  104aa0:	00000000 	nop
  104aa4:	00000000 	nop

00104aa8 <_malloc_trim_r>:
  104aa8:	27bdffa0 	addiu	sp,sp,-96
  104aac:	ffb30030 	sd	s3,48(sp)
  104ab0:	ffb20020 	sd	s2,32(sp)
  104ab4:	0080902d 	move	s2,a0
  104ab8:	ffb10010 	sd	s1,16(sp)
  104abc:	ffb00000 	sd	s0,0(sp)
  104ac0:	00a0802d 	move	s0,a1
  104ac4:	ffbf0050 	sd	ra,80(sp)
  104ac8:	0010803c 	dsll32	s0,s0,0x0
  104acc:	ffb40040 	sd	s4,64(sp)
  104ad0:	0c04185e 	jal	106178 <__malloc_lock>
  104ad4:	0010803e 	dsrl32	s0,s0,0x0
  104ad8:	2403fffc 	li	v1,-4
  104adc:	3c020011 	lui	v0,0x11
  104ae0:	0240202d 	move	a0,s2
  104ae4:	24530cb8 	addiu	s3,v0,3256
  104ae8:	8e660008 	lw	a2,8(s3)
  104aec:	8cc20004 	lw	v0,4(a2)
  104af0:	00431024 	and	v0,v0,v1
  104af4:	0002103c 	dsll32	v0,v0,0x0
  104af8:	0002883e 	dsrl32	s1,v0,0x0
  104afc:	0230802f 	dsubu	s0,s1,s0
  104b00:	66100fef 	daddiu	s0,s0,4079
  104b04:	0010833a 	dsrl	s0,s0,0xc
  104b08:	6610ffff 	daddiu	s0,s0,-1
  104b0c:	00108338 	dsll	s0,s0,0xc
  104b10:	2a021000 	slti	v0,s0,4096
  104b14:	1440000d 	bnez	v0,104b4c <_malloc_trim_r+0xa4>
  104b18:	0000282d 	move	a1,zero
  104b1c:	0c041df0 	jal	1077c0 <_sbrk_r>
  104b20:	00000000 	nop
  104b24:	0010a03c 	dsll32	s4,s0,0x0
  104b28:	0014a03f 	dsra32	s4,s4,0x0
  104b2c:	8e630008 	lw	v1,8(s3)
  104b30:	0040302d 	move	a2,v0
  104b34:	0011103c 	dsll32	v0,s1,0x0
  104b38:	0002103f 	dsra32	v0,v0,0x0
  104b3c:	00142823 	negu	a1,s4
  104b40:	00621821 	addu	v1,v1,v0
  104b44:	10c3000c 	beq	a2,v1,104b78 <_malloc_trim_r+0xd0>
  104b48:	0240202d 	move	a0,s2
  104b4c:	0c041860 	jal	106180 <__malloc_unlock>
  104b50:	00000000 	nop
  104b54:	0000102d 	move	v0,zero
  104b58:	dfbf0050 	ld	ra,80(sp)
  104b5c:	dfb40040 	ld	s4,64(sp)
  104b60:	dfb30030 	ld	s3,48(sp)
  104b64:	dfb20020 	ld	s2,32(sp)
  104b68:	dfb10010 	ld	s1,16(sp)
  104b6c:	dfb00000 	ld	s0,0(sp)
  104b70:	03e00008 	jr	ra
  104b74:	27bd0060 	addiu	sp,sp,96
  104b78:	0c041df0 	jal	1077c0 <_sbrk_r>
  104b7c:	0230802f 	dsubu	s0,s1,s0
  104b80:	2403ffff 	li	v1,-1
  104b84:	0240202d 	move	a0,s2
  104b88:	0000282d 	move	a1,zero
  104b8c:	1043000e 	beq	v0,v1,104bc8 <_malloc_trim_r+0x120>
  104b90:	3c060011 	lui	a2,0x11
  104b94:	24020001 	li	v0,1
  104b98:	8e650008 	lw	a1,8(s3)
  104b9c:	02021025 	or	v0,s0,v0
  104ba0:	0240202d 	move	a0,s2
  104ba4:	0002103c 	dsll32	v0,v0,0x0
  104ba8:	0002103f 	dsra32	v0,v0,0x0
  104bac:	aca20004 	sw	v0,4(a1)
  104bb0:	8cc310e8 	lw	v1,4328(a2)
  104bb4:	00741823 	subu	v1,v1,s4
  104bb8:	0c041860 	jal	106180 <__malloc_unlock>
  104bbc:	acc310e8 	sw	v1,4328(a2)
  104bc0:	1000ffe5 	b	104b58 <_malloc_trim_r+0xb0>
  104bc4:	24020001 	li	v0,1
  104bc8:	0c041df0 	jal	1077c0 <_sbrk_r>
  104bcc:	00000000 	nop
  104bd0:	8e650008 	lw	a1,8(s3)
  104bd4:	0040302d 	move	a2,v0
  104bd8:	00458823 	subu	s1,v0,a1
  104bdc:	24020001 	li	v0,1
  104be0:	02221025 	or	v0,s1,v0
  104be4:	2a230010 	slti	v1,s1,16
  104be8:	0002383c 	dsll32	a3,v0,0x0
  104bec:	0007383f 	dsra32	a3,a3,0x0
  104bf0:	1460ffd6 	bnez	v1,104b4c <_malloc_trim_r+0xa4>
  104bf4:	0240202d 	move	a0,s2
  104bf8:	3c020011 	lui	v0,0x11
  104bfc:	8c4310d0 	lw	v1,4304(v0)
  104c00:	3c020011 	lui	v0,0x11
  104c04:	00c31823 	subu	v1,a2,v1
  104c08:	ac4310e8 	sw	v1,4328(v0)
  104c0c:	1000ffcf 	b	104b4c <_malloc_trim_r+0xa4>
  104c10:	aca70004 	sw	a3,4(a1)
  104c14:	00000000 	nop

00104c18 <__sfvwrite>:
  104c18:	27bdff70 	addiu	sp,sp,-144
  104c1c:	0000182d 	move	v1,zero
  104c20:	ffb50050 	sd	s5,80(sp)
  104c24:	00a0a82d 	move	s5,a1
  104c28:	ffb40040 	sd	s4,64(sp)
  104c2c:	0000a02d 	move	s4,zero
  104c30:	ffb30030 	sd	s3,48(sp)
  104c34:	ffbf0080 	sd	ra,128(sp)
  104c38:	ffb70070 	sd	s7,112(sp)
  104c3c:	ffb60060 	sd	s6,96(sp)
  104c40:	ffb20020 	sd	s2,32(sp)
  104c44:	ffb10010 	sd	s1,16(sp)
  104c48:	ffb00000 	sd	s0,0(sp)
  104c4c:	8cb00008 	lw	s0,8(a1)
  104c50:	1200002a 	beqz	s0,104cfc <__sfvwrite+0xe4>
  104c54:	0080982d 	move	s3,a0
  104c58:	9483000c 	lhu	v1,12(a0)
  104c5c:	30620008 	andi	v0,v1,0x8
  104c60:	10400004 	beqz	v0,104c74 <__sfvwrite+0x5c>
  104c64:	00000000 	nop
  104c68:	8c820010 	lw	v0,16(a0)
  104c6c:	14400007 	bnez	v0,104c8c <__sfvwrite+0x74>
  104c70:	30620002 	andi	v0,v1,0x2
  104c74:	0c040b82 	jal	102e08 <__swsetup>
  104c78:	00000000 	nop
  104c7c:	1440001f 	bnez	v0,104cfc <__sfvwrite+0xe4>
  104c80:	2403ffff 	li	v1,-1
  104c84:	9663000c 	lhu	v1,12(s3)
  104c88:	30620002 	andi	v0,v1,0x2
  104c8c:	8eb20000 	lw	s2,0(s5)
  104c90:	1040002b 	beqz	v0,104d40 <__sfvwrite+0x128>
  104c94:	0000802d 	move	s0,zero
  104c98:	24160400 	li	s6,1024
  104c9c:	56000008 	bnezl	s0,104cc0 <__sfvwrite+0xa8>
  104ca0:	2e030401 	sltiu	v1,s0,1025
  104ca4:	00000000 	nop
  104ca8:	8e500004 	lw	s0,4(s2)
  104cac:	8e540000 	lw	s4,0(s2)
  104cb0:	26520008 	addiu	s2,s2,8
  104cb4:	1200fffc 	beqz	s0,104ca8 <__sfvwrite+0x90>
  104cb8:	00000000 	nop
  104cbc:	2e030401 	sltiu	v1,s0,1025
  104cc0:	8e620024 	lw	v0,36(s3)
  104cc4:	02c0302d 	move	a2,s6
  104cc8:	8e64001c 	lw	a0,28(s3)
  104ccc:	0203300b 	movn	a2,s0,v1
  104cd0:	0040f809 	jalr	v0
  104cd4:	0280282d 	move	a1,s4
  104cd8:	18400014 	blez	v0,104d2c <__sfvwrite+0x114>
  104cdc:	0040882d 	move	s1,v0
  104ce0:	8ea20008 	lw	v0,8(s5)
  104ce4:	0291a021 	addu	s4,s4,s1
  104ce8:	02118023 	subu	s0,s0,s1
  104cec:	00511023 	subu	v0,v0,s1
  104cf0:	1440ffea 	bnez	v0,104c9c <__sfvwrite+0x84>
  104cf4:	aea20008 	sw	v0,8(s5)
  104cf8:	0000182d 	move	v1,zero
  104cfc:	dfbf0080 	ld	ra,128(sp)
  104d00:	0060102d 	move	v0,v1
  104d04:	dfb70070 	ld	s7,112(sp)
  104d08:	dfb60060 	ld	s6,96(sp)
  104d0c:	dfb50050 	ld	s5,80(sp)
  104d10:	dfb40040 	ld	s4,64(sp)
  104d14:	dfb30030 	ld	s3,48(sp)
  104d18:	dfb20020 	ld	s2,32(sp)
  104d1c:	dfb10010 	ld	s1,16(sp)
  104d20:	dfb00000 	ld	s0,0(sp)
  104d24:	03e00008 	jr	ra
  104d28:	27bd0090 	addiu	sp,sp,144
  104d2c:	9662000c 	lhu	v0,12(s3)
  104d30:	2403ffff 	li	v1,-1
  104d34:	34420040 	ori	v0,v0,0x40
  104d38:	1000fff0 	b	104cfc <__sfvwrite+0xe4>
  104d3c:	a662000c 	sh	v0,12(s3)
  104d40:	30620001 	andi	v0,v1,0x1
  104d44:	0000b82d 	move	s7,zero
  104d48:	14400067 	bnez	v0,104ee8 <__sfvwrite+0x2d0>
  104d4c:	0000b02d 	move	s6,zero
  104d50:	16000007 	bnez	s0,104d70 <__sfvwrite+0x158>
  104d54:	30620200 	andi	v0,v1,0x200
  104d58:	8e500004 	lw	s0,4(s2)
  104d5c:	8e540000 	lw	s4,0(s2)
  104d60:	26520008 	addiu	s2,s2,8
  104d64:	1200fffc 	beqz	s0,104d58 <__sfvwrite+0x140>
  104d68:	00000000 	nop
  104d6c:	30620200 	andi	v0,v1,0x200
  104d70:	10400031 	beqz	v0,104e38 <__sfvwrite+0x220>
  104d74:	8e710008 	lw	s1,8(s3)
  104d78:	0230102b 	sltu	v0,s1,s0
  104d7c:	10400003 	beqz	v0,104d8c <__sfvwrite+0x174>
  104d80:	30620080 	andi	v0,v1,0x80
  104d84:	54400016 	bnezl	v0,104de0 <__sfvwrite+0x1c8>
  104d88:	8e630010 	lw	v1,16(s3)
  104d8c:	0211102b 	sltu	v0,s0,s1
  104d90:	8e640000 	lw	a0,0(s3)
  104d94:	0202880b 	movn	s1,s0,v0
  104d98:	0280282d 	move	a1,s4
  104d9c:	0c0417ec 	jal	105fb0 <memmove>
  104da0:	0220302d 	move	a2,s1
  104da4:	8e620008 	lw	v0,8(s3)
  104da8:	8e630000 	lw	v1,0(s3)
  104dac:	00511023 	subu	v0,v0,s1
  104db0:	00711821 	addu	v1,v1,s1
  104db4:	0200882d 	move	s1,s0
  104db8:	ae630000 	sw	v1,0(s3)
  104dbc:	ae620008 	sw	v0,8(s3)
  104dc0:	8ea20008 	lw	v0,8(s5)
  104dc4:	0291a021 	addu	s4,s4,s1
  104dc8:	02118023 	subu	s0,s0,s1
  104dcc:	00511023 	subu	v0,v0,s1
  104dd0:	1040ffc9 	beqz	v0,104cf8 <__sfvwrite+0xe0>
  104dd4:	aea20008 	sw	v0,8(s5)
  104dd8:	1000ffdd 	b	104d50 <__sfvwrite+0x138>
  104ddc:	9663000c 	lhu	v1,12(s3)
  104de0:	3c170011 	lui	s7,0x11
  104de4:	8e620000 	lw	v0,0(s3)
  104de8:	8ee40c80 	lw	a0,3200(s7)
  104dec:	0060282d 	move	a1,v1
  104df0:	00438823 	subu	s1,v0,v1
  104df4:	0230b021 	addu	s6,s1,s0
  104df8:	0c041c70 	jal	1071c0 <_realloc_r>
  104dfc:	02c0302d 	move	a2,s6
  104e00:	10400008 	beqz	v0,104e24 <__sfvwrite+0x20c>
  104e04:	0040182d 	move	v1,v0
  104e08:	00511021 	addu	v0,v0,s1
  104e0c:	ae760014 	sw	s6,20(s3)
  104e10:	ae620000 	sw	v0,0(s3)
  104e14:	0200882d 	move	s1,s0
  104e18:	ae630010 	sw	v1,16(s3)
  104e1c:	1000ffdb 	b	104d8c <__sfvwrite+0x174>
  104e20:	ae700008 	sw	s0,8(s3)
  104e24:	8ee40c80 	lw	a0,3200(s7)
  104e28:	0c0411f6 	jal	1047d8 <_free_r>
  104e2c:	8e650010 	lw	a1,16(s3)
  104e30:	1000ffbf 	b	104d30 <__sfvwrite+0x118>
  104e34:	9662000c 	lhu	v0,12(s3)
  104e38:	8e640000 	lw	a0,0(s3)
  104e3c:	8e620010 	lw	v0,16(s3)
  104e40:	0044102b 	sltu	v0,v0,a0
  104e44:	50400005 	beqzl	v0,104e5c <__sfvwrite+0x244>
  104e48:	8e710014 	lw	s1,20(s3)
  104e4c:	0230102b 	sltu	v0,s1,s0
  104e50:	14400019 	bnez	v0,104eb8 <__sfvwrite+0x2a0>
  104e54:	0280282d 	move	a1,s4
  104e58:	8e710014 	lw	s1,20(s3)
  104e5c:	0211102b 	sltu	v0,s0,s1
  104e60:	5440000b 	bnezl	v0,104e90 <__sfvwrite+0x278>
  104e64:	8e640000 	lw	a0,0(s3)
  104e68:	8e620024 	lw	v0,36(s3)
  104e6c:	0220302d 	move	a2,s1
  104e70:	8e64001c 	lw	a0,28(s3)
  104e74:	0040f809 	jalr	v0
  104e78:	0280282d 	move	a1,s4
  104e7c:	1c40ffd0 	bgtz	v0,104dc0 <__sfvwrite+0x1a8>
  104e80:	0040882d 	move	s1,v0
  104e84:	1000ffaa 	b	104d30 <__sfvwrite+0x118>
  104e88:	9662000c 	lhu	v0,12(s3)
  104e8c:	00000000 	nop
  104e90:	0280282d 	move	a1,s4
  104e94:	0200302d 	move	a2,s0
  104e98:	0c0417ec 	jal	105fb0 <memmove>
  104e9c:	0200882d 	move	s1,s0
  104ea0:	8e620008 	lw	v0,8(s3)
  104ea4:	8e630000 	lw	v1,0(s3)
  104ea8:	00501023 	subu	v0,v0,s0
  104eac:	00701821 	addu	v1,v1,s0
  104eb0:	1000ffc2 	b	104dbc <__sfvwrite+0x1a4>
  104eb4:	ae630000 	sw	v1,0(s3)
  104eb8:	0c0417ec 	jal	105fb0 <memmove>
  104ebc:	0220302d 	move	a2,s1
  104ec0:	8e620000 	lw	v0,0(s3)
  104ec4:	0260202d 	move	a0,s3
  104ec8:	00511021 	addu	v0,v0,s1
  104ecc:	0c0410e6 	jal	104398 <fflush>
  104ed0:	ae620000 	sw	v0,0(s3)
  104ed4:	5040ffbb 	beqzl	v0,104dc4 <__sfvwrite+0x1ac>
  104ed8:	8ea20008 	lw	v0,8(s5)
  104edc:	1000ff94 	b	104d30 <__sfvwrite+0x118>
  104ee0:	9662000c 	lhu	v0,12(s3)
  104ee4:	00000000 	nop
  104ee8:	16000008 	bnez	s0,104f0c <__sfvwrite+0x2f4>
  104eec:	00000000 	nop
  104ef0:	0000b82d 	move	s7,zero
  104ef4:	00000000 	nop
  104ef8:	8e500004 	lw	s0,4(s2)
  104efc:	8e540000 	lw	s4,0(s2)
  104f00:	26520008 	addiu	s2,s2,8
  104f04:	1200fffc 	beqz	s0,104ef8 <__sfvwrite+0x2e0>
  104f08:	00000000 	nop
  104f0c:	12e00040 	beqz	s7,105010 <__sfvwrite+0x3f8>
  104f10:	0280202d 	move	a0,s4
  104f14:	8e660000 	lw	a2,0(s3)
  104f18:	0216102b 	sltu	v0,s0,s6
  104f1c:	8e630010 	lw	v1,16(s3)
  104f20:	0200282d 	move	a1,s0
  104f24:	8e640008 	lw	a0,8(s3)
  104f28:	02c2280a 	movz	a1,s6,v0
  104f2c:	8e670014 	lw	a3,20(s3)
  104f30:	0066182b 	sltu	v1,v1,a2
  104f34:	10600004 	beqz	v1,104f48 <__sfvwrite+0x330>
  104f38:	00878821 	addu	s1,a0,a3
  104f3c:	0225102a 	slt	v0,s1,a1
  104f40:	14400027 	bnez	v0,104fe0 <__sfvwrite+0x3c8>
  104f44:	00c0202d 	move	a0,a2
  104f48:	00a7102a 	slt	v0,a1,a3
  104f4c:	14400019 	bnez	v0,104fb4 <__sfvwrite+0x39c>
  104f50:	00a0882d 	move	s1,a1
  104f54:	8e620024 	lw	v0,36(s3)
  104f58:	00e0302d 	move	a2,a3
  104f5c:	8e64001c 	lw	a0,28(s3)
  104f60:	0040f809 	jalr	v0
  104f64:	0280282d 	move	a1,s4
  104f68:	1840ff70 	blez	v0,104d2c <__sfvwrite+0x114>
  104f6c:	0040882d 	move	s1,v0
  104f70:	02d1b023 	subu	s6,s6,s1
  104f74:	12c00009 	beqz	s6,104f9c <__sfvwrite+0x384>
  104f78:	00000000 	nop
  104f7c:	8ea20008 	lw	v0,8(s5)
  104f80:	0291a021 	addu	s4,s4,s1
  104f84:	02118023 	subu	s0,s0,s1
  104f88:	00511023 	subu	v0,v0,s1
  104f8c:	1440ffd6 	bnez	v0,104ee8 <__sfvwrite+0x2d0>
  104f90:	aea20008 	sw	v0,8(s5)
  104f94:	1000ff59 	b	104cfc <__sfvwrite+0xe4>
  104f98:	0000182d 	move	v1,zero
  104f9c:	0c0410e6 	jal	104398 <fflush>
  104fa0:	0260202d 	move	a0,s3
  104fa4:	1440ff61 	bnez	v0,104d2c <__sfvwrite+0x114>
  104fa8:	0000b82d 	move	s7,zero
  104fac:	1000fff4 	b	104f80 <__sfvwrite+0x368>
  104fb0:	8ea20008 	lw	v0,8(s5)
  104fb4:	8e640000 	lw	a0,0(s3)
  104fb8:	0280282d 	move	a1,s4
  104fbc:	0c0417ec 	jal	105fb0 <memmove>
  104fc0:	0220302d 	move	a2,s1
  104fc4:	8e620008 	lw	v0,8(s3)
  104fc8:	8e630000 	lw	v1,0(s3)
  104fcc:	00511023 	subu	v0,v0,s1
  104fd0:	00711821 	addu	v1,v1,s1
  104fd4:	ae620008 	sw	v0,8(s3)
  104fd8:	1000ffe5 	b	104f70 <__sfvwrite+0x358>
  104fdc:	ae630000 	sw	v1,0(s3)
  104fe0:	0280282d 	move	a1,s4
  104fe4:	0c0417ec 	jal	105fb0 <memmove>
  104fe8:	0220302d 	move	a2,s1
  104fec:	8e620000 	lw	v0,0(s3)
  104ff0:	0260202d 	move	a0,s3
  104ff4:	00511021 	addu	v0,v0,s1
  104ff8:	0c0410e6 	jal	104398 <fflush>
  104ffc:	ae620000 	sw	v0,0(s3)
  105000:	1040ffdc 	beqz	v0,104f74 <__sfvwrite+0x35c>
  105004:	02d1b023 	subu	s6,s6,s1
  105008:	1000ff49 	b	104d30 <__sfvwrite+0x118>
  10500c:	9662000c 	lhu	v0,12(s3)
  105010:	2405000a 	li	a1,10
  105014:	0c041788 	jal	105e20 <memchr>
  105018:	0200302d 	move	a2,s0
  10501c:	10400004 	beqz	v0,105030 <__sfvwrite+0x418>
  105020:	00541023 	subu	v0,v0,s4
  105024:	24560001 	addiu	s6,v0,1
  105028:	1000ffba 	b	104f14 <__sfvwrite+0x2fc>
  10502c:	24170001 	li	s7,1
  105030:	1000fffd 	b	105028 <__sfvwrite+0x410>
  105034:	26160001 	addiu	s6,s0,1

00105038 <__fwalk>:
  105038:	27bdff90 	addiu	sp,sp,-112
  10503c:	ffb20020 	sd	s2,32(sp)
  105040:	249202e0 	addiu	s2,a0,736
  105044:	ffb50050 	sd	s5,80(sp)
  105048:	00a0a82d 	move	s5,a1
  10504c:	ffb40040 	sd	s4,64(sp)
  105050:	0000a02d 	move	s4,zero
  105054:	ffbf0060 	sd	ra,96(sp)
  105058:	ffb30030 	sd	s3,48(sp)
  10505c:	ffb10010 	sd	s1,16(sp)
  105060:	12400015 	beqz	s2,1050b8 <__fwalk+0x80>
  105064:	ffb00000 	sd	s0,0(sp)
  105068:	8e510004 	lw	s1,4(s2)
  10506c:	2631ffff 	addiu	s1,s1,-1
  105070:	0620000e 	bltz	s1,1050ac <__fwalk+0x74>
  105074:	8e500008 	lw	s0,8(s2)
  105078:	2413ffff 	li	s3,-1
  10507c:	00000000 	nop
  105080:	8602000c 	lh	v0,12(s0)
  105084:	10400007 	beqz	v0,1050a4 <__fwalk+0x6c>
  105088:	2631ffff 	addiu	s1,s1,-1
  10508c:	8602000e 	lh	v0,14(s0)
  105090:	10530004 	beq	v0,s3,1050a4 <__fwalk+0x6c>
  105094:	0200202d 	move	a0,s0
  105098:	02a0f809 	jalr	s5
  10509c:	00000000 	nop
  1050a0:	0282a025 	or	s4,s4,v0
  1050a4:	0621fff6 	bgez	s1,105080 <__fwalk+0x48>
  1050a8:	2610005c 	addiu	s0,s0,92
  1050ac:	8e520000 	lw	s2,0(s2)
  1050b0:	5640ffee 	bnezl	s2,10506c <__fwalk+0x34>
  1050b4:	8e510004 	lw	s1,4(s2)
  1050b8:	0280102d 	move	v0,s4
  1050bc:	dfbf0060 	ld	ra,96(sp)
  1050c0:	dfb50050 	ld	s5,80(sp)
  1050c4:	dfb40040 	ld	s4,64(sp)
  1050c8:	dfb30030 	ld	s3,48(sp)
  1050cc:	dfb20020 	ld	s2,32(sp)
  1050d0:	dfb10010 	ld	s1,16(sp)
  1050d4:	dfb00000 	ld	s0,0(sp)
  1050d8:	03e00008 	jr	ra
  1050dc:	27bd0070 	addiu	sp,sp,112

001050e0 <__fwalk_reent>:
  1050e0:	27bdff80 	addiu	sp,sp,-128
  1050e4:	ffb20020 	sd	s2,32(sp)
  1050e8:	249202e0 	addiu	s2,a0,736
  1050ec:	ffb60060 	sd	s6,96(sp)
  1050f0:	00a0b02d 	move	s6,a1
  1050f4:	ffb50050 	sd	s5,80(sp)
  1050f8:	0080a82d 	move	s5,a0
  1050fc:	ffb30030 	sd	s3,48(sp)
  105100:	0000982d 	move	s3,zero
  105104:	ffbf0070 	sd	ra,112(sp)
  105108:	ffb40040 	sd	s4,64(sp)
  10510c:	ffb10010 	sd	s1,16(sp)
  105110:	12400016 	beqz	s2,10516c <__fwalk_reent+0x8c>
  105114:	ffb00000 	sd	s0,0(sp)
  105118:	8e510004 	lw	s1,4(s2)
  10511c:	2631ffff 	addiu	s1,s1,-1
  105120:	0620000f 	bltz	s1,105160 <__fwalk_reent+0x80>
  105124:	8e500008 	lw	s0,8(s2)
  105128:	2414ffff 	li	s4,-1
  10512c:	00000000 	nop
  105130:	8602000c 	lh	v0,12(s0)
  105134:	10400008 	beqz	v0,105158 <__fwalk_reent+0x78>
  105138:	2631ffff 	addiu	s1,s1,-1
  10513c:	8602000e 	lh	v0,14(s0)
  105140:	0200282d 	move	a1,s0
  105144:	10540004 	beq	v0,s4,105158 <__fwalk_reent+0x78>
  105148:	02a0202d 	move	a0,s5
  10514c:	02c0f809 	jalr	s6
  105150:	00000000 	nop
  105154:	02629825 	or	s3,s3,v0
  105158:	0621fff5 	bgez	s1,105130 <__fwalk_reent+0x50>
  10515c:	2610005c 	addiu	s0,s0,92
  105160:	8e520000 	lw	s2,0(s2)
  105164:	5640ffed 	bnezl	s2,10511c <__fwalk_reent+0x3c>
  105168:	8e510004 	lw	s1,4(s2)
  10516c:	0260102d 	move	v0,s3
  105170:	dfbf0070 	ld	ra,112(sp)
  105174:	dfb60060 	ld	s6,96(sp)
  105178:	dfb50050 	ld	s5,80(sp)
  10517c:	dfb40040 	ld	s4,64(sp)
  105180:	dfb30030 	ld	s3,48(sp)
  105184:	dfb20020 	ld	s2,32(sp)
  105188:	dfb10010 	ld	s1,16(sp)
  10518c:	dfb00000 	ld	s0,0(sp)
  105190:	03e00008 	jr	ra
  105194:	27bd0080 	addiu	sp,sp,128

00105198 <_fwalk>:
  105198:	27bdffd0 	addiu	sp,sp,-48
  10519c:	ffb10010 	sd	s1,16(sp)
  1051a0:	00a0882d 	move	s1,a1
  1051a4:	ffb00000 	sd	s0,0(sp)
  1051a8:	ffbf0020 	sd	ra,32(sp)
  1051ac:	0c0411d2 	jal	104748 <__sfp_lock_acquire>
  1051b0:	0080802d 	move	s0,a0
  1051b4:	0200202d 	move	a0,s0
  1051b8:	0c04140e 	jal	105038 <__fwalk>
  1051bc:	0220282d 	move	a1,s1
  1051c0:	0c0411d4 	jal	104750 <__sfp_lock_release>
  1051c4:	0040802d 	move	s0,v0
  1051c8:	0200102d 	move	v0,s0
  1051cc:	dfbf0020 	ld	ra,32(sp)
  1051d0:	dfb10010 	ld	s1,16(sp)
  1051d4:	dfb00000 	ld	s0,0(sp)
  1051d8:	03e00008 	jr	ra
  1051dc:	27bd0030 	addiu	sp,sp,48

001051e0 <_fwalk_reent>:
  1051e0:	27bdffd0 	addiu	sp,sp,-48
  1051e4:	ffb10010 	sd	s1,16(sp)
  1051e8:	00a0882d 	move	s1,a1
  1051ec:	ffb00000 	sd	s0,0(sp)
  1051f0:	ffbf0020 	sd	ra,32(sp)
  1051f4:	0c0411d2 	jal	104748 <__sfp_lock_acquire>
  1051f8:	0080802d 	move	s0,a0
  1051fc:	0200202d 	move	a0,s0
  105200:	0c041438 	jal	1050e0 <__fwalk_reent>
  105204:	0220282d 	move	a1,s1
  105208:	0c0411d4 	jal	104750 <__sfp_lock_release>
  10520c:	0040802d 	move	s0,v0
  105210:	0200102d 	move	v0,s0
  105214:	dfbf0020 	ld	ra,32(sp)
  105218:	dfb10010 	ld	s1,16(sp)
  10521c:	dfb00000 	ld	s0,0(sp)
  105220:	03e00008 	jr	ra
  105224:	27bd0030 	addiu	sp,sp,48

00105228 <_setlocale_r>:
  105228:	27bdffb0 	addiu	sp,sp,-80
  10522c:	ffb30030 	sd	s3,48(sp)
  105230:	3c130011 	lui	s3,0x11
  105234:	2662f830 	addiu	v0,s3,-2000
  105238:	ffb20020 	sd	s2,32(sp)
  10523c:	ffb10010 	sd	s1,16(sp)
  105240:	00a0902d 	move	s2,a1
  105244:	ffb00000 	sd	s0,0(sp)
  105248:	0080882d 	move	s1,a0
  10524c:	ffbf0040 	sd	ra,64(sp)
  105250:	00c0802d 	move	s0,a2
  105254:	00c0202d 	move	a0,a2
  105258:	10c00009 	beqz	a2,105280 <_setlocale_r+0x58>
  10525c:	0040282d 	move	a1,v0
  105260:	0c041e6c 	jal	1079b0 <strcmp>
  105264:	00000000 	nop
  105268:	3c050011 	lui	a1,0x11
  10526c:	0200202d 	move	a0,s0
  105270:	1440000d 	bnez	v0,1052a8 <_setlocale_r+0x80>
  105274:	24a5f7e8 	addiu	a1,a1,-2072
  105278:	ae300034 	sw	s0,52(s1)
  10527c:	ae320030 	sw	s2,48(s1)
  105280:	2663f830 	addiu	v1,s3,-2000
  105284:	dfbf0040 	ld	ra,64(sp)
  105288:	0060102d 	move	v0,v1
  10528c:	dfb30030 	ld	s3,48(sp)
  105290:	dfb20020 	ld	s2,32(sp)
  105294:	dfb10010 	ld	s1,16(sp)
  105298:	dfb00000 	ld	s0,0(sp)
  10529c:	03e00008 	jr	ra
  1052a0:	27bd0050 	addiu	sp,sp,80
  1052a4:	00000000 	nop
  1052a8:	0c041e6c 	jal	1079b0 <strcmp>
  1052ac:	00000000 	nop
  1052b0:	1440fff4 	bnez	v0,105284 <_setlocale_r+0x5c>
  1052b4:	0000182d 	move	v1,zero
  1052b8:	1000fff0 	b	10527c <_setlocale_r+0x54>
  1052bc:	ae300034 	sw	s0,52(s1)

001052c0 <__locale_charset>:
  1052c0:	3c030011 	lui	v1,0x11
  1052c4:	03e00008 	jr	ra
  1052c8:	8c620ca0 	lw	v0,3232(v1)
  1052cc:	00000000 	nop

001052d0 <_localeconv_r>:
  1052d0:	3c020011 	lui	v0,0x11
  1052d4:	03e00008 	jr	ra
  1052d8:	2442f7f0 	addiu	v0,v0,-2064
  1052dc:	00000000 	nop

001052e0 <setlocale>:
  1052e0:	3c030011 	lui	v1,0x11
  1052e4:	0080102d 	move	v0,a0
  1052e8:	8c640c80 	lw	a0,3200(v1)
  1052ec:	27bdfff0 	addiu	sp,sp,-16
  1052f0:	00a0302d 	move	a2,a1
  1052f4:	ffbf0000 	sd	ra,0(sp)
  1052f8:	0c04148a 	jal	105228 <_setlocale_r>
  1052fc:	0040282d 	move	a1,v0
  105300:	dfbf0000 	ld	ra,0(sp)
  105304:	03e00008 	jr	ra
  105308:	27bd0010 	addiu	sp,sp,16
  10530c:	00000000 	nop

00105310 <localeconv>:
  105310:	27bdfff0 	addiu	sp,sp,-16
  105314:	3c020011 	lui	v0,0x11
  105318:	ffbf0000 	sd	ra,0(sp)
  10531c:	0c0414b4 	jal	1052d0 <_localeconv_r>
  105320:	8c440c80 	lw	a0,3200(v0)
  105324:	dfbf0000 	ld	ra,0(sp)
  105328:	03e00008 	jr	ra
  10532c:	27bd0010 	addiu	sp,sp,16

00105330 <__smakebuf>:
  105330:	27bdff40 	addiu	sp,sp,-192
  105334:	ffb00070 	sd	s0,112(sp)
  105338:	ffbf00b0 	sd	ra,176(sp)
  10533c:	ffb300a0 	sd	s3,160(sp)
  105340:	ffb20090 	sd	s2,144(sp)
  105344:	ffb10080 	sd	s1,128(sp)
  105348:	9483000c 	lhu	v1,12(a0)
  10534c:	30620002 	andi	v0,v1,0x2
  105350:	1040000d 	beqz	v0,105388 <__smakebuf+0x58>
  105354:	0080802d 	move	s0,a0
  105358:	24830043 	addiu	v1,a0,67
  10535c:	24020001 	li	v0,1
  105360:	ac820014 	sw	v0,20(a0)
  105364:	ac830010 	sw	v1,16(a0)
  105368:	ac830000 	sw	v1,0(a0)
  10536c:	dfbf00b0 	ld	ra,176(sp)
  105370:	dfb300a0 	ld	s3,160(sp)
  105374:	dfb20090 	ld	s2,144(sp)
  105378:	dfb10080 	ld	s1,128(sp)
  10537c:	dfb00070 	ld	s0,112(sp)
  105380:	03e00008 	jr	ra
  105384:	27bd00c0 	addiu	sp,sp,192
  105388:	8485000e 	lh	a1,14(a0)
  10538c:	04a00044 	bltz	a1,1054a0 <__smakebuf+0x170>
  105390:	03a0302d 	move	a2,sp
  105394:	3c120011 	lui	s2,0x11
  105398:	0c041fc0 	jal	107f00 <_fstat_r>
  10539c:	8e440c80 	lw	a0,3200(s2)
  1053a0:	0440003a 	bltz	v0,10548c <__smakebuf+0x15c>
  1053a4:	8fa40004 	lw	a0,4(sp)
  1053a8:	24110400 	li	s1,1024
  1053ac:	dfa30048 	ld	v1,72(sp)
  1053b0:	3084f000 	andi	a0,a0,0xf000
  1053b4:	38822000 	xori	v0,a0,0x2000
  1053b8:	0003282a 	slt	a1,zero,v1
  1053bc:	2c530001 	sltiu	s3,v0,1
  1053c0:	0003183c 	dsll32	v1,v1,0x0
  1053c4:	0003183f 	dsra32	v1,v1,0x0
  1053c8:	34028000 	li	v0,0x8000
  1053cc:	10820025 	beq	a0,v0,105464 <__smakebuf+0x134>
  1053d0:	0065880b 	movn	s1,v1,a1
  1053d4:	9602000c 	lhu	v0,12(s0)
  1053d8:	34420800 	ori	v0,v0,0x800
  1053dc:	a602000c 	sh	v0,12(s0)
  1053e0:	8e440c80 	lw	a0,3200(s2)
  1053e4:	0c0415c6 	jal	105718 <_malloc_r>
  1053e8:	0220282d 	move	a1,s1
  1053ec:	10400014 	beqz	v0,105440 <__smakebuf+0x110>
  1053f0:	0040282d 	move	a1,v0
  1053f4:	9602000c 	lhu	v0,12(s0)
  1053f8:	3c030010 	lui	v1,0x10
  1053fc:	8e440c80 	lw	a0,3200(s2)
  105400:	24634668 	addiu	v1,v1,18024
  105404:	34420080 	ori	v0,v0,0x80
  105408:	ae050010 	sw	a1,16(s0)
  10540c:	ac83003c 	sw	v1,60(a0)
  105410:	a602000c 	sh	v0,12(s0)
  105414:	ae110014 	sw	s1,20(s0)
  105418:	1260ffd4 	beqz	s3,10536c <__smakebuf+0x3c>
  10541c:	ae050000 	sw	a1,0(s0)
  105420:	0c0421da 	jal	108768 <isatty>
  105424:	8604000e 	lh	a0,14(s0)
  105428:	1040ffd1 	beqz	v0,105370 <__smakebuf+0x40>
  10542c:	dfbf00b0 	ld	ra,176(sp)
  105430:	9602000c 	lhu	v0,12(s0)
  105434:	34420001 	ori	v0,v0,0x1
  105438:	1000ffcd 	b	105370 <__smakebuf+0x40>
  10543c:	a602000c 	sh	v0,12(s0)
  105440:	9602000c 	lhu	v0,12(s0)
  105444:	26040043 	addiu	a0,s0,67
  105448:	24030001 	li	v1,1
  10544c:	ae040010 	sw	a0,16(s0)
  105450:	34420002 	ori	v0,v0,0x2
  105454:	ae030014 	sw	v1,20(s0)
  105458:	a602000c 	sh	v0,12(s0)
  10545c:	1000ffc3 	b	10536c <__smakebuf+0x3c>
  105460:	ae040000 	sw	a0,0(s0)
  105464:	3c020010 	lui	v0,0x10
  105468:	8e030028 	lw	v1,40(s0)
  10546c:	24427918 	addiu	v0,v0,31000
  105470:	1462ffd9 	bne	v1,v0,1053d8 <__smakebuf+0xa8>
  105474:	9602000c 	lhu	v0,12(s0)
  105478:	8fa30048 	lw	v1,72(sp)
  10547c:	34420400 	ori	v0,v0,0x400
  105480:	a602000c 	sh	v0,12(s0)
  105484:	1000ffd6 	b	1053e0 <__smakebuf+0xb0>
  105488:	ae03004c 	sw	v1,76(s0)
  10548c:	9603000c 	lhu	v1,12(s0)
  105490:	34620800 	ori	v0,v1,0x800
  105494:	0000982d 	move	s3,zero
  105498:	1000ffd0 	b	1053dc <__smakebuf+0xac>
  10549c:	24110400 	li	s1,1024
  1054a0:	1000fffb 	b	105490 <__smakebuf+0x160>
  1054a4:	3c120011 	lui	s2,0x11

001054a8 <malloc_extend_top>:
  1054a8:	27bdff70 	addiu	sp,sp,-144
  1054ac:	3c020011 	lui	v0,0x11
  1054b0:	ffb70070 	sd	s7,112(sp)
  1054b4:	0005283c 	dsll32	a1,a1,0x0
  1054b8:	ffb60060 	sd	s6,96(sp)
  1054bc:	0005283e 	dsrl32	a1,a1,0x0
  1054c0:	ffb50050 	sd	s5,80(sp)
  1054c4:	24560cb8 	addiu	s6,v0,3256
  1054c8:	ffb40040 	sd	s4,64(sp)
  1054cc:	3c020011 	lui	v0,0x11
  1054d0:	ffb30030 	sd	s3,48(sp)
  1054d4:	2415ffff 	li	s5,-1
  1054d8:	ffb20020 	sd	s2,32(sp)
  1054dc:	0080b82d 	move	s7,a0
  1054e0:	ffb00000 	sd	s0,0(sp)
  1054e4:	ffbf0080 	sd	ra,128(sp)
  1054e8:	ffb10010 	sd	s1,16(sp)
  1054ec:	8ed30008 	lw	s3,8(s6)
  1054f0:	dc4310c8 	ld	v1,4296(v0)
  1054f4:	3c020011 	lui	v0,0x11
  1054f8:	8e660004 	lw	a2,4(s3)
  1054fc:	00a3282d 	daddu	a1,a1,v1
  105500:	8c4310d0 	lw	v1,4304(v0)
  105504:	2402fffc 	li	v0,-4
  105508:	64a50010 	daddiu	a1,a1,16
  10550c:	00c2a024 	and	s4,a2,v0
  105510:	0005903c 	dsll32	s2,a1,0x0
  105514:	0012903f 	dsra32	s2,s2,0x0
  105518:	10750008 	beq	v1,s5,10553c <malloc_extend_top+0x94>
  10551c:	02748021 	addu	s0,s3,s4
  105520:	0012103c 	dsll32	v0,s2,0x0
  105524:	2403f000 	li	v1,-4096
  105528:	0002103e 	dsrl32	v0,v0,0x0
  10552c:	64420fff 	daddiu	v0,v0,4095
  105530:	00431024 	and	v0,v0,v1
  105534:	0002903c 	dsll32	s2,v0,0x0
  105538:	0012903f 	dsra32	s2,s2,0x0
  10553c:	0c041df0 	jal	1077c0 <_sbrk_r>
  105540:	0240282d 	move	a1,s2
  105544:	10550006 	beq	v0,s5,105560 <malloc_extend_top+0xb8>
  105548:	0040882d 	move	s1,v0
  10554c:	0050102b 	sltu	v0,v0,s0
  105550:	1040000e 	beqz	v0,10558c <malloc_extend_top+0xe4>
  105554:	3c030011 	lui	v1,0x11
  105558:	1276000d 	beq	s3,s6,105590 <malloc_extend_top+0xe8>
  10555c:	8c6210e8 	lw	v0,4328(v1)
  105560:	dfbf0080 	ld	ra,128(sp)
  105564:	dfb70070 	ld	s7,112(sp)
  105568:	dfb60060 	ld	s6,96(sp)
  10556c:	dfb50050 	ld	s5,80(sp)
  105570:	dfb40040 	ld	s4,64(sp)
  105574:	dfb30030 	ld	s3,48(sp)
  105578:	dfb20020 	ld	s2,32(sp)
  10557c:	dfb10010 	ld	s1,16(sp)
  105580:	dfb00000 	ld	s0,0(sp)
  105584:	03e00008 	jr	ra
  105588:	27bd0090 	addiu	sp,sp,144
  10558c:	8c6210e8 	lw	v0,4328(v1)
  105590:	00521021 	addu	v0,v0,s2
  105594:	12300058 	beq	s1,s0,1056f8 <malloc_extend_top+0x250>
  105598:	ac6210e8 	sw	v0,4328(v1)
  10559c:	3c040011 	lui	a0,0x11
  1055a0:	2402ffff 	li	v0,-1
  1055a4:	8c8310d0 	lw	v1,4304(a0)
  1055a8:	10620051 	beq	v1,v0,1056f0 <malloc_extend_top+0x248>
  1055ac:	02301823 	subu	v1,s1,s0
  1055b0:	3c040011 	lui	a0,0x11
  1055b4:	8c8210e8 	lw	v0,4328(a0)
  1055b8:	00431021 	addu	v0,v0,v1
  1055bc:	ac8210e8 	sw	v0,4328(a0)
  1055c0:	26220008 	addiu	v0,s1,8
  1055c4:	3055000f 	andi	s5,v0,0xf
  1055c8:	12a00004 	beqz	s5,1055dc <malloc_extend_top+0x134>
  1055cc:	0000802d 	move	s0,zero
  1055d0:	24020010 	li	v0,16
  1055d4:	00558023 	subu	s0,v0,s5
  1055d8:	02308821 	addu	s1,s1,s0
  1055dc:	02329021 	addu	s2,s1,s2
  1055e0:	24031000 	li	v1,4096
  1055e4:	32420fff 	andi	v0,s2,0xfff
  1055e8:	02e0202d 	move	a0,s7
  1055ec:	0062182f 	dsubu	v1,v1,v0
  1055f0:	0003183c 	dsll32	v1,v1,0x0
  1055f4:	0003183f 	dsra32	v1,v1,0x0
  1055f8:	02038021 	addu	s0,s0,v1
  1055fc:	32100fff 	andi	s0,s0,0xfff
  105600:	0c041df0 	jal	1077c0 <_sbrk_r>
  105604:	0200282d 	move	a1,s0
  105608:	0040182d 	move	v1,v0
  10560c:	2402ffff 	li	v0,-1
  105610:	50620031 	beql	v1,v0,1056d8 <malloc_extend_top+0x230>
  105614:	0240182d 	move	v1,s2
  105618:	3c050011 	lui	a1,0x11
  10561c:	00711023 	subu	v0,v1,s1
  105620:	00501021 	addu	v0,v0,s0
  105624:	8ca310e8 	lw	v1,4328(a1)
  105628:	34440001 	ori	a0,v0,0x1
  10562c:	3c020011 	lui	v0,0x11
  105630:	00701821 	addu	v1,v1,s0
  105634:	24420cb8 	addiu	v0,v0,3256
  105638:	aca310e8 	sw	v1,4328(a1)
  10563c:	ac510008 	sw	s1,8(v0)
  105640:	12620013 	beq	s3,v0,105690 <malloc_extend_top+0x1e8>
  105644:	ae240004 	sw	a0,4(s1)
  105648:	2e820010 	sltiu	v0,s4,16
  10564c:	50400004 	beqzl	v0,105660 <malloc_extend_top+0x1b8>
  105650:	8e630004 	lw	v1,4(s3)
  105654:	24020001 	li	v0,1
  105658:	1000ffc1 	b	105560 <malloc_extend_top+0xb8>
  10565c:	ae220004 	sw	v0,4(s1)
  105660:	2684fff4 	addiu	a0,s4,-12
  105664:	2402fff0 	li	v0,-16
  105668:	24050005 	li	a1,5
  10566c:	0082a024 	and	s4,a0,v0
  105670:	30630001 	andi	v1,v1,0x1
  105674:	02741021 	addu	v0,s3,s4
  105678:	00741825 	or	v1,v1,s4
  10567c:	2e840010 	sltiu	a0,s4,16
  105680:	ae630004 	sw	v1,4(s3)
  105684:	ac450008 	sw	a1,8(v0)
  105688:	1080000e 	beqz	a0,1056c4 <malloc_extend_top+0x21c>
  10568c:	ac450004 	sw	a1,4(v0)
  105690:	3c070011 	lui	a3,0x11
  105694:	3c080011 	lui	t0,0x11
  105698:	3c020011 	lui	v0,0x11
  10569c:	dce510d8 	ld	a1,4312(a3)
  1056a0:	8c4310e8 	lw	v1,4328(v0)
  1056a4:	dd0410e0 	ld	a0,4320(t0)
  1056a8:	00a3102b 	sltu	v0,a1,v1
  1056ac:	0083302b 	sltu	a2,a0,v1
  1056b0:	0062280b 	movn	a1,v1,v0
  1056b4:	0066200b 	movn	a0,v1,a2
  1056b8:	fce510d8 	sd	a1,4312(a3)
  1056bc:	1000ffa8 	b	105560 <malloc_extend_top+0xb8>
  1056c0:	fd0410e0 	sd	a0,4320(t0)
  1056c4:	26650008 	addiu	a1,s3,8
  1056c8:	0c0411f6 	jal	1047d8 <_free_r>
  1056cc:	02e0202d 	move	a0,s7
  1056d0:	1000fff0 	b	105694 <malloc_extend_top+0x1ec>
  1056d4:	3c070011 	lui	a3,0x11
  1056d8:	12a0ffcf 	beqz	s5,105618 <malloc_extend_top+0x170>
  1056dc:	0000802d 	move	s0,zero
  1056e0:	02551021 	addu	v0,s2,s5
  1056e4:	1000ffcc 	b	105618 <malloc_extend_top+0x170>
  1056e8:	2443fff0 	addiu	v1,v0,-16
  1056ec:	00000000 	nop
  1056f0:	1000ffb3 	b	1055c0 <malloc_extend_top+0x118>
  1056f4:	ac9110d0 	sw	s1,4304(a0)
  1056f8:	32220fff 	andi	v0,s1,0xfff
  1056fc:	1440ffa8 	bnez	v0,1055a0 <malloc_extend_top+0xf8>
  105700:	3c040011 	lui	a0,0x11
  105704:	02541021 	addu	v0,s2,s4
  105708:	8ec30008 	lw	v1,8(s6)
  10570c:	34420001 	ori	v0,v0,0x1
  105710:	1000ffdf 	b	105690 <malloc_extend_top+0x1e8>
  105714:	ac620004 	sw	v0,4(v1)

00105718 <_malloc_r>:
  105718:	24a30013 	addiu	v1,a1,19
  10571c:	27bdffa0 	addiu	sp,sp,-96
  105720:	2c62001f 	sltiu	v0,v1,31
  105724:	ffb20020 	sd	s2,32(sp)
  105728:	ffbf0050 	sd	ra,80(sp)
  10572c:	0080902d 	move	s2,a0
  105730:	ffb40040 	sd	s4,64(sp)
  105734:	ffb30030 	sd	s3,48(sp)
  105738:	ffb10010 	sd	s1,16(sp)
  10573c:	144001b6 	bnez	v0,105e18 <_malloc_r+0x700>
  105740:	ffb00000 	sd	s0,0(sp)
  105744:	2402fff0 	li	v0,-16
  105748:	00628824 	and	s1,v1,v0
  10574c:	06200003 	bltz	s1,10575c <_malloc_r+0x44>
  105750:	0225102b 	sltu	v0,s1,a1
  105754:	1040000e 	beqz	v0,105790 <_malloc_r+0x78>
  105758:	00000000 	nop
  10575c:	2402000c 	li	v0,12
  105760:	0000182d 	move	v1,zero
  105764:	ae420000 	sw	v0,0(s2)
  105768:	dfbf0050 	ld	ra,80(sp)
  10576c:	0060102d 	move	v0,v1
  105770:	dfb40040 	ld	s4,64(sp)
  105774:	dfb30030 	ld	s3,48(sp)
  105778:	dfb20020 	ld	s2,32(sp)
  10577c:	dfb10010 	ld	s1,16(sp)
  105780:	dfb00000 	ld	s0,0(sp)
  105784:	03e00008 	jr	ra
  105788:	27bd0060 	addiu	sp,sp,96
  10578c:	00000000 	nop
  105790:	0c04185e 	jal	106178 <__malloc_lock>
  105794:	0240202d 	move	a0,s2
  105798:	2e2201f8 	sltiu	v0,s1,504
  10579c:	10400160 	beqz	v0,105d20 <_malloc_r+0x608>
  1057a0:	00111a42 	srl	v1,s1,0x9
  1057a4:	3c140011 	lui	s4,0x11
  1057a8:	26820cb8 	addiu	v0,s4,3256
  1057ac:	02224021 	addu	t0,s1,v0
  1057b0:	8d10000c 	lw	s0,12(t0)
  1057b4:	12080011 	beq	s0,t0,1057fc <_malloc_r+0xe4>
  1057b8:	001148c2 	srl	t1,s1,0x3
  1057bc:	8e030004 	lw	v1,4(s0)
  1057c0:	2402fffc 	li	v0,-4
  1057c4:	8e0a000c 	lw	t2,12(s0)
  1057c8:	0240202d 	move	a0,s2
  1057cc:	00623824 	and	a3,v1,v0
  1057d0:	8e080008 	lw	t0,8(s0)
  1057d4:	02071821 	addu	v1,s0,a3
  1057d8:	8c620004 	lw	v0,4(v1)
  1057dc:	ad480008 	sw	t0,8(t2)
  1057e0:	34420001 	ori	v0,v0,0x1
  1057e4:	ad0a000c 	sw	t2,12(t0)
  1057e8:	ac620004 	sw	v0,4(v1)
  1057ec:	0c041860 	jal	106180 <__malloc_unlock>
  1057f0:	00000000 	nop
  1057f4:	1000ffdc 	b	105768 <_malloc_r+0x50>
  1057f8:	26030008 	addiu	v1,s0,8
  1057fc:	25290002 	addiu	t1,t1,2
  105800:	3c020011 	lui	v0,0x11
  105804:	24420cc0 	addiu	v0,v0,3264
  105808:	8c500008 	lw	s0,8(v0)
  10580c:	1202002b 	beq	s0,v0,1058bc <_malloc_r+0x1a4>
  105810:	2403fffc 	li	v1,-4
  105814:	8e020004 	lw	v0,4(s0)
  105818:	00433824 	and	a3,v0,v1
  10581c:	00f1202b 	sltu	a0,a3,s1
  105820:	1080013b 	beqz	a0,105d10 <_malloc_r+0x5f8>
  105824:	00f11023 	subu	v0,a3,s1
  105828:	02271023 	subu	v0,s1,a3
  10582c:	0002103c 	dsll32	v0,v0,0x0
  105830:	0002103e 	dsrl32	v0,v0,0x0
  105834:	0002282f 	dnegu	a1,v0
  105838:	28a20010 	slti	v0,a1,16
  10583c:	50400122 	beqzl	v0,105cc8 <_malloc_r+0x5b0>
  105840:	02113821 	addu	a3,s0,s1
  105844:	3c020011 	lui	v0,0x11
  105848:	24440cc0 	addiu	a0,v0,3264
  10584c:	ac84000c 	sw	a0,12(a0)
  105850:	04a00006 	bltz	a1,10586c <_malloc_r+0x154>
  105854:	ac840008 	sw	a0,8(a0)
  105858:	02071821 	addu	v1,s0,a3
  10585c:	0240202d 	move	a0,s2
  105860:	8c620004 	lw	v0,4(v1)
  105864:	1000ffe0 	b	1057e8 <_malloc_r+0xd0>
  105868:	34420001 	ori	v0,v0,0x1
  10586c:	2ce20200 	sltiu	v0,a3,512
  105870:	104000d8 	beqz	v0,105bd4 <_malloc_r+0x4bc>
  105874:	00071a42 	srl	v1,a3,0x9
  105878:	000728c2 	srl	a1,a3,0x3
  10587c:	2484fff8 	addiu	a0,a0,-8
  105880:	000518c0 	sll	v1,a1,0x3
  105884:	24020001 	li	v0,1
  105888:	00052882 	srl	a1,a1,0x2
  10588c:	00645021 	addu	t2,v1,a0
  105890:	00a21014 	dsllv	v0,v0,a1
  105894:	8c830004 	lw	v1,4(a0)
  105898:	0002103c 	dsll32	v0,v0,0x0
  10589c:	0002103f 	dsra32	v0,v0,0x0
  1058a0:	8d480008 	lw	t0,8(t2)
  1058a4:	00621825 	or	v1,v1,v0
  1058a8:	ae0a000c 	sw	t2,12(s0)
  1058ac:	ac830004 	sw	v1,4(a0)
  1058b0:	ad10000c 	sw	s0,12(t0)
  1058b4:	ae080008 	sw	t0,8(s0)
  1058b8:	ad500008 	sw	s0,8(t2)
  1058bc:	29220000 	slti	v0,t1,0
  1058c0:	25240003 	addiu	a0,t1,3
  1058c4:	0122200a 	movz	a0,t1,v0
  1058c8:	26830cb8 	addiu	v1,s4,3256
  1058cc:	00042083 	sra	a0,a0,0x2
  1058d0:	9c650004 	lwu	a1,4(v1)
  1058d4:	24020001 	li	v0,1
  1058d8:	00825014 	dsllv	t2,v0,a0
  1058dc:	00aa182b 	sltu	v1,a1,t2
  1058e0:	14600056 	bnez	v1,105a3c <_malloc_r+0x324>
  1058e4:	26820cb8 	addiu	v0,s4,3256
  1058e8:	01451024 	and	v0,t2,a1
  1058ec:	1440000e 	bnez	v0,105928 <_malloc_r+0x210>
  1058f0:	3c020011 	lui	v0,0x11
  1058f4:	000a5078 	dsll	t2,t2,0x1
  1058f8:	2402fffc 	li	v0,-4
  1058fc:	01221024 	and	v0,t1,v0
  105900:	01451824 	and	v1,t2,a1
  105904:	14600007 	bnez	v1,105924 <_malloc_r+0x20c>
  105908:	24490004 	addiu	t1,v0,4
  10590c:	00a0182d 	move	v1,a1
  105910:	000a5078 	dsll	t2,t2,0x1
  105914:	25290004 	addiu	t1,t1,4
  105918:	01431024 	and	v0,t2,v1
  10591c:	1040fffc 	beqz	v0,105910 <_malloc_r+0x1f8>
  105920:	00000000 	nop
  105924:	3c020011 	lui	v0,0x11
  105928:	244d0cb8 	addiu	t5,v0,3256
  10592c:	0040782d 	move	t7,v0
  105930:	01a0702d 	move	t6,t5
  105934:	01a0982d 	move	s3,t5
  105938:	000910c0 	sll	v0,t1,0x3
  10593c:	0120602d 	move	t4,t1
  105940:	004d4021 	addu	t0,v0,t5
  105944:	0100302d 	move	a2,t0
  105948:	8cd0000c 	lw	s0,12(a2)
  10594c:	12060016 	beq	s0,a2,1059a8 <_malloc_r+0x290>
  105950:	2922003f 	slti	v0,t1,63
  105954:	240bfffc 	li	t3,-4
  105958:	8e020004 	lw	v0,4(s0)
  10595c:	004b3824 	and	a3,v0,t3
  105960:	02271823 	subu	v1,s1,a3
  105964:	00f11023 	subu	v0,a3,s1
  105968:	0003183c 	dsll32	v1,v1,0x0
  10596c:	0002203c 	dsll32	a0,v0,0x0
  105970:	0003183e 	dsrl32	v1,v1,0x0
  105974:	00f1102b 	sltu	v0,a3,s1
  105978:	14400002 	bnez	v0,105984 <_malloc_r+0x26c>
  10597c:	0003282f 	dnegu	a1,v1
  105980:	0004283e 	dsrl32	a1,a0,0x0
  105984:	28a20010 	slti	v0,a1,16
  105988:	5040007b 	beqzl	v0,105b78 <_malloc_r+0x460>
  10598c:	24030001 	li	v1,1
  105990:	04a30070 	bgezl	a1,105b54 <_malloc_r+0x43c>
  105994:	02071821 	addu	v1,s0,a3
  105998:	8e10000c 	lw	s0,12(s0)
  10599c:	5606ffef 	bnel	s0,a2,10595c <_malloc_r+0x244>
  1059a0:	8e020004 	lw	v0,4(s0)
  1059a4:	2922003f 	slti	v0,t1,63
  1059a8:	10400003 	beqz	v0,1059b8 <_malloc_r+0x2a0>
  1059ac:	24c60008 	addiu	a2,a2,8
  1059b0:	24c60008 	addiu	a2,a2,8
  1059b4:	25290001 	addiu	t1,t1,1
  1059b8:	25290001 	addiu	t1,t1,1
  1059bc:	31220003 	andi	v0,t1,0x3
  1059c0:	5440ffe2 	bnezl	v0,10594c <_malloc_r+0x234>
  1059c4:	8cd0000c 	lw	s0,12(a2)
  1059c8:	000a103c 	dsll32	v0,t2,0x0
  1059cc:	0002103f 	dsra32	v0,v0,0x0
  1059d0:	25e40cb8 	addiu	a0,t7,3256
  1059d4:	00021827 	nor	v1,zero,v0
  1059d8:	31820003 	andi	v0,t4,0x3
  1059dc:	2508fff8 	addiu	t0,t0,-8
  1059e0:	10400058 	beqz	v0,105b44 <_malloc_r+0x42c>
  1059e4:	258cffff 	addiu	t4,t4,-1
  1059e8:	8d020008 	lw	v0,8(t0)
  1059ec:	1048fffb 	beq	v0,t0,1059dc <_malloc_r+0x2c4>
  1059f0:	31820003 	andi	v0,t4,0x3
  1059f4:	9dc30004 	lwu	v1,4(t6)
  1059f8:	000a5078 	dsll	t2,t2,0x1
  1059fc:	006a102b 	sltu	v0,v1,t2
  105a00:	1440000e 	bnez	v0,105a3c <_malloc_r+0x324>
  105a04:	26820cb8 	addiu	v0,s4,3256
  105a08:	1140000b 	beqz	t2,105a38 <_malloc_r+0x320>
  105a0c:	01431024 	and	v0,t2,v1
  105a10:	1440ffca 	bnez	v0,10593c <_malloc_r+0x224>
  105a14:	000910c0 	sll	v0,t1,0x3
  105a18:	9e630004 	lwu	v1,4(s3)
  105a1c:	000a5078 	dsll	t2,t2,0x1
  105a20:	25290004 	addiu	t1,t1,4
  105a24:	01431024 	and	v0,t2,v1
  105a28:	1040fffc 	beqz	v0,105a1c <_malloc_r+0x304>
  105a2c:	00000000 	nop
  105a30:	1000ffc2 	b	10593c <_malloc_r+0x224>
  105a34:	000910c0 	sll	v0,t1,0x3
  105a38:	26820cb8 	addiu	v0,s4,3256
  105a3c:	8c430008 	lw	v1,8(v0)
  105a40:	2402fffc 	li	v0,-4
  105a44:	8c640004 	lw	a0,4(v1)
  105a48:	00821024 	and	v0,a0,v0
  105a4c:	0051182b 	sltu	v1,v0,s1
  105a50:	50600039 	beqzl	v1,105b38 <_malloc_r+0x420>
  105a54:	00511023 	subu	v0,v0,s1
  105a58:	02221023 	subu	v0,s1,v0
  105a5c:	0002103c 	dsll32	v0,v0,0x0
  105a60:	0002103e 	dsrl32	v0,v0,0x0
  105a64:	0002282f 	dnegu	a1,v0
  105a68:	26900cb8 	addiu	s0,s4,3256
  105a6c:	2413fffc 	li	s3,-4
  105a70:	8e030008 	lw	v1,8(s0)
  105a74:	8c620004 	lw	v0,4(v1)
  105a78:	00531024 	and	v0,v0,s3
  105a7c:	0051102b 	sltu	v0,v0,s1
  105a80:	14400003 	bnez	v0,105a90 <_malloc_r+0x378>
  105a84:	28a20010 	slti	v0,a1,16
  105a88:	1040001c 	beqz	v0,105afc <_malloc_r+0x3e4>
  105a8c:	26860cb8 	addiu	a2,s4,3256
  105a90:	0240202d 	move	a0,s2
  105a94:	0c04152a 	jal	1054a8 <malloc_extend_top>
  105a98:	0220282d 	move	a1,s1
  105a9c:	8e020008 	lw	v0,8(s0)
  105aa0:	8c430004 	lw	v1,4(v0)
  105aa4:	00731824 	and	v1,v1,s3
  105aa8:	0071102b 	sltu	v0,v1,s1
  105aac:	1040001f 	beqz	v0,105b2c <_malloc_r+0x414>
  105ab0:	00711023 	subu	v0,v1,s1
  105ab4:	02231023 	subu	v0,s1,v1
  105ab8:	0002103c 	dsll32	v0,v0,0x0
  105abc:	0002103e 	dsrl32	v0,v0,0x0
  105ac0:	0002282f 	dnegu	a1,v0
  105ac4:	26830cb8 	addiu	v1,s4,3256
  105ac8:	8c640008 	lw	a0,8(v1)
  105acc:	2403fffc 	li	v1,-4
  105ad0:	8c820004 	lw	v0,4(a0)
  105ad4:	00431024 	and	v0,v0,v1
  105ad8:	0051102b 	sltu	v0,v0,s1
  105adc:	14400003 	bnez	v0,105aec <_malloc_r+0x3d4>
  105ae0:	28a20010 	slti	v0,a1,16
  105ae4:	10400005 	beqz	v0,105afc <_malloc_r+0x3e4>
  105ae8:	26860cb8 	addiu	a2,s4,3256
  105aec:	0c041860 	jal	106180 <__malloc_unlock>
  105af0:	0240202d 	move	a0,s2
  105af4:	1000ff1c 	b	105768 <_malloc_r+0x50>
  105af8:	0000182d 	move	v1,zero
  105afc:	24020001 	li	v0,1
  105b00:	8cd00008 	lw	s0,8(a2)
  105b04:	00a21025 	or	v0,a1,v0
  105b08:	0002103c 	dsll32	v0,v0,0x0
  105b0c:	0002103f 	dsra32	v0,v0,0x0
  105b10:	36230001 	ori	v1,s1,0x1
  105b14:	02112821 	addu	a1,s0,s1
  105b18:	ae030004 	sw	v1,4(s0)
  105b1c:	acc50008 	sw	a1,8(a2)
  105b20:	0240202d 	move	a0,s2
  105b24:	1000ff31 	b	1057ec <_malloc_r+0xd4>
  105b28:	aca20004 	sw	v0,4(a1)
  105b2c:	0002103c 	dsll32	v0,v0,0x0
  105b30:	1000ffe4 	b	105ac4 <_malloc_r+0x3ac>
  105b34:	0002283e 	dsrl32	a1,v0,0x0
  105b38:	0002103c 	dsll32	v0,v0,0x0
  105b3c:	1000ffca 	b	105a68 <_malloc_r+0x350>
  105b40:	0002283e 	dsrl32	a1,v0,0x0
  105b44:	8c820004 	lw	v0,4(a0)
  105b48:	00431024 	and	v0,v0,v1
  105b4c:	1000ffa9 	b	1059f4 <_malloc_r+0x2dc>
  105b50:	ac820004 	sw	v0,4(a0)
  105b54:	8e0a000c 	lw	t2,12(s0)
  105b58:	8c620004 	lw	v0,4(v1)
  105b5c:	0240202d 	move	a0,s2
  105b60:	8e080008 	lw	t0,8(s0)
  105b64:	34420001 	ori	v0,v0,0x1
  105b68:	ac620004 	sw	v0,4(v1)
  105b6c:	ad480008 	sw	t0,8(t2)
  105b70:	1000ff1e 	b	1057ec <_malloc_r+0xd4>
  105b74:	ad0a000c 	sw	t2,12(t0)
  105b78:	8e080008 	lw	t0,8(s0)
  105b7c:	8e0a000c 	lw	t2,12(s0)
  105b80:	00a31825 	or	v1,a1,v1
  105b84:	3c020011 	lui	v0,0x11
  105b88:	02113821 	addu	a3,s0,s1
  105b8c:	0005303c 	dsll32	a2,a1,0x0
  105b90:	0006303f 	dsra32	a2,a2,0x0
  105b94:	24420cc0 	addiu	v0,v0,3264
  105b98:	0003183c 	dsll32	v1,v1,0x0
  105b9c:	0003183f 	dsra32	v1,v1,0x0
  105ba0:	36250001 	ori	a1,s1,0x1
  105ba4:	00e62021 	addu	a0,a3,a2
  105ba8:	ad480008 	sw	t0,8(t2)
  105bac:	ae050004 	sw	a1,4(s0)
  105bb0:	ad0a000c 	sw	t2,12(t0)
  105bb4:	ac470008 	sw	a3,8(v0)
  105bb8:	ace30004 	sw	v1,4(a3)
  105bbc:	ace20008 	sw	v0,8(a3)
  105bc0:	ac47000c 	sw	a3,12(v0)
  105bc4:	ac860000 	sw	a2,0(a0)
  105bc8:	0240202d 	move	a0,s2
  105bcc:	1000ff07 	b	1057ec <_malloc_r+0xd4>
  105bd0:	ace2000c 	sw	v0,12(a3)
  105bd4:	10600006 	beqz	v1,105bf0 <_malloc_r+0x4d8>
  105bd8:	000728c2 	srl	a1,a3,0x3
  105bdc:	2c620005 	sltiu	v0,v1,5
  105be0:	10400026 	beqz	v0,105c7c <_malloc_r+0x564>
  105be4:	2c620015 	sltiu	v0,v1,21
  105be8:	00071182 	srl	v0,a3,0x6
  105bec:	24450038 	addiu	a1,v0,56
  105bf0:	000510c0 	sll	v0,a1,0x3
  105bf4:	26860cb8 	addiu	a2,s4,3256
  105bf8:	00465021 	addu	t2,v0,a2
  105bfc:	8d480008 	lw	t0,8(t2)
  105c00:	110a0012 	beq	t0,t2,105c4c <_malloc_r+0x534>
  105c04:	2403fffc 	li	v1,-4
  105c08:	8d020004 	lw	v0,4(t0)
  105c0c:	00431024 	and	v0,v0,v1
  105c10:	00e2102b 	sltu	v0,a3,v0
  105c14:	5040000a 	beqzl	v0,105c40 <_malloc_r+0x528>
  105c18:	8d0a000c 	lw	t2,12(t0)
  105c1c:	8d080008 	lw	t0,8(t0)
  105c20:	510a0007 	beql	t0,t2,105c40 <_malloc_r+0x528>
  105c24:	8d0a000c 	lw	t2,12(t0)
  105c28:	8d020004 	lw	v0,4(t0)
  105c2c:	00431024 	and	v0,v0,v1
  105c30:	00e2102b 	sltu	v0,a3,v0
  105c34:	5440fffa 	bnezl	v0,105c20 <_malloc_r+0x508>
  105c38:	8d080008 	lw	t0,8(t0)
  105c3c:	8d0a000c 	lw	t2,12(t0)
  105c40:	ae0a000c 	sw	t2,12(s0)
  105c44:	1000ff1b 	b	1058b4 <_malloc_r+0x19c>
  105c48:	ad10000c 	sw	s0,12(t0)
  105c4c:	24a30003 	addiu	v1,a1,3
  105c50:	28a20000 	slti	v0,a1,0
  105c54:	0062280b 	movn	a1,v1,v0
  105c58:	24020001 	li	v0,1
  105c5c:	00052083 	sra	a0,a1,0x2
  105c60:	8cc30004 	lw	v1,4(a2)
  105c64:	00821014 	dsllv	v0,v0,a0
  105c68:	0002103c 	dsll32	v0,v0,0x0
  105c6c:	0002103f 	dsra32	v0,v0,0x0
  105c70:	00621825 	or	v1,v1,v0
  105c74:	1000fff2 	b	105c40 <_malloc_r+0x528>
  105c78:	acc30004 	sw	v1,4(a2)
  105c7c:	1440ffdc 	bnez	v0,105bf0 <_malloc_r+0x4d8>
  105c80:	2465005b 	addiu	a1,v1,91
  105c84:	2c620055 	sltiu	v0,v1,85
  105c88:	10400004 	beqz	v0,105c9c <_malloc_r+0x584>
  105c8c:	2c620155 	sltiu	v0,v1,341
  105c90:	00071302 	srl	v0,a3,0xc
  105c94:	1000ffd6 	b	105bf0 <_malloc_r+0x4d8>
  105c98:	2445006e 	addiu	a1,v0,110
  105c9c:	10400004 	beqz	v0,105cb0 <_malloc_r+0x598>
  105ca0:	2c620555 	sltiu	v0,v1,1365
  105ca4:	000713c2 	srl	v0,a3,0xf
  105ca8:	1000ffd1 	b	105bf0 <_malloc_r+0x4d8>
  105cac:	24450077 	addiu	a1,v0,119
  105cb0:	5040ffcf 	beqzl	v0,105bf0 <_malloc_r+0x4d8>
  105cb4:	2405007e 	li	a1,126
  105cb8:	00071482 	srl	v0,a3,0x12
  105cbc:	1000ffcc 	b	105bf0 <_malloc_r+0x4d8>
  105cc0:	2445007c 	addiu	a1,v0,124
  105cc4:	00000000 	nop
  105cc8:	0005303c 	dsll32	a2,a1,0x0
  105ccc:	0006303f 	dsra32	a2,a2,0x0
  105cd0:	24030001 	li	v1,1
  105cd4:	00e62021 	addu	a0,a3,a2
  105cd8:	00a31825 	or	v1,a1,v1
  105cdc:	3c020011 	lui	v0,0x11
  105ce0:	24420cc0 	addiu	v0,v0,3264
  105ce4:	0003183c 	dsll32	v1,v1,0x0
  105ce8:	0003183f 	dsra32	v1,v1,0x0
  105cec:	36250001 	ori	a1,s1,0x1
  105cf0:	ac860000 	sw	a2,0(a0)
  105cf4:	0240202d 	move	a0,s2
  105cf8:	ae050004 	sw	a1,4(s0)
  105cfc:	ac470008 	sw	a3,8(v0)
  105d00:	ace30004 	sw	v1,4(a3)
  105d04:	ac47000c 	sw	a3,12(v0)
  105d08:	1000ffb0 	b	105bcc <_malloc_r+0x4b4>
  105d0c:	ace20008 	sw	v0,8(a3)
  105d10:	0002103c 	dsll32	v0,v0,0x0
  105d14:	1000fec8 	b	105838 <_malloc_r+0x120>
  105d18:	0002283e 	dsrl32	a1,v0,0x0
  105d1c:	00000000 	nop
  105d20:	10600006 	beqz	v1,105d3c <_malloc_r+0x624>
  105d24:	001148c2 	srl	t1,s1,0x3
  105d28:	2c620005 	sltiu	v0,v1,5
  105d2c:	10400028 	beqz	v0,105dd0 <_malloc_r+0x6b8>
  105d30:	2c620015 	sltiu	v0,v1,21
  105d34:	00111182 	srl	v0,s1,0x6
  105d38:	24490038 	addiu	t1,v0,56
  105d3c:	3c140011 	lui	s4,0x11
  105d40:	000918c0 	sll	v1,t1,0x3
  105d44:	26820cb8 	addiu	v0,s4,3256
  105d48:	00623021 	addu	a2,v1,v0
  105d4c:	8cd0000c 	lw	s0,12(a2)
  105d50:	5206feab 	beql	s0,a2,105800 <_malloc_r+0xe8>
  105d54:	25290001 	addiu	t1,t1,1
  105d58:	2408fffc 	li	t0,-4
  105d5c:	8e020004 	lw	v0,4(s0)
  105d60:	00483824 	and	a3,v0,t0
  105d64:	02271823 	subu	v1,s1,a3
  105d68:	00f11023 	subu	v0,a3,s1
  105d6c:	0003183c 	dsll32	v1,v1,0x0
  105d70:	0002203c 	dsll32	a0,v0,0x0
  105d74:	0003183e 	dsrl32	v1,v1,0x0
  105d78:	00f1102b 	sltu	v0,a3,s1
  105d7c:	14400002 	bnez	v0,105d88 <_malloc_r+0x670>
  105d80:	0003282f 	dnegu	a1,v1
  105d84:	0004283e 	dsrl32	a1,a0,0x0
  105d88:	28a20010 	slti	v0,a1,16
  105d8c:	50400006 	beqzl	v0,105da8 <_malloc_r+0x690>
  105d90:	2529ffff 	addiu	t1,t1,-1
  105d94:	04a30006 	bgezl	a1,105db0 <_malloc_r+0x698>
  105d98:	02071821 	addu	v1,s0,a3
  105d9c:	8e10000c 	lw	s0,12(s0)
  105da0:	5606ffef 	bnel	s0,a2,105d60 <_malloc_r+0x648>
  105da4:	8e020004 	lw	v0,4(s0)
  105da8:	1000fe95 	b	105800 <_malloc_r+0xe8>
  105dac:	25290001 	addiu	t1,t1,1
  105db0:	8e0a000c 	lw	t2,12(s0)
  105db4:	8c620004 	lw	v0,4(v1)
  105db8:	0240202d 	move	a0,s2
  105dbc:	8e080008 	lw	t0,8(s0)
  105dc0:	34420001 	ori	v0,v0,0x1
  105dc4:	ad480008 	sw	t0,8(t2)
  105dc8:	1000ff69 	b	105b70 <_malloc_r+0x458>
  105dcc:	ac620004 	sw	v0,4(v1)
  105dd0:	1440ffda 	bnez	v0,105d3c <_malloc_r+0x624>
  105dd4:	2469005b 	addiu	t1,v1,91
  105dd8:	2c620055 	sltiu	v0,v1,85
  105ddc:	10400004 	beqz	v0,105df0 <_malloc_r+0x6d8>
  105de0:	2c620155 	sltiu	v0,v1,341
  105de4:	00111302 	srl	v0,s1,0xc
  105de8:	1000ffd4 	b	105d3c <_malloc_r+0x624>
  105dec:	2449006e 	addiu	t1,v0,110
  105df0:	10400004 	beqz	v0,105e04 <_malloc_r+0x6ec>
  105df4:	2c620555 	sltiu	v0,v1,1365
  105df8:	001113c2 	srl	v0,s1,0xf
  105dfc:	1000ffcf 	b	105d3c <_malloc_r+0x624>
  105e00:	24490077 	addiu	t1,v0,119
  105e04:	5040ffcd 	beqzl	v0,105d3c <_malloc_r+0x624>
  105e08:	2409007e 	li	t1,126
  105e0c:	00111482 	srl	v0,s1,0x12
  105e10:	1000ffca 	b	105d3c <_malloc_r+0x624>
  105e14:	2449007c 	addiu	t1,v0,124
  105e18:	1000fe4c 	b	10574c <_malloc_r+0x34>
  105e1c:	24110010 	li	s1,16

00105e20 <memchr>:
  105e20:	2cc20010 	sltiu	v0,a2,16
  105e24:	14400026 	bnez	v0,105ec0 <memchr+0xa0>
  105e28:	30a500ff 	andi	a1,a1,0xff
  105e2c:	3082000f 	andi	v0,a0,0xf
  105e30:	14400023 	bnez	v0,105ec0 <memchr+0xa0>
  105e34:	0080382d 	move	a3,a0
  105e38:	00051a38 	dsll	v1,a1,0x8
  105e3c:	3c020101 	lui	v0,0x101
  105e40:	34420101 	ori	v0,v0,0x101
  105e44:	00021438 	dsll	v0,v0,0x10
  105e48:	34420101 	ori	v0,v0,0x101
  105e4c:	00021438 	dsll	v0,v0,0x10
  105e50:	34420101 	ori	v0,v0,0x101
  105e54:	0065502d 	daddu	t2,v1,a1
  105e58:	3c038080 	lui	v1,0x8080
  105e5c:	34638080 	ori	v1,v1,0x8080
  105e60:	00031c38 	dsll	v1,v1,0x10
  105e64:	34638080 	ori	v1,v1,0x8080
  105e68:	00031c38 	dsll	v1,v1,0x10
  105e6c:	34638080 	ori	v1,v1,0x8080
  105e70:	700a46e9 	pcpyh	t0,t2
  105e74:	71084b89 	pcpyld	t1,t0,t0
  105e78:	0040202d 	move	a0,v0
  105e7c:	70634389 	pcpyld	t0,v1,v1
  105e80:	78e20000 	lq	v0,0(a3)
  105e84:	704914c9 	pxor	v0,v0,t1
  105e88:	70845389 	pcpyld	t2,a0,a0
  105e8c:	70021ce9 	pnor	v1,zero,v0
  105e90:	704a1248 	psubb	v0,v0,t2
  105e94:	70431489 	pand	v0,v0,v1
  105e98:	70481489 	pand	v0,v0,t0
  105e9c:	70491ba9 	pcpyud	v1,v0,t1
  105ea0:	00431025 	or	v0,v0,v1
  105ea4:	54400006 	bnezl	v0,105ec0 <memchr+0xa0>
  105ea8:	00e0202d 	move	a0,a3
  105eac:	24c6fff0 	addiu	a2,a2,-16
  105eb0:	2cc20010 	sltiu	v0,a2,16
  105eb4:	1040fff2 	beqz	v0,105e80 <memchr+0x60>
  105eb8:	24e70010 	addiu	a3,a3,16
  105ebc:	00e0202d 	move	a0,a3
  105ec0:	3c02ffff 	lui	v0,0xffff
  105ec4:	24c6ffff 	addiu	a2,a2,-1
  105ec8:	3442ffff 	ori	v0,v0,0xffff
  105ecc:	10c20008 	beq	a2,v0,105ef0 <memchr+0xd0>
  105ed0:	00000000 	nop
  105ed4:	3c03ffff 	lui	v1,0xffff
  105ed8:	3463ffff 	ori	v1,v1,0xffff
  105edc:	90820000 	lbu	v0,0(a0)
  105ee0:	10450005 	beq	v0,a1,105ef8 <memchr+0xd8>
  105ee4:	24c6ffff 	addiu	a2,a2,-1
  105ee8:	14c3fffc 	bne	a2,v1,105edc <memchr+0xbc>
  105eec:	24840001 	addiu	a0,a0,1
  105ef0:	03e00008 	jr	ra
  105ef4:	0000102d 	move	v0,zero
  105ef8:	03e00008 	jr	ra
  105efc:	0080102d 	move	v0,a0

00105f00 <memcpy>:
  105f00:	0080402d 	move	t0,a0
  105f04:	2cc20020 	sltiu	v0,a2,32
  105f08:	1440001c 	bnez	v0,105f7c <memcpy+0x7c>
  105f0c:	0100182d 	move	v1,t0
  105f10:	00a81025 	or	v0,a1,t0
  105f14:	3042000f 	andi	v0,v0,0xf
  105f18:	54400019 	bnezl	v0,105f80 <memcpy+0x80>
  105f1c:	24c6ffff 	addiu	a2,a2,-1
  105f20:	0100382d 	move	a3,t0
  105f24:	78a30000 	lq	v1,0(a1)
  105f28:	24c6ffe0 	addiu	a2,a2,-32
  105f2c:	24a50010 	addiu	a1,a1,16
  105f30:	2cc40020 	sltiu	a0,a2,32
  105f34:	7ce30000 	sq	v1,0(a3)
  105f38:	24e70010 	addiu	a3,a3,16
  105f3c:	78a20000 	lq	v0,0(a1)
  105f40:	24a50010 	addiu	a1,a1,16
  105f44:	7ce20000 	sq	v0,0(a3)
  105f48:	1080fff6 	beqz	a0,105f24 <memcpy+0x24>
  105f4c:	24e70010 	addiu	a3,a3,16
  105f50:	2cc20008 	sltiu	v0,a2,8
  105f54:	14400009 	bnez	v0,105f7c <memcpy+0x7c>
  105f58:	00e0182d 	move	v1,a3
  105f5c:	dca30000 	ld	v1,0(a1)
  105f60:	24c6fff8 	addiu	a2,a2,-8
  105f64:	24a50008 	addiu	a1,a1,8
  105f68:	2cc20008 	sltiu	v0,a2,8
  105f6c:	fce30000 	sd	v1,0(a3)
  105f70:	1040fffa 	beqz	v0,105f5c <memcpy+0x5c>
  105f74:	24e70008 	addiu	a3,a3,8
  105f78:	00e0182d 	move	v1,a3
  105f7c:	24c6ffff 	addiu	a2,a2,-1
  105f80:	2402ffff 	li	v0,-1
  105f84:	10c20008 	beq	a2,v0,105fa8 <memcpy+0xa8>
  105f88:	0040202d 	move	a0,v0
  105f8c:	90a20000 	lbu	v0,0(a1)
  105f90:	24c6ffff 	addiu	a2,a2,-1
  105f94:	24a50001 	addiu	a1,a1,1
  105f98:	a0620000 	sb	v0,0(v1)
  105f9c:	00000000 	nop
  105fa0:	14c4fffa 	bne	a2,a0,105f8c <memcpy+0x8c>
  105fa4:	24630001 	addiu	v1,v1,1
  105fa8:	03e00008 	jr	ra
  105fac:	0100102d 	move	v0,t0

00105fb0 <memmove>:
  105fb0:	0080402d 	move	t0,a0
  105fb4:	00a8102b 	sltu	v0,a1,t0
  105fb8:	10400013 	beqz	v0,106008 <memmove+0x58>
  105fbc:	0100182d 	move	v1,t0
  105fc0:	00a63821 	addu	a3,a1,a2
  105fc4:	0107102b 	sltu	v0,t0,a3
  105fc8:	1040000f 	beqz	v0,106008 <memmove+0x58>
  105fcc:	2402ffff 	li	v0,-1
  105fd0:	01061821 	addu	v1,t0,a2
  105fd4:	24c6ffff 	addiu	a2,a2,-1
  105fd8:	10c20034 	beq	a2,v0,1060ac <memmove+0xfc>
  105fdc:	00e0282d 	move	a1,a3
  105fe0:	0040202d 	move	a0,v0
  105fe4:	24a5ffff 	addiu	a1,a1,-1
  105fe8:	2463ffff 	addiu	v1,v1,-1
  105fec:	90a20000 	lbu	v0,0(a1)
  105ff0:	24c6ffff 	addiu	a2,a2,-1
  105ff4:	00000000 	nop
  105ff8:	14c4fffa 	bne	a2,a0,105fe4 <memmove+0x34>
  105ffc:	a0620000 	sb	v0,0(v1)
  106000:	03e00008 	jr	ra
  106004:	0100102d 	move	v0,t0
  106008:	2cc20020 	sltiu	v0,a2,32
  10600c:	5440001d 	bnezl	v0,106084 <memmove+0xd4>
  106010:	24c6ffff 	addiu	a2,a2,-1
  106014:	00a31025 	or	v0,a1,v1
  106018:	3042000f 	andi	v0,v0,0xf
  10601c:	54400019 	bnezl	v0,106084 <memmove+0xd4>
  106020:	24c6ffff 	addiu	a2,a2,-1
  106024:	0060382d 	move	a3,v1
  106028:	78a30000 	lq	v1,0(a1)
  10602c:	24c6ffe0 	addiu	a2,a2,-32
  106030:	24a50010 	addiu	a1,a1,16
  106034:	2cc40020 	sltiu	a0,a2,32
  106038:	7ce30000 	sq	v1,0(a3)
  10603c:	24e70010 	addiu	a3,a3,16
  106040:	78a20000 	lq	v0,0(a1)
  106044:	24a50010 	addiu	a1,a1,16
  106048:	7ce20000 	sq	v0,0(a3)
  10604c:	1080fff6 	beqz	a0,106028 <memmove+0x78>
  106050:	24e70010 	addiu	a3,a3,16
  106054:	2cc20008 	sltiu	v0,a2,8
  106058:	14400009 	bnez	v0,106080 <memmove+0xd0>
  10605c:	00e0182d 	move	v1,a3
  106060:	dca30000 	ld	v1,0(a1)
  106064:	24c6fff8 	addiu	a2,a2,-8
  106068:	24a50008 	addiu	a1,a1,8
  10606c:	2cc20008 	sltiu	v0,a2,8
  106070:	fce30000 	sd	v1,0(a3)
  106074:	1040fffa 	beqz	v0,106060 <memmove+0xb0>
  106078:	24e70008 	addiu	a3,a3,8
  10607c:	00e0182d 	move	v1,a3
  106080:	24c6ffff 	addiu	a2,a2,-1
  106084:	2402ffff 	li	v0,-1
  106088:	10c20008 	beq	a2,v0,1060ac <memmove+0xfc>
  10608c:	0040202d 	move	a0,v0
  106090:	90a20000 	lbu	v0,0(a1)
  106094:	24c6ffff 	addiu	a2,a2,-1
  106098:	24a50001 	addiu	a1,a1,1
  10609c:	a0620000 	sb	v0,0(v1)
  1060a0:	00000000 	nop
  1060a4:	14c4fffa 	bne	a2,a0,106090 <memmove+0xe0>
  1060a8:	24630001 	addiu	v1,v1,1
  1060ac:	03e00008 	jr	ra
  1060b0:	0100102d 	move	v0,t0

001060b4 <memset>:
  1060b4:	2cc20008 	sltiu	v0,a2,8
  1060b8:	1440001e 	bnez	v0,106134 <memset+0x80>
  1060bc:	0080182d 	move	v1,a0
  1060c0:	3082000f 	andi	v0,a0,0xf
  1060c4:	1440001b 	bnez	v0,106134 <memset+0x80>
  1060c8:	0080382d 	move	a3,a0
  1060cc:	30a900ff 	andi	t1,a1,0xff
  1060d0:	2cca0020 	sltiu	t2,a2,32
  1060d4:	0120402d 	move	t0,t1
  1060d8:	00081a38 	dsll	v1,t0,0x8
  1060dc:	00694025 	or	t0,v1,t1
  1060e0:	70081ee9 	pcpyh	v1,t0
  1060e4:	1540000e 	bnez	t2,106120 <memset+0x6c>
  1060e8:	2cc20008 	sltiu	v0,a2,8
  1060ec:	70634389 	pcpyld	t0,v1,v1
  1060f0:	7ce80000 	sq	t0,0(a3)
  1060f4:	24c6ffe0 	addiu	a2,a2,-32
  1060f8:	24e70010 	addiu	a3,a3,16
  1060fc:	2cc20020 	sltiu	v0,a2,32
  106100:	7ce80000 	sq	t0,0(a3)
  106104:	1040fffa 	beqz	v0,1060f0 <memset+0x3c>
  106108:	24e70010 	addiu	a3,a3,16
  10610c:	10000004 	b	106120 <memset+0x6c>
  106110:	2cc20008 	sltiu	v0,a2,8
  106114:	24c6fff8 	addiu	a2,a2,-8
  106118:	24e70008 	addiu	a3,a3,8
  10611c:	2cc20008 	sltiu	v0,a2,8
	...
  106128:	5040fffa 	beqzl	v0,106114 <memset+0x60>
  10612c:	fce30000 	sd	v1,0(a3)
  106130:	00e0182d 	move	v1,a3
  106134:	3c02ffff 	lui	v0,0xffff
  106138:	24c6ffff 	addiu	a2,a2,-1
  10613c:	3442ffff 	ori	v0,v0,0xffff
  106140:	10c2000a 	beq	a2,v0,10616c <memset+0xb8>
  106144:	00000000 	nop
  106148:	3c02ffff 	lui	v0,0xffff
  10614c:	3442ffff 	ori	v0,v0,0xffff
  106150:	a0650000 	sb	a1,0(v1)
  106154:	24c6ffff 	addiu	a2,a2,-1
	...
  106164:	14c2fffa 	bne	a2,v0,106150 <memset+0x9c>
  106168:	24630001 	addiu	v1,v1,1
  10616c:	03e00008 	jr	ra
  106170:	0080102d 	move	v0,a0
  106174:	00000000 	nop

00106178 <__malloc_lock>:
  106178:	03e00008 	jr	ra
  10617c:	00000000 	nop

00106180 <__malloc_unlock>:
  106180:	03e00008 	jr	ra
  106184:	00000000 	nop

00106188 <_Balloc>:
  106188:	27bdffd0 	addiu	sp,sp,-48
  10618c:	ffb10010 	sd	s1,16(sp)
  106190:	00a0882d 	move	s1,a1
  106194:	ffb00000 	sd	s0,0(sp)
  106198:	ffbf0020 	sd	ra,32(sp)
  10619c:	8c83004c 	lw	v1,76(a0)
  1061a0:	1060001d 	beqz	v1,106218 <_Balloc+0x90>
  1061a4:	0080802d 	move	s0,a0
  1061a8:	00111080 	sll	v0,s1,0x2
  1061ac:	00432021 	addu	a0,v0,v1
  1061b0:	8c830000 	lw	v1,0(a0)
  1061b4:	1060000c 	beqz	v1,1061e8 <_Balloc+0x60>
  1061b8:	24020001 	li	v0,1
  1061bc:	8c620000 	lw	v0,0(v1)
  1061c0:	ac820000 	sw	v0,0(a0)
  1061c4:	ac600010 	sw	zero,16(v1)
  1061c8:	0060202d 	move	a0,v1
  1061cc:	ac60000c 	sw	zero,12(v1)
  1061d0:	dfbf0020 	ld	ra,32(sp)
  1061d4:	0080102d 	move	v0,a0
  1061d8:	dfb10010 	ld	s1,16(sp)
  1061dc:	dfb00000 	ld	s0,0(sp)
  1061e0:	03e00008 	jr	ra
  1061e4:	27bd0030 	addiu	sp,sp,48
  1061e8:	0200202d 	move	a0,s0
  1061ec:	02228004 	sllv	s0,v0,s1
  1061f0:	24050001 	li	a1,1
  1061f4:	00103080 	sll	a2,s0,0x2
  1061f8:	0c041f24 	jal	107c90 <_calloc_r>
  1061fc:	24c60014 	addiu	a2,a2,20
  106200:	0000202d 	move	a0,zero
  106204:	1040fff2 	beqz	v0,1061d0 <_Balloc+0x48>
  106208:	0040182d 	move	v1,v0
  10620c:	ac510004 	sw	s1,4(v0)
  106210:	1000ffec 	b	1061c4 <_Balloc+0x3c>
  106214:	ac500008 	sw	s0,8(v0)
  106218:	24050004 	li	a1,4
  10621c:	0c041f24 	jal	107c90 <_calloc_r>
  106220:	24060010 	li	a2,16
  106224:	0000202d 	move	a0,zero
  106228:	1040ffe9 	beqz	v0,1061d0 <_Balloc+0x48>
  10622c:	ae02004c 	sw	v0,76(s0)
  106230:	1000ffdd 	b	1061a8 <_Balloc+0x20>
  106234:	0040182d 	move	v1,v0

00106238 <_Bfree>:
  106238:	10a00008 	beqz	a1,10625c <_Bfree+0x24>
  10623c:	00000000 	nop
  106240:	8ca20004 	lw	v0,4(a1)
  106244:	8c84004c 	lw	a0,76(a0)
  106248:	00021080 	sll	v0,v0,0x2
  10624c:	00441021 	addu	v0,v0,a0
  106250:	8c430000 	lw	v1,0(v0)
  106254:	aca30000 	sw	v1,0(a1)
  106258:	ac450000 	sw	a1,0(v0)
  10625c:	03e00008 	jr	ra
  106260:	00000000 	nop
  106264:	00000000 	nop

00106268 <_multadd>:
  106268:	27bdffa0 	addiu	sp,sp,-96
  10626c:	00c0482d 	move	t1,a2
  106270:	ffb40040 	sd	s4,64(sp)
  106274:	24a80014 	addiu	t0,a1,20
  106278:	ffb30030 	sd	s3,48(sp)
  10627c:	0080a02d 	move	s4,a0
  106280:	ffb10010 	sd	s1,16(sp)
  106284:	00a0982d 	move	s3,a1
  106288:	ffbf0050 	sd	ra,80(sp)
  10628c:	00e0882d 	move	s1,a3
  106290:	ffb20020 	sd	s2,32(sp)
  106294:	0000382d 	move	a3,zero
  106298:	ffb00000 	sd	s0,0(sp)
  10629c:	8cb20010 	lw	s2,16(a1)
  1062a0:	8d030000 	lw	v1,0(t0)
  1062a4:	24e70001 	addiu	a3,a3,1
  1062a8:	00f2302a 	slt	a2,a3,s2
  1062ac:	3064ffff 	andi	a0,v1,0xffff
  1062b0:	00031c02 	srl	v1,v1,0x10
  1062b4:	00891018 	mult	v0,a0,t1
  1062b8:	00512021 	addu	a0,v0,s1
  1062bc:	00691018 	mult	v0,v1,t1
  1062c0:	00042c02 	srl	a1,a0,0x10
  1062c4:	3084ffff 	andi	a0,a0,0xffff
  1062c8:	00451821 	addu	v1,v0,a1
  1062cc:	00031400 	sll	v0,v1,0x10
  1062d0:	00038c02 	srl	s1,v1,0x10
  1062d4:	00441021 	addu	v0,v0,a0
  1062d8:	ad020000 	sw	v0,0(t0)
  1062dc:	14c0fff0 	bnez	a2,1062a0 <_multadd+0x38>
  1062e0:	25080004 	addiu	t0,t0,4
  1062e4:	1220000b 	beqz	s1,106314 <_multadd+0xac>
  1062e8:	0260102d 	move	v0,s3
  1062ec:	8e620008 	lw	v0,8(s3)
  1062f0:	0242102a 	slt	v0,s2,v0
  1062f4:	5040000f 	beqzl	v0,106334 <_multadd+0xcc>
  1062f8:	8e650004 	lw	a1,4(s3)
  1062fc:	00121080 	sll	v0,s2,0x2
  106300:	26520001 	addiu	s2,s2,1
  106304:	00531021 	addu	v0,v0,s3
  106308:	ae720010 	sw	s2,16(s3)
  10630c:	ac510014 	sw	s1,20(v0)
  106310:	0260102d 	move	v0,s3
  106314:	dfbf0050 	ld	ra,80(sp)
  106318:	dfb40040 	ld	s4,64(sp)
  10631c:	dfb30030 	ld	s3,48(sp)
  106320:	dfb20020 	ld	s2,32(sp)
  106324:	dfb10010 	ld	s1,16(sp)
  106328:	dfb00000 	ld	s0,0(sp)
  10632c:	03e00008 	jr	ra
  106330:	27bd0060 	addiu	sp,sp,96
  106334:	0280202d 	move	a0,s4
  106338:	0c041862 	jal	106188 <_Balloc>
  10633c:	24a50001 	addiu	a1,a1,1
  106340:	2665000c 	addiu	a1,s3,12
  106344:	8e660010 	lw	a2,16(s3)
  106348:	2444000c 	addiu	a0,v0,12
  10634c:	0040802d 	move	s0,v0
  106350:	00063080 	sll	a2,a2,0x2
  106354:	0c0417c0 	jal	105f00 <memcpy>
  106358:	24c60008 	addiu	a2,a2,8
  10635c:	0260282d 	move	a1,s3
  106360:	0280202d 	move	a0,s4
  106364:	0c04188e 	jal	106238 <_Bfree>
  106368:	0200982d 	move	s3,s0
  10636c:	1000ffe4 	b	106300 <_multadd+0x98>
  106370:	00121080 	sll	v0,s2,0x2
  106374:	00000000 	nop

00106378 <_s2b>:
  106378:	24020009 	li	v0,9
  10637c:	24e30008 	addiu	v1,a3,8
  106380:	0062001a 	div	zero,v1,v0
  106384:	27bdff90 	addiu	sp,sp,-112
  106388:	ffb40040 	sd	s4,64(sp)
  10638c:	00e0a02d 	move	s4,a3
  106390:	24070001 	li	a3,1
  106394:	ffb50050 	sd	s5,80(sp)
  106398:	ffb30030 	sd	s3,48(sp)
  10639c:	0100a82d 	move	s5,t0
  1063a0:	ffb20020 	sd	s2,32(sp)
  1063a4:	00c0982d 	move	s3,a2
  1063a8:	ffb00000 	sd	s0,0(sp)
  1063ac:	0080902d 	move	s2,a0
  1063b0:	ffbf0060 	sd	ra,96(sp)
  1063b4:	00a0802d 	move	s0,a1
  1063b8:	ffb10010 	sd	s1,16(sp)
  1063bc:	0000282d 	move	a1,zero
  1063c0:	50400001 	beqzl	v0,1063c8 <_s2b+0x50>
  1063c4:	000001cd 	break	0x7
  1063c8:	00001812 	mflo	v1
  1063cc:	00e3102a 	slt	v0,a3,v1
  1063d0:	10400007 	beqz	v0,1063f0 <_s2b+0x78>
  1063d4:	0240202d 	move	a0,s2
  1063d8:	00073840 	sll	a3,a3,0x1
  1063dc:	24a50001 	addiu	a1,a1,1
  1063e0:	00e3102a 	slt	v0,a3,v1
  1063e4:	1440fffc 	bnez	v0,1063d8 <_s2b+0x60>
  1063e8:	00000000 	nop
  1063ec:	0240202d 	move	a0,s2
  1063f0:	0c041862 	jal	106188 <_Balloc>
  1063f4:	24110009 	li	s1,9
  1063f8:	2a63000a 	slti	v1,s3,10
  1063fc:	0040282d 	move	a1,v0
  106400:	ac550014 	sw	s5,20(v0)
  106404:	24020001 	li	v0,1
  106408:	14600024 	bnez	v1,10649c <_s2b+0x124>
  10640c:	aca20010 	sw	v0,16(a1)
  106410:	26100009 	addiu	s0,s0,9
  106414:	82070000 	lb	a3,0(s0)
  106418:	0240202d 	move	a0,s2
  10641c:	2406000a 	li	a2,10
  106420:	26310001 	addiu	s1,s1,1
  106424:	24e7ffd0 	addiu	a3,a3,-48
  106428:	0c04189a 	jal	106268 <_multadd>
  10642c:	26100001 	addiu	s0,s0,1
  106430:	0040282d 	move	a1,v0
  106434:	0233102a 	slt	v0,s1,s3
  106438:	5440fff7 	bnezl	v0,106418 <_s2b+0xa0>
  10643c:	82070000 	lb	a3,0(s0)
  106440:	26100001 	addiu	s0,s0,1
  106444:	0234102a 	slt	v0,s1,s4
  106448:	1040000a 	beqz	v0,106474 <_s2b+0xfc>
  10644c:	02918823 	subu	s1,s4,s1
  106450:	82070000 	lb	a3,0(s0)
  106454:	0240202d 	move	a0,s2
  106458:	2406000a 	li	a2,10
  10645c:	2631ffff 	addiu	s1,s1,-1
  106460:	24e7ffd0 	addiu	a3,a3,-48
  106464:	0c04189a 	jal	106268 <_multadd>
  106468:	26100001 	addiu	s0,s0,1
  10646c:	1620fff8 	bnez	s1,106450 <_s2b+0xd8>
  106470:	0040282d 	move	a1,v0
  106474:	dfbf0060 	ld	ra,96(sp)
  106478:	00a0102d 	move	v0,a1
  10647c:	dfb50050 	ld	s5,80(sp)
  106480:	dfb40040 	ld	s4,64(sp)
  106484:	dfb30030 	ld	s3,48(sp)
  106488:	dfb20020 	ld	s2,32(sp)
  10648c:	dfb10010 	ld	s1,16(sp)
  106490:	dfb00000 	ld	s0,0(sp)
  106494:	03e00008 	jr	ra
  106498:	27bd0070 	addiu	sp,sp,112
  10649c:	1000ffe9 	b	106444 <_s2b+0xcc>
  1064a0:	2610000a 	addiu	s0,s0,10
  1064a4:	00000000 	nop

001064a8 <_hi0bits>:
  1064a8:	3c02ffff 	lui	v0,0xffff
  1064ac:	00821024 	and	v0,a0,v0
  1064b0:	14400003 	bnez	v0,1064c0 <_hi0bits+0x18>
  1064b4:	0000182d 	move	v1,zero
  1064b8:	24030010 	li	v1,16
  1064bc:	00042400 	sll	a0,a0,0x10
  1064c0:	3c02ff00 	lui	v0,0xff00
  1064c4:	00821024 	and	v0,a0,v0
  1064c8:	14400003 	bnez	v0,1064d8 <_hi0bits+0x30>
  1064cc:	3c02f000 	lui	v0,0xf000
  1064d0:	24630008 	addiu	v1,v1,8
  1064d4:	00042200 	sll	a0,a0,0x8
  1064d8:	00821024 	and	v0,a0,v0
  1064dc:	14400003 	bnez	v0,1064ec <_hi0bits+0x44>
  1064e0:	3c02c000 	lui	v0,0xc000
  1064e4:	24630004 	addiu	v1,v1,4
  1064e8:	00042100 	sll	a0,a0,0x4
  1064ec:	00821024 	and	v0,a0,v0
  1064f0:	14400003 	bnez	v0,106500 <_hi0bits+0x58>
  1064f4:	00000000 	nop
  1064f8:	24630002 	addiu	v1,v1,2
  1064fc:	00042080 	sll	a0,a0,0x2
  106500:	04820007 	bltzl	a0,106520 <_hi0bits+0x78>
  106504:	0060202d 	move	a0,v1
  106508:	3c024000 	lui	v0,0x4000
  10650c:	24630001 	addiu	v1,v1,1
  106510:	00821024 	and	v0,a0,v0
  106514:	10400002 	beqz	v0,106520 <_hi0bits+0x78>
  106518:	24040020 	li	a0,32
  10651c:	0060202d 	move	a0,v1
  106520:	03e00008 	jr	ra
  106524:	0080102d 	move	v0,a0

00106528 <_lo0bits>:
  106528:	8c830000 	lw	v1,0(a0)
  10652c:	30620007 	andi	v0,v1,0x7
  106530:	1040000f 	beqz	v0,106570 <_lo0bits+0x48>
  106534:	3062ffff 	andi	v0,v1,0xffff
  106538:	30620001 	andi	v0,v1,0x1
  10653c:	14400007 	bnez	v0,10655c <_lo0bits+0x34>
  106540:	0000282d 	move	a1,zero
  106544:	30620002 	andi	v0,v1,0x2
  106548:	50400007 	beqzl	v0,106568 <_lo0bits+0x40>
  10654c:	00031082 	srl	v0,v1,0x2
  106550:	00031042 	srl	v0,v1,0x1
  106554:	24050001 	li	a1,1
  106558:	ac820000 	sw	v0,0(a0)
  10655c:	03e00008 	jr	ra
  106560:	00a0102d 	move	v0,a1
  106564:	00000000 	nop
  106568:	1000fffb 	b	106558 <_lo0bits+0x30>
  10656c:	24050002 	li	a1,2
  106570:	14400003 	bnez	v0,106580 <_lo0bits+0x58>
  106574:	0000302d 	move	a2,zero
  106578:	24060010 	li	a2,16
  10657c:	00031c02 	srl	v1,v1,0x10
  106580:	306200ff 	andi	v0,v1,0xff
  106584:	14400004 	bnez	v0,106598 <_lo0bits+0x70>
  106588:	3062000f 	andi	v0,v1,0xf
  10658c:	24c60008 	addiu	a2,a2,8
  106590:	00031a02 	srl	v1,v1,0x8
  106594:	3062000f 	andi	v0,v1,0xf
  106598:	14400004 	bnez	v0,1065ac <_lo0bits+0x84>
  10659c:	30620003 	andi	v0,v1,0x3
  1065a0:	24c60004 	addiu	a2,a2,4
  1065a4:	00031902 	srl	v1,v1,0x4
  1065a8:	30620003 	andi	v0,v1,0x3
  1065ac:	14400004 	bnez	v0,1065c0 <_lo0bits+0x98>
  1065b0:	30620001 	andi	v0,v1,0x1
  1065b4:	24c60002 	addiu	a2,a2,2
  1065b8:	00031882 	srl	v1,v1,0x2
  1065bc:	30620001 	andi	v0,v1,0x1
  1065c0:	54400006 	bnezl	v0,1065dc <_lo0bits+0xb4>
  1065c4:	ac830000 	sw	v1,0(a0)
  1065c8:	00031842 	srl	v1,v1,0x1
  1065cc:	24c60001 	addiu	a2,a2,1
  1065d0:	1060ffe2 	beqz	v1,10655c <_lo0bits+0x34>
  1065d4:	24050020 	li	a1,32
  1065d8:	ac830000 	sw	v1,0(a0)
  1065dc:	1000ffdf 	b	10655c <_lo0bits+0x34>
  1065e0:	00c0282d 	move	a1,a2
  1065e4:	00000000 	nop

001065e8 <_i2b>:
  1065e8:	27bdffe0 	addiu	sp,sp,-32
  1065ec:	ffb00000 	sd	s0,0(sp)
  1065f0:	00a0802d 	move	s0,a1
  1065f4:	ffbf0010 	sd	ra,16(sp)
  1065f8:	0c041862 	jal	106188 <_Balloc>
  1065fc:	24050001 	li	a1,1
  106600:	dfbf0010 	ld	ra,16(sp)
  106604:	ac500014 	sw	s0,20(v0)
  106608:	24030001 	li	v1,1
  10660c:	dfb00000 	ld	s0,0(sp)
  106610:	ac430010 	sw	v1,16(v0)
  106614:	03e00008 	jr	ra
  106618:	27bd0020 	addiu	sp,sp,32
  10661c:	00000000 	nop

00106620 <_multiply>:
  106620:	27bdff90 	addiu	sp,sp,-112
  106624:	ffb40040 	sd	s4,64(sp)
  106628:	00c0a02d 	move	s4,a2
  10662c:	ffb00000 	sd	s0,0(sp)
  106630:	ffbf0060 	sd	ra,96(sp)
  106634:	ffb50050 	sd	s5,80(sp)
  106638:	ffb30030 	sd	s3,48(sp)
  10663c:	ffb20020 	sd	s2,32(sp)
  106640:	ffb10010 	sd	s1,16(sp)
  106644:	8cb30010 	lw	s3,16(a1)
  106648:	8cd20010 	lw	s2,16(a2)
  10664c:	0272102a 	slt	v0,s3,s2
  106650:	10400005 	beqz	v0,106668 <_multiply+0x48>
  106654:	00a0802d 	move	s0,a1
  106658:	8cd30010 	lw	s3,16(a2)
  10665c:	00c0802d 	move	s0,a2
  106660:	8cb20010 	lw	s2,16(a1)
  106664:	00a0a02d 	move	s4,a1
  106668:	8e020008 	lw	v0,8(s0)
  10666c:	02728821 	addu	s1,s3,s2
  106670:	8e050004 	lw	a1,4(s0)
  106674:	0011a880 	sll	s5,s1,0x2
  106678:	0051102a 	slt	v0,v0,s1
  10667c:	0c041862 	jal	106188 <_Balloc>
  106680:	00a22821 	addu	a1,a1,v0
  106684:	24580014 	addiu	t8,v0,20
  106688:	0040c82d 	move	t9,v0
  10668c:	03157821 	addu	t7,t8,s5
  106690:	030f102b 	sltu	v0,t8,t7
  106694:	10400007 	beqz	v0,1066b4 <_multiply+0x94>
  106698:	0300482d 	move	t1,t8
  10669c:	00000000 	nop
  1066a0:	ad200000 	sw	zero,0(t1)
  1066a4:	25290004 	addiu	t1,t1,4
  1066a8:	012f102b 	sltu	v0,t1,t7
  1066ac:	1440fffc 	bnez	v0,1066a0 <_multiply+0x80>
  1066b0:	00000000 	nop
  1066b4:	268c0014 	addiu	t4,s4,20
  1066b8:	00121080 	sll	v0,s2,0x2
  1066bc:	01829021 	addu	s2,t4,v0
  1066c0:	260f0014 	addiu	t7,s0,20
  1066c4:	00131080 	sll	v0,s3,0x2
  1066c8:	0192182b 	sltu	v1,t4,s2
  1066cc:	01e26821 	addu	t5,t7,v0
  1066d0:	10600040 	beqz	v1,1067d4 <_multiply+0x1b4>
  1066d4:	0300702d 	move	t6,t8
  1066d8:	8d820000 	lw	v0,0(t4)
  1066dc:	304bffff 	andi	t3,v0,0xffff
  1066e0:	5160001c 	beqzl	t3,106754 <_multiply+0x134>
  1066e4:	00025c02 	srl	t3,v0,0x10
  1066e8:	01e0482d 	move	t1,t7
  1066ec:	01c0402d 	move	t0,t6
  1066f0:	0000502d 	move	t2,zero
  1066f4:	00000000 	nop
  1066f8:	8d240000 	lw	a0,0(t1)
  1066fc:	25290004 	addiu	t1,t1,4
  106700:	8d020000 	lw	v0,0(t0)
  106704:	012d302b 	sltu	a2,t1,t5
  106708:	3083ffff 	andi	v1,a0,0xffff
  10670c:	00042402 	srl	a0,a0,0x10
  106710:	006b3818 	mult	a3,v1,t3
  106714:	3045ffff 	andi	a1,v0,0xffff
  106718:	00021402 	srl	v0,v0,0x10
  10671c:	00e51821 	addu	v1,a3,a1
  106720:	008b2818 	mult	a1,a0,t3
  106724:	00a22021 	addu	a0,a1,v0
  106728:	006a1021 	addu	v0,v1,t2
  10672c:	00025402 	srl	t2,v0,0x10
  106730:	a5020000 	sh	v0,0(t0)
  106734:	008a3821 	addu	a3,a0,t2
  106738:	a5070002 	sh	a3,2(t0)
  10673c:	00075402 	srl	t2,a3,0x10
  106740:	14c0ffed 	bnez	a2,1066f8 <_multiply+0xd8>
  106744:	25080004 	addiu	t0,t0,4
  106748:	ad0a0000 	sw	t2,0(t0)
  10674c:	8d820000 	lw	v0,0(t4)
  106750:	00025c02 	srl	t3,v0,0x10
  106754:	5160001c 	beqzl	t3,1067c8 <_multiply+0x1a8>
  106758:	258c0004 	addiu	t4,t4,4
  10675c:	8dc70000 	lw	a3,0(t6)
  106760:	01c0402d 	move	t0,t6
  106764:	01e0482d 	move	t1,t7
  106768:	0000502d 	move	t2,zero
  10676c:	00e0102d 	move	v0,a3
  106770:	8d240000 	lw	a0,0(t1)
  106774:	00021c02 	srl	v1,v0,0x10
  106778:	a5070000 	sh	a3,0(t0)
  10677c:	25290004 	addiu	t1,t1,4
  106780:	3082ffff 	andi	v0,a0,0xffff
  106784:	00042402 	srl	a0,a0,0x10
  106788:	004b2818 	mult	a1,v0,t3
  10678c:	008b3018 	mult	a2,a0,t3
  106790:	00a31021 	addu	v0,a1,v1
  106794:	012d282b 	sltu	a1,t1,t5
  106798:	004a1021 	addu	v0,v0,t2
  10679c:	a5020002 	sh	v0,2(t0)
  1067a0:	00025402 	srl	t2,v0,0x10
  1067a4:	25080004 	addiu	t0,t0,4
  1067a8:	8d020000 	lw	v0,0(t0)
  1067ac:	3043ffff 	andi	v1,v0,0xffff
  1067b0:	00c32021 	addu	a0,a2,v1
  1067b4:	008a3821 	addu	a3,a0,t2
  1067b8:	14a0ffed 	bnez	a1,106770 <_multiply+0x150>
  1067bc:	00075402 	srl	t2,a3,0x10
  1067c0:	ad070000 	sw	a3,0(t0)
  1067c4:	258c0004 	addiu	t4,t4,4
  1067c8:	0192102b 	sltu	v0,t4,s2
  1067cc:	1440ffc2 	bnez	v0,1066d8 <_multiply+0xb8>
  1067d0:	25ce0004 	addiu	t6,t6,4
  1067d4:	1a20000b 	blez	s1,106804 <_multiply+0x1e4>
  1067d8:	03154021 	addu	t0,t8,s5
  1067dc:	2508fffc 	addiu	t0,t0,-4
  1067e0:	8d020000 	lw	v0,0(t0)
  1067e4:	54400008 	bnezl	v0,106808 <_multiply+0x1e8>
  1067e8:	af310010 	sw	s1,16(t9)
  1067ec:	2631ffff 	addiu	s1,s1,-1
  1067f0:	1a200004 	blez	s1,106804 <_multiply+0x1e4>
  1067f4:	2508fffc 	addiu	t0,t0,-4
  1067f8:	8d020000 	lw	v0,0(t0)
  1067fc:	5040fffc 	beqzl	v0,1067f0 <_multiply+0x1d0>
  106800:	2631ffff 	addiu	s1,s1,-1
  106804:	af310010 	sw	s1,16(t9)
  106808:	0320102d 	move	v0,t9
  10680c:	dfbf0060 	ld	ra,96(sp)
  106810:	dfb50050 	ld	s5,80(sp)
  106814:	dfb40040 	ld	s4,64(sp)
  106818:	dfb30030 	ld	s3,48(sp)
  10681c:	dfb20020 	ld	s2,32(sp)
  106820:	dfb10010 	ld	s1,16(sp)
  106824:	dfb00000 	ld	s0,0(sp)
  106828:	03e00008 	jr	ra
  10682c:	27bd0070 	addiu	sp,sp,112

00106830 <_pow5mult>:
  106830:	27bdffa0 	addiu	sp,sp,-96
  106834:	30c30003 	andi	v1,a2,0x3
  106838:	ffb40040 	sd	s4,64(sp)
  10683c:	0080a02d 	move	s4,a0
  106840:	ffb30030 	sd	s3,48(sp)
  106844:	00a0982d 	move	s3,a1
  106848:	ffb20020 	sd	s2,32(sp)
  10684c:	00c0902d 	move	s2,a2
  106850:	ffbf0050 	sd	ra,80(sp)
  106854:	ffb10010 	sd	s1,16(sp)
  106858:	14600033 	bnez	v1,106928 <_pow5mult+0xf8>
  10685c:	ffb00000 	sd	s0,0(sp)
  106860:	00129083 	sra	s2,s2,0x2
  106864:	12400019 	beqz	s2,1068cc <_pow5mult+0x9c>
  106868:	0260102d 	move	v0,s3
  10686c:	8e910048 	lw	s1,72(s4)
  106870:	12200027 	beqz	s1,106910 <_pow5mult+0xe0>
  106874:	0280202d 	move	a0,s4
  106878:	32420001 	andi	v0,s2,0x1
  10687c:	0220302d 	move	a2,s1
  106880:	0280202d 	move	a0,s4
  106884:	0260282d 	move	a1,s3
  106888:	14400019 	bnez	v0,1068f0 <_pow5mult+0xc0>
  10688c:	00129043 	sra	s2,s2,0x1
  106890:	0220282d 	move	a1,s1
  106894:	0220302d 	move	a2,s1
  106898:	1240000b 	beqz	s2,1068c8 <_pow5mult+0x98>
  10689c:	0280202d 	move	a0,s4
  1068a0:	8e220000 	lw	v0,0(s1)
  1068a4:	10400003 	beqz	v0,1068b4 <_pow5mult+0x84>
  1068a8:	00000000 	nop
  1068ac:	1000fff2 	b	106878 <_pow5mult+0x48>
  1068b0:	0040882d 	move	s1,v0
  1068b4:	0c041988 	jal	106620 <_multiply>
  1068b8:	00000000 	nop
  1068bc:	ae220000 	sw	v0,0(s1)
  1068c0:	1000fffa 	b	1068ac <_pow5mult+0x7c>
  1068c4:	ac400000 	sw	zero,0(v0)
  1068c8:	0260102d 	move	v0,s3
  1068cc:	dfbf0050 	ld	ra,80(sp)
  1068d0:	dfb40040 	ld	s4,64(sp)
  1068d4:	dfb30030 	ld	s3,48(sp)
  1068d8:	dfb20020 	ld	s2,32(sp)
  1068dc:	dfb10010 	ld	s1,16(sp)
  1068e0:	dfb00000 	ld	s0,0(sp)
  1068e4:	03e00008 	jr	ra
  1068e8:	27bd0060 	addiu	sp,sp,96
  1068ec:	00000000 	nop
  1068f0:	0c041988 	jal	106620 <_multiply>
  1068f4:	00000000 	nop
  1068f8:	0260282d 	move	a1,s3
  1068fc:	0040802d 	move	s0,v0
  106900:	0c04188e 	jal	106238 <_Bfree>
  106904:	0280202d 	move	a0,s4
  106908:	1000ffe1 	b	106890 <_pow5mult+0x60>
  10690c:	0200982d 	move	s3,s0
  106910:	0c04197a 	jal	1065e8 <_i2b>
  106914:	24050271 	li	a1,625
  106918:	ae820048 	sw	v0,72(s4)
  10691c:	0040882d 	move	s1,v0
  106920:	1000ffd5 	b	106878 <_pow5mult+0x48>
  106924:	ac400000 	sw	zero,0(v0)
  106928:	3c020011 	lui	v0,0x11
  10692c:	00031880 	sll	v1,v1,0x2
  106930:	2442f838 	addiu	v0,v0,-1992
  106934:	0000382d 	move	a3,zero
  106938:	00621821 	addu	v1,v1,v0
  10693c:	0c04189a 	jal	106268 <_multadd>
  106940:	8c66fffc 	lw	a2,-4(v1)
  106944:	1000ffc6 	b	106860 <_pow5mult+0x30>
  106948:	0040982d 	move	s3,v0
  10694c:	00000000 	nop

00106950 <_lshift>:
  106950:	27bdff90 	addiu	sp,sp,-112
  106954:	ffb50050 	sd	s5,80(sp)
  106958:	0080a82d 	move	s5,a0
  10695c:	ffb30030 	sd	s3,48(sp)
  106960:	00a0982d 	move	s3,a1
  106964:	ffb20020 	sd	s2,32(sp)
  106968:	ffb10010 	sd	s1,16(sp)
  10696c:	00068943 	sra	s1,a2,0x5
  106970:	ffb00000 	sd	s0,0(sp)
  106974:	00c0802d 	move	s0,a2
  106978:	ffbf0060 	sd	ra,96(sp)
  10697c:	ffb40040 	sd	s4,64(sp)
  106980:	8ca30010 	lw	v1,16(a1)
  106984:	8ca60008 	lw	a2,8(a1)
  106988:	02231821 	addu	v1,s1,v1
  10698c:	24720001 	addiu	s2,v1,1
  106990:	00d2102a 	slt	v0,a2,s2
  106994:	10400007 	beqz	v0,1069b4 <_lshift+0x64>
  106998:	8ca50004 	lw	a1,4(a1)
  10699c:	00000000 	nop
  1069a0:	00063040 	sll	a2,a2,0x1
  1069a4:	24a50001 	addiu	a1,a1,1
  1069a8:	00d2102a 	slt	v0,a2,s2
  1069ac:	1440fffc 	bnez	v0,1069a0 <_lshift+0x50>
  1069b0:	00000000 	nop
  1069b4:	0c041862 	jal	106188 <_Balloc>
  1069b8:	02a0202d 	move	a0,s5
  1069bc:	0040a02d 	move	s4,v0
  1069c0:	1a200008 	blez	s1,1069e4 <_lshift+0x94>
  1069c4:	24470014 	addiu	a3,v0,20
  1069c8:	0220302d 	move	a2,s1
  1069cc:	00000000 	nop
  1069d0:	24c6ffff 	addiu	a2,a2,-1
  1069d4:	ace00000 	sw	zero,0(a3)
  1069d8:	24e70004 	addiu	a3,a3,4
  1069dc:	14c0fffc 	bnez	a2,1069d0 <_lshift+0x80>
  1069e0:	00000000 	nop
  1069e4:	8e620010 	lw	v0,16(s3)
  1069e8:	26640014 	addiu	a0,s3,20
  1069ec:	3210001f 	andi	s0,s0,0x1f
  1069f0:	00021080 	sll	v0,v0,0x2
  1069f4:	12000020 	beqz	s0,106a78 <_lshift+0x128>
  1069f8:	00823021 	addu	a2,a0,v0
  1069fc:	24020020 	li	v0,32
  106a00:	0000182d 	move	v1,zero
  106a04:	00502823 	subu	a1,v0,s0
  106a08:	8c820000 	lw	v0,0(a0)
  106a0c:	02021004 	sllv	v0,v0,s0
  106a10:	00431025 	or	v0,v0,v1
  106a14:	ace20000 	sw	v0,0(a3)
  106a18:	24e70004 	addiu	a3,a3,4
  106a1c:	8c830000 	lw	v1,0(a0)
  106a20:	24840004 	addiu	a0,a0,4
  106a24:	0086102b 	sltu	v0,a0,a2
  106a28:	1440fff7 	bnez	v0,106a08 <_lshift+0xb8>
  106a2c:	00a31806 	srlv	v1,v1,a1
  106a30:	10600002 	beqz	v1,106a3c <_lshift+0xec>
  106a34:	ace30000 	sw	v1,0(a3)
  106a38:	26520001 	addiu	s2,s2,1
  106a3c:	2642ffff 	addiu	v0,s2,-1
  106a40:	02a0202d 	move	a0,s5
  106a44:	ae820010 	sw	v0,16(s4)
  106a48:	0c04188e 	jal	106238 <_Bfree>
  106a4c:	0260282d 	move	a1,s3
  106a50:	dfb00000 	ld	s0,0(sp)
  106a54:	0280102d 	move	v0,s4
  106a58:	dfbf0060 	ld	ra,96(sp)
  106a5c:	dfb50050 	ld	s5,80(sp)
  106a60:	dfb40040 	ld	s4,64(sp)
  106a64:	dfb30030 	ld	s3,48(sp)
  106a68:	dfb20020 	ld	s2,32(sp)
  106a6c:	dfb10010 	ld	s1,16(sp)
  106a70:	03e00008 	jr	ra
  106a74:	27bd0070 	addiu	sp,sp,112
  106a78:	8c820000 	lw	v0,0(a0)
  106a7c:	24840004 	addiu	a0,a0,4
  106a80:	0086182b 	sltu	v1,a0,a2
  106a84:	ace20000 	sw	v0,0(a3)
  106a88:	24e70004 	addiu	a3,a3,4
  106a8c:	1460fffa 	bnez	v1,106a78 <_lshift+0x128>
  106a90:	00000000 	nop
  106a94:	1000ffea 	b	106a40 <_lshift+0xf0>
  106a98:	2642ffff 	addiu	v0,s2,-1
  106a9c:	00000000 	nop

00106aa0 <__mcmp>:
  106aa0:	8c820010 	lw	v0,16(a0)
  106aa4:	8ca30010 	lw	v1,16(a1)
  106aa8:	00431023 	subu	v0,v0,v1
  106aac:	14400013 	bnez	v0,106afc <__mcmp+0x5c>
  106ab0:	0040402d 	move	t0,v0
  106ab4:	00031880 	sll	v1,v1,0x2
  106ab8:	248a0014 	addiu	t2,a0,20
  106abc:	24a20014 	addiu	v0,a1,20
  106ac0:	01433021 	addu	a2,t2,v1
  106ac4:	00433821 	addu	a3,v0,v1
  106ac8:	24c6fffc 	addiu	a2,a2,-4
  106acc:	24e7fffc 	addiu	a3,a3,-4
  106ad0:	8cc50000 	lw	a1,0(a2)
  106ad4:	2408ffff 	li	t0,-1
  106ad8:	8ce40000 	lw	a0,0(a3)
  106adc:	24020001 	li	v0,1
  106ae0:	0146482b 	sltu	t1,t2,a2
  106ae4:	00a4182b 	sltu	v1,a1,a0
  106ae8:	14a40004 	bne	a1,a0,106afc <__mcmp+0x5c>
  106aec:	0043400a 	movz	t0,v0,v1
  106af0:	5520fff6 	bnezl	t1,106acc <__mcmp+0x2c>
  106af4:	24c6fffc 	addiu	a2,a2,-4
  106af8:	0000402d 	move	t0,zero
  106afc:	03e00008 	jr	ra
  106b00:	0100102d 	move	v0,t0
  106b04:	00000000 	nop

00106b08 <__mdiff>:
  106b08:	27bdffb0 	addiu	sp,sp,-80
  106b0c:	ffb10010 	sd	s1,16(sp)
  106b10:	00a0882d 	move	s1,a1
  106b14:	ffb30030 	sd	s3,48(sp)
  106b18:	00c0282d 	move	a1,a2
  106b1c:	0080982d 	move	s3,a0
  106b20:	ffb20020 	sd	s2,32(sp)
  106b24:	0220202d 	move	a0,s1
  106b28:	ffbf0040 	sd	ra,64(sp)
  106b2c:	ffb00000 	sd	s0,0(sp)
  106b30:	0c041aa8 	jal	106aa0 <__mcmp>
  106b34:	00c0902d 	move	s2,a2
  106b38:	1040004d 	beqz	v0,106c70 <__mdiff+0x168>
  106b3c:	0260202d 	move	a0,s3
  106b40:	04400047 	bltz	v0,106c60 <__mdiff+0x158>
  106b44:	0220602d 	move	t4,s1
  106b48:	0000802d 	move	s0,zero
  106b4c:	8e250004 	lw	a1,4(s1)
  106b50:	0c041862 	jal	106188 <_Balloc>
  106b54:	0260202d 	move	a0,s3
  106b58:	26460014 	addiu	a2,s2,20
  106b5c:	0040602d 	move	t4,v0
  106b60:	8e2a0010 	lw	t2,16(s1)
  106b64:	8e420010 	lw	v0,16(s2)
  106b68:	26280014 	addiu	t0,s1,20
  106b6c:	000a1880 	sll	v1,t2,0x2
  106b70:	ad90000c 	sw	s0,12(t4)
  106b74:	00021080 	sll	v0,v0,0x2
  106b78:	0000482d 	move	t1,zero
  106b7c:	01036821 	addu	t5,t0,v1
  106b80:	00c25821 	addu	t3,a2,v0
  106b84:	25870014 	addiu	a3,t4,20
  106b88:	8d040000 	lw	a0,0(t0)
  106b8c:	25080004 	addiu	t0,t0,4
  106b90:	8cc20000 	lw	v0,0(a2)
  106b94:	24c60004 	addiu	a2,a2,4
  106b98:	3083ffff 	andi	v1,a0,0xffff
  106b9c:	00042402 	srl	a0,a0,0x10
  106ba0:	3045ffff 	andi	a1,v0,0xffff
  106ba4:	00021402 	srl	v0,v0,0x10
  106ba8:	00651823 	subu	v1,v1,a1
  106bac:	00822023 	subu	a0,a0,v0
  106bb0:	00691821 	addu	v1,v1,t1
  106bb4:	00cb102b 	sltu	v0,a2,t3
  106bb8:	00034c03 	sra	t1,v1,0x10
  106bbc:	a4e30000 	sh	v1,0(a3)
  106bc0:	00891821 	addu	v1,a0,t1
  106bc4:	a4e30002 	sh	v1,2(a3)
  106bc8:	00034c03 	sra	t1,v1,0x10
  106bcc:	1440ffee 	bnez	v0,106b88 <__mdiff+0x80>
  106bd0:	24e70004 	addiu	a3,a3,4
  106bd4:	010d102b 	sltu	v0,t0,t5
  106bd8:	5040000f 	beqzl	v0,106c18 <__mdiff+0x110>
  106bdc:	24e7fffc 	addiu	a3,a3,-4
  106be0:	8d020000 	lw	v0,0(t0)
  106be4:	25080004 	addiu	t0,t0,4
  106be8:	010d202b 	sltu	a0,t0,t5
  106bec:	3043ffff 	andi	v1,v0,0xffff
  106bf0:	00021402 	srl	v0,v0,0x10
  106bf4:	00691821 	addu	v1,v1,t1
  106bf8:	00034c03 	sra	t1,v1,0x10
  106bfc:	a4e30000 	sh	v1,0(a3)
  106c00:	00491821 	addu	v1,v0,t1
  106c04:	a4e30002 	sh	v1,2(a3)
  106c08:	00034c03 	sra	t1,v1,0x10
  106c0c:	1480fff4 	bnez	a0,106be0 <__mdiff+0xd8>
  106c10:	24e70004 	addiu	a3,a3,4
  106c14:	24e7fffc 	addiu	a3,a3,-4
  106c18:	8ce20000 	lw	v0,0(a3)
  106c1c:	54400008 	bnezl	v0,106c40 <__mdiff+0x138>
  106c20:	ad8a0010 	sw	t2,16(t4)
  106c24:	00000000 	nop
  106c28:	24e7fffc 	addiu	a3,a3,-4
  106c2c:	254affff 	addiu	t2,t2,-1
  106c30:	8ce20000 	lw	v0,0(a3)
  106c34:	1040fffc 	beqz	v0,106c28 <__mdiff+0x120>
  106c38:	00000000 	nop
  106c3c:	ad8a0010 	sw	t2,16(t4)
  106c40:	dfbf0040 	ld	ra,64(sp)
  106c44:	0180102d 	move	v0,t4
  106c48:	dfb30030 	ld	s3,48(sp)
  106c4c:	dfb20020 	ld	s2,32(sp)
  106c50:	dfb10010 	ld	s1,16(sp)
  106c54:	dfb00000 	ld	s0,0(sp)
  106c58:	03e00008 	jr	ra
  106c5c:	27bd0050 	addiu	sp,sp,80
  106c60:	24100001 	li	s0,1
  106c64:	0240882d 	move	s1,s2
  106c68:	1000ffb8 	b	106b4c <__mdiff+0x44>
  106c6c:	0180902d 	move	s2,t4
  106c70:	0c041862 	jal	106188 <_Balloc>
  106c74:	0000282d 	move	a1,zero
  106c78:	0040602d 	move	t4,v0
  106c7c:	24020001 	li	v0,1
  106c80:	ad820010 	sw	v0,16(t4)
  106c84:	1000ffee 	b	106c40 <__mdiff+0x138>
  106c88:	ad800014 	sw	zero,20(t4)
  106c8c:	00000000 	nop

00106c90 <_ulp>:
  106c90:	0004103f 	dsra32	v0,a0,0x0
  106c94:	3c037ff0 	lui	v1,0x7ff0
  106c98:	00431024 	and	v0,v0,v1
  106c9c:	3c04fcc0 	lui	a0,0xfcc0
  106ca0:	00442821 	addu	a1,v0,a0
  106ca4:	00051023 	negu	v0,a1
  106ca8:	18a0000b 	blez	a1,106cd8 <_ulp+0x48>
  106cac:	0005183c 	dsll32	v1,a1,0x0
  106cb0:	3c02ffff 	lui	v0,0xffff
  106cb4:	0002103e 	dsrl32	v0,v0,0x0
  106cb8:	00c23024 	and	a2,a2,v0
  106cbc:	00c33025 	or	a2,a2,v1
  106cc0:	2402ffff 	li	v0,-1
  106cc4:	0002103c 	dsll32	v0,v0,0x0
  106cc8:	00c23024 	and	a2,a2,v0
  106ccc:	03e00008 	jr	ra
  106cd0:	00c0102d 	move	v0,a2
  106cd4:	00000000 	nop
  106cd8:	00022d03 	sra	a1,v0,0x14
  106cdc:	3c020008 	lui	v0,0x8
  106ce0:	00a21007 	srav	v0,v0,a1
  106ce4:	28a30014 	slti	v1,a1,20
  106ce8:	10600007 	beqz	v1,106d08 <_ulp+0x78>
  106cec:	0002203c 	dsll32	a0,v0,0x0
  106cf0:	3c02ffff 	lui	v0,0xffff
  106cf4:	0002103e 	dsrl32	v0,v0,0x0
  106cf8:	00c23024 	and	a2,a2,v0
  106cfc:	1000fff0 	b	106cc0 <_ulp+0x30>
  106d00:	00c43025 	or	a2,a2,a0
  106d04:	00000000 	nop
  106d08:	24a5ffec 	addiu	a1,a1,-20
  106d0c:	24030001 	li	v1,1
  106d10:	00052027 	nor	a0,zero,a1
  106d14:	3c02ffff 	lui	v0,0xffff
  106d18:	0002103e 	dsrl32	v0,v0,0x0
  106d1c:	28a5001f 	slti	a1,a1,31
  106d20:	00831804 	sllv	v1,v1,a0
  106d24:	14a00002 	bnez	a1,106d30 <_ulp+0xa0>
  106d28:	00c23024 	and	a2,a2,v0
  106d2c:	24030001 	li	v1,1
  106d30:	0003103c 	dsll32	v0,v1,0x0
  106d34:	2403ffff 	li	v1,-1
  106d38:	0003183c 	dsll32	v1,v1,0x0
  106d3c:	0002103e 	dsrl32	v0,v0,0x0
  106d40:	00c33024 	and	a2,a2,v1
  106d44:	1000ffe1 	b	106ccc <_ulp+0x3c>
  106d48:	00c23025 	or	a2,a2,v0
  106d4c:	00000000 	nop

00106d50 <_b2d>:
  106d50:	27bdffa0 	addiu	sp,sp,-96
  106d54:	ffb40040 	sd	s4,64(sp)
  106d58:	24940014 	addiu	s4,a0,20
  106d5c:	ffb10010 	sd	s1,16(sp)
  106d60:	ffb00000 	sd	s0,0(sp)
  106d64:	00a0802d 	move	s0,a1
  106d68:	ffbf0050 	sd	ra,80(sp)
  106d6c:	ffb30030 	sd	s3,48(sp)
  106d70:	ffb20020 	sd	s2,32(sp)
  106d74:	8c820010 	lw	v0,16(a0)
  106d78:	00021080 	sll	v0,v0,0x2
  106d7c:	02828821 	addu	s1,s4,v0
  106d80:	2631fffc 	addiu	s1,s1,-4
  106d84:	8e330000 	lw	s3,0(s1)
  106d88:	0c04192a 	jal	1064a8 <_hi0bits>
  106d8c:	0260202d 	move	a0,s3
  106d90:	0040282d 	move	a1,v0
  106d94:	24020020 	li	v0,32
  106d98:	00451023 	subu	v0,v0,a1
  106d9c:	28a3000b 	slti	v1,a1,11
  106da0:	10600025 	beqz	v1,106e38 <_b2d+0xe8>
  106da4:	ae020000 	sw	v0,0(s0)
  106da8:	2402000b 	li	v0,11
  106dac:	3c043ff0 	lui	a0,0x3ff0
  106db0:	00451023 	subu	v0,v0,a1
  106db4:	3c03ffff 	lui	v1,0xffff
  106db8:	0003183e 	dsrl32	v1,v1,0x0
  106dbc:	00531006 	srlv	v0,s3,v0
  106dc0:	02439024 	and	s2,s2,v1
  106dc4:	00441025 	or	v0,v0,a0
  106dc8:	0291182b 	sltu	v1,s4,s1
  106dcc:	0002103c 	dsll32	v0,v0,0x0
  106dd0:	0000202d 	move	a0,zero
  106dd4:	10600002 	beqz	v1,106de0 <_b2d+0x90>
  106dd8:	02429025 	or	s2,s2,v0
  106ddc:	8e24fffc 	lw	a0,-4(s1)
  106de0:	2403000b 	li	v1,11
  106de4:	24a20015 	addiu	v0,a1,21
  106de8:	00651823 	subu	v1,v1,a1
  106dec:	00531004 	sllv	v0,s3,v0
  106df0:	00641806 	srlv	v1,a0,v1
  106df4:	2404ffff 	li	a0,-1
  106df8:	0004203c 	dsll32	a0,a0,0x0
  106dfc:	00431025 	or	v0,v0,v1
  106e00:	02449024 	and	s2,s2,a0
  106e04:	0002103c 	dsll32	v0,v0,0x0
  106e08:	0002103e 	dsrl32	v0,v0,0x0
  106e0c:	02429025 	or	s2,s2,v0
  106e10:	0240102d 	move	v0,s2
  106e14:	dfbf0050 	ld	ra,80(sp)
  106e18:	dfb40040 	ld	s4,64(sp)
  106e1c:	dfb30030 	ld	s3,48(sp)
  106e20:	dfb20020 	ld	s2,32(sp)
  106e24:	dfb10010 	ld	s1,16(sp)
  106e28:	dfb00000 	ld	s0,0(sp)
  106e2c:	03e00008 	jr	ra
  106e30:	27bd0060 	addiu	sp,sp,96
  106e34:	00000000 	nop
  106e38:	0291102b 	sltu	v0,s4,s1
  106e3c:	10400003 	beqz	v0,106e4c <_b2d+0xfc>
  106e40:	0000302d 	move	a2,zero
  106e44:	2631fffc 	addiu	s1,s1,-4
  106e48:	8e260000 	lw	a2,0(s1)
  106e4c:	24a5fff5 	addiu	a1,a1,-11
  106e50:	10a0001b 	beqz	a1,106ec0 <_b2d+0x170>
  106e54:	3c023ff0 	lui	v0,0x3ff0
  106e58:	00051023 	negu	v0,a1
  106e5c:	00b31804 	sllv	v1,s3,a1
  106e60:	00461006 	srlv	v0,a2,v0
  106e64:	3c043ff0 	lui	a0,0x3ff0
  106e68:	00621825 	or	v1,v1,v0
  106e6c:	0000982d 	move	s3,zero
  106e70:	3c02ffff 	lui	v0,0xffff
  106e74:	0002103e 	dsrl32	v0,v0,0x0
  106e78:	00641825 	or	v1,v1,a0
  106e7c:	02429024 	and	s2,s2,v0
  106e80:	0003183c 	dsll32	v1,v1,0x0
  106e84:	0291102b 	sltu	v0,s4,s1
  106e88:	10400002 	beqz	v0,106e94 <_b2d+0x144>
  106e8c:	02439025 	or	s2,s2,v1
  106e90:	8e33fffc 	lw	s3,-4(s1)
  106e94:	00051023 	negu	v0,a1
  106e98:	00a61804 	sllv	v1,a2,a1
  106e9c:	00531006 	srlv	v0,s3,v0
  106ea0:	2404ffff 	li	a0,-1
  106ea4:	0004203c 	dsll32	a0,a0,0x0
  106ea8:	00621825 	or	v1,v1,v0
  106eac:	02449024 	and	s2,s2,a0
  106eb0:	0003183c 	dsll32	v1,v1,0x0
  106eb4:	0003183e 	dsrl32	v1,v1,0x0
  106eb8:	1000ffd5 	b	106e10 <_b2d+0xc0>
  106ebc:	02439025 	or	s2,s2,v1
  106ec0:	3c03ffff 	lui	v1,0xffff
  106ec4:	0003183e 	dsrl32	v1,v1,0x0
  106ec8:	02621025 	or	v0,s3,v0
  106ecc:	02439024 	and	s2,s2,v1
  106ed0:	0002103c 	dsll32	v0,v0,0x0
  106ed4:	0006183c 	dsll32	v1,a2,0x0
  106ed8:	02429025 	or	s2,s2,v0
  106edc:	0003183e 	dsrl32	v1,v1,0x0
  106ee0:	2402ffff 	li	v0,-1
  106ee4:	0002103c 	dsll32	v0,v0,0x0
  106ee8:	1000fff3 	b	106eb8 <_b2d+0x168>
  106eec:	02429024 	and	s2,s2,v0

00106ef0 <_d2b>:
  106ef0:	27bdff80 	addiu	sp,sp,-128
  106ef4:	00a0102d 	move	v0,a1
  106ef8:	24050001 	li	a1,1
  106efc:	ffb50060 	sd	s5,96(sp)
  106f00:	ffb40050 	sd	s4,80(sp)
  106f04:	00e0a82d 	move	s5,a3
  106f08:	ffb30040 	sd	s3,64(sp)
  106f0c:	ffb20030 	sd	s2,48(sp)
  106f10:	ffb10020 	sd	s1,32(sp)
  106f14:	ffb00010 	sd	s0,16(sp)
  106f18:	0040802d 	move	s0,v0
  106f1c:	ffbf0070 	sd	ra,112(sp)
  106f20:	0c041862 	jal	106188 <_Balloc>
  106f24:	00c0a02d 	move	s4,a2
  106f28:	0040882d 	move	s1,v0
  106f2c:	0010203f 	dsra32	a0,s0,0x0
  106f30:	3c027fff 	lui	v0,0x7fff
  106f34:	3c03ffff 	lui	v1,0xffff
  106f38:	0003183e 	dsrl32	v1,v1,0x0
  106f3c:	3442ffff 	ori	v0,v0,0xffff
  106f40:	02038024 	and	s0,s0,v1
  106f44:	00821024 	and	v0,a0,v0
  106f48:	3c03000f 	lui	v1,0xf
  106f4c:	0002103c 	dsll32	v0,v0,0x0
  106f50:	3463ffff 	ori	v1,v1,0xffff
  106f54:	02028025 	or	s0,s0,v0
  106f58:	00832024 	and	a0,a0,v1
  106f5c:	0010953e 	dsrl32	s2,s0,0x14
  106f60:	afa40004 	sw	a0,4(sp)
  106f64:	12400004 	beqz	s2,106f78 <_d2b+0x88>
  106f68:	26330014 	addiu	s3,s1,20
  106f6c:	3c020010 	lui	v0,0x10
  106f70:	00821025 	or	v0,a0,v0
  106f74:	afa20004 	sw	v0,4(sp)
  106f78:	0010103c 	dsll32	v0,s0,0x0
  106f7c:	0002103f 	dsra32	v0,v0,0x0
  106f80:	10400035 	beqz	v0,107058 <_d2b+0x168>
  106f84:	27a40004 	addiu	a0,sp,4
  106f88:	03a0202d 	move	a0,sp
  106f8c:	0c04194a 	jal	106528 <_lo0bits>
  106f90:	afa20000 	sw	v0,0(sp)
  106f94:	1040002c 	beqz	v0,107048 <_d2b+0x158>
  106f98:	0040282d 	move	a1,v0
  106f9c:	8fa30004 	lw	v1,4(sp)
  106fa0:	00022023 	negu	a0,v0
  106fa4:	8fa20000 	lw	v0,0(sp)
  106fa8:	00831804 	sllv	v1,v1,a0
  106fac:	00431025 	or	v0,v0,v1
  106fb0:	ae220014 	sw	v0,20(s1)
  106fb4:	8fa30004 	lw	v1,4(sp)
  106fb8:	00a31806 	srlv	v1,v1,a1
  106fbc:	afa30004 	sw	v1,4(sp)
  106fc0:	8fa40004 	lw	a0,4(sp)
  106fc4:	24030002 	li	v1,2
  106fc8:	24020001 	li	v0,1
  106fcc:	0044180a 	movz	v1,v0,a0
  106fd0:	ae640004 	sw	a0,4(s3)
  106fd4:	0060802d 	move	s0,v1
  106fd8:	ae230010 	sw	v1,16(s1)
  106fdc:	12400010 	beqz	s2,107020 <_d2b+0x130>
  106fe0:	02451021 	addu	v0,s2,a1
  106fe4:	24030035 	li	v1,53
  106fe8:	00651823 	subu	v1,v1,a1
  106fec:	2442fbcd 	addiu	v0,v0,-1075
  106ff0:	ae820000 	sw	v0,0(s4)
  106ff4:	aea30000 	sw	v1,0(s5)
  106ff8:	0220102d 	move	v0,s1
  106ffc:	dfbf0070 	ld	ra,112(sp)
  107000:	dfb50060 	ld	s5,96(sp)
  107004:	dfb40050 	ld	s4,80(sp)
  107008:	dfb30040 	ld	s3,64(sp)
  10700c:	dfb20030 	ld	s2,48(sp)
  107010:	dfb10020 	ld	s1,32(sp)
  107014:	dfb00010 	ld	s0,16(sp)
  107018:	03e00008 	jr	ra
  10701c:	27bd0080 	addiu	sp,sp,128
  107020:	24a3fbce 	addiu	v1,a1,-1074
  107024:	00101080 	sll	v0,s0,0x2
  107028:	ae830000 	sw	v1,0(s4)
  10702c:	02621021 	addu	v0,s3,v0
  107030:	00108140 	sll	s0,s0,0x5
  107034:	0c04192a 	jal	1064a8 <_hi0bits>
  107038:	8c44fffc 	lw	a0,-4(v0)
  10703c:	02028023 	subu	s0,s0,v0
  107040:	1000ffed 	b	106ff8 <_d2b+0x108>
  107044:	aeb00000 	sw	s0,0(s5)
  107048:	8fa20000 	lw	v0,0(sp)
  10704c:	1000ffdc 	b	106fc0 <_d2b+0xd0>
  107050:	ae220014 	sw	v0,20(s1)
  107054:	00000000 	nop
  107058:	0c04194a 	jal	106528 <_lo0bits>
  10705c:	24100001 	li	s0,1
  107060:	0040282d 	move	a1,v0
  107064:	24020001 	li	v0,1
  107068:	ae220010 	sw	v0,16(s1)
  10706c:	24a50020 	addiu	a1,a1,32
  107070:	8fa20004 	lw	v0,4(sp)
  107074:	1000ffd9 	b	106fdc <_d2b+0xec>
  107078:	ae220014 	sw	v0,20(s1)
  10707c:	00000000 	nop

00107080 <_ratio>:
  107080:	27bdffb0 	addiu	sp,sp,-80
  107084:	ffb00010 	sd	s0,16(sp)
  107088:	00a0802d 	move	s0,a1
  10708c:	03a0282d 	move	a1,sp
  107090:	ffbf0040 	sd	ra,64(sp)
  107094:	ffb20030 	sd	s2,48(sp)
  107098:	ffb10020 	sd	s1,32(sp)
  10709c:	0c041b54 	jal	106d50 <_b2d>
  1070a0:	0080882d 	move	s1,a0
  1070a4:	0200202d 	move	a0,s0
  1070a8:	0040902d 	move	s2,v0
  1070ac:	0c041b54 	jal	106d50 <_b2d>
  1070b0:	27a50004 	addiu	a1,sp,4
  1070b4:	8fa40000 	lw	a0,0(sp)
  1070b8:	8e030010 	lw	v1,16(s0)
  1070bc:	0012303f 	dsra32	a2,s2,0x0
  1070c0:	8e250010 	lw	a1,16(s1)
  1070c4:	0040382d 	move	a3,v0
  1070c8:	00a32823 	subu	a1,a1,v1
  1070cc:	8fa30004 	lw	v1,4(sp)
  1070d0:	00052940 	sll	a1,a1,0x5
  1070d4:	00832023 	subu	a0,a0,v1
  1070d8:	0002183f 	dsra32	v1,v0,0x0
  1070dc:	00852021 	addu	a0,a0,a1
  1070e0:	00041500 	sll	v0,a0,0x14
  1070e4:	00c23021 	addu	a2,a2,v0
  1070e8:	00621823 	subu	v1,v1,v0
  1070ec:	0006303c 	dsll32	a2,a2,0x0
  1070f0:	1880000f 	blez	a0,107130 <_ratio+0xb0>
  1070f4:	0003183c 	dsll32	v1,v1,0x0
  1070f8:	3c02ffff 	lui	v0,0xffff
  1070fc:	0002103e 	dsrl32	v0,v0,0x0
  107100:	02429024 	and	s2,s2,v0
  107104:	02469025 	or	s2,s2,a2
  107108:	0240202d 	move	a0,s2
  10710c:	0c043b88 	jal	10ee20 <dpdiv>
  107110:	00e0282d 	move	a1,a3
  107114:	dfb00010 	ld	s0,16(sp)
  107118:	dfbf0040 	ld	ra,64(sp)
  10711c:	dfb20030 	ld	s2,48(sp)
  107120:	dfb10020 	ld	s1,32(sp)
  107124:	03e00008 	jr	ra
  107128:	27bd0050 	addiu	sp,sp,80
  10712c:	00000000 	nop
  107130:	3c02ffff 	lui	v0,0xffff
  107134:	0002103e 	dsrl32	v0,v0,0x0
  107138:	00e23824 	and	a3,a3,v0
  10713c:	1000fff2 	b	107108 <_ratio+0x88>
  107140:	00e33825 	or	a3,a3,v1
  107144:	00000000 	nop

00107148 <_mprec_log10>:
  107148:	27bdffe0 	addiu	sp,sp,-32
  10714c:	ffb00000 	sd	s0,0(sp)
  107150:	0080802d 	move	s0,a0
  107154:	2a020018 	slti	v0,s0,24
  107158:	3404ffc0 	li	a0,0xffc0
  10715c:	000423bc 	dsll32	a0,a0,0xe
  107160:	1040000b 	beqz	v0,107190 <_mprec_log10+0x48>
  107164:	ffbf0010 	sd	ra,16(sp)
  107168:	3c020011 	lui	v0,0x11
  10716c:	001018c0 	sll	v1,s0,0x3
  107170:	2442f848 	addiu	v0,v0,-1976
  107174:	00621821 	addu	v1,v1,v0
  107178:	dc620000 	ld	v0,0(v1)
  10717c:	dfbf0010 	ld	ra,16(sp)
  107180:	dfb00000 	ld	s0,0(sp)
  107184:	03e00008 	jr	ra
  107188:	27bd0020 	addiu	sp,sp,32
  10718c:	00000000 	nop
  107190:	1a000008 	blez	s0,1071b4 <_mprec_log10+0x6c>
  107194:	00000000 	nop
  107198:	34058048 	li	a1,0x8048
  10719c:	00052bfc 	dsll32	a1,a1,0xf
  1071a0:	0c043ad4 	jal	10eb50 <dpmul>
  1071a4:	2610ffff 	addiu	s0,s0,-1
  1071a8:	0040202d 	move	a0,v0
  1071ac:	1e00fffa 	bgtz	s0,107198 <_mprec_log10+0x50>
  1071b0:	00000000 	nop
  1071b4:	0080102d 	move	v0,a0
  1071b8:	1000fff1 	b	107180 <_mprec_log10+0x38>
  1071bc:	dfbf0010 	ld	ra,16(sp)

001071c0 <_realloc_r>:
  1071c0:	27bdff60 	addiu	sp,sp,-160
  1071c4:	ffb70070 	sd	s7,112(sp)
  1071c8:	0080b82d 	move	s7,a0
  1071cc:	ffb20020 	sd	s2,32(sp)
  1071d0:	00a0902d 	move	s2,a1
  1071d4:	ffb10010 	sd	s1,16(sp)
  1071d8:	00c0882d 	move	s1,a2
  1071dc:	ffbf0090 	sd	ra,144(sp)
  1071e0:	ffbe0080 	sd	s8,128(sp)
  1071e4:	ffb60060 	sd	s6,96(sp)
  1071e8:	ffb50050 	sd	s5,80(sp)
  1071ec:	ffb40040 	sd	s4,64(sp)
  1071f0:	ffb30030 	sd	s3,48(sp)
  1071f4:	10a0014e 	beqz	a1,107730 <_realloc_r+0x570>
  1071f8:	ffb00000 	sd	s0,0(sp)
  1071fc:	0c04185e 	jal	106178 <__malloc_lock>
  107200:	24b0fff8 	addiu	s0,a1,-8
  107204:	8e050004 	lw	a1,4(s0)
  107208:	26240013 	addiu	a0,s1,19
  10720c:	2402fffc 	li	v0,-4
  107210:	2c83001f 	sltiu	v1,a0,31
  107214:	00a2a024 	and	s4,a1,v0
  107218:	0200a82d 	move	s5,s0
  10721c:	14600142 	bnez	v1,107728 <_realloc_r+0x568>
  107220:	0280982d 	move	s3,s4
  107224:	2402fff0 	li	v0,-16
  107228:	0082b024 	and	s6,a0,v0
  10722c:	06c00003 	bltz	s6,10723c <_realloc_r+0x7c>
  107230:	02d1102b 	sltu	v0,s6,s1
  107234:	10400012 	beqz	v0,107280 <_realloc_r+0xc0>
  107238:	0276102b 	sltu	v0,s3,s6
  10723c:	2402000c 	li	v0,12
  107240:	0000202d 	move	a0,zero
  107244:	aee20000 	sw	v0,0(s7)
  107248:	dfbf0090 	ld	ra,144(sp)
  10724c:	0080102d 	move	v0,a0
  107250:	dfbe0080 	ld	s8,128(sp)
  107254:	dfb70070 	ld	s7,112(sp)
  107258:	dfb60060 	ld	s6,96(sp)
  10725c:	dfb50050 	ld	s5,80(sp)
  107260:	dfb40040 	ld	s4,64(sp)
  107264:	dfb30030 	ld	s3,48(sp)
  107268:	dfb20020 	ld	s2,32(sp)
  10726c:	dfb10010 	ld	s1,16(sp)
  107270:	dfb00000 	ld	s0,0(sp)
  107274:	03e00008 	jr	ra
  107278:	27bd00a0 	addiu	sp,sp,160
  10727c:	00000000 	nop
  107280:	5040001b 	beqzl	v0,1072f0 <_realloc_r+0x130>
  107284:	26b10008 	addiu	s1,s5,8
  107288:	3c020011 	lui	v0,0x11
  10728c:	02b33821 	addu	a3,s5,s3
  107290:	24480cb8 	addiu	t0,v0,3256
  107294:	8d060008 	lw	a2,8(t0)
  107298:	10e60121 	beq	a3,a2,107720 <_realloc_r+0x560>
  10729c:	2402fffe 	li	v0,-2
  1072a0:	8ce40004 	lw	a0,4(a3)
  1072a4:	00821024 	and	v0,a0,v0
  1072a8:	00e21021 	addu	v0,a3,v0
  1072ac:	8c430004 	lw	v1,4(v0)
  1072b0:	30630001 	andi	v1,v1,0x1
  1072b4:	54600118 	bnezl	v1,107718 <_realloc_r+0x558>
  1072b8:	0000382d 	move	a3,zero
  1072bc:	2402fffc 	li	v0,-4
  1072c0:	10e60102 	beq	a3,a2,1076cc <_realloc_r+0x50c>
  1072c4:	00822024 	and	a0,a0,v0
  1072c8:	00931821 	addu	v1,a0,s3
  1072cc:	0076102b 	sltu	v0,v1,s6
  1072d0:	54400026 	bnezl	v0,10736c <_realloc_r+0x1ac>
  1072d4:	8ea20004 	lw	v0,4(s5)
  1072d8:	8ce80008 	lw	t0,8(a3)
  1072dc:	0060a02d 	move	s4,v1
  1072e0:	8ce4000c 	lw	a0,12(a3)
  1072e4:	26b10008 	addiu	s1,s5,8
  1072e8:	ac880008 	sw	t0,8(a0)
  1072ec:	ad04000c 	sw	a0,12(t0)
  1072f0:	02962023 	subu	a0,s4,s6
  1072f4:	2c820010 	sltiu	v0,a0,16
  1072f8:	1040000c 	beqz	v0,10732c <_realloc_r+0x16c>
  1072fc:	30a20001 	andi	v0,a1,0x1
  107300:	02142021 	addu	a0,s0,s4
  107304:	00541025 	or	v0,v0,s4
  107308:	ae020004 	sw	v0,4(s0)
  10730c:	8c830004 	lw	v1,4(a0)
  107310:	34630001 	ori	v1,v1,0x1
  107314:	ac830004 	sw	v1,4(a0)
  107318:	02e0202d 	move	a0,s7
  10731c:	0c041860 	jal	106180 <__malloc_unlock>
  107320:	00000000 	nop
  107324:	1000ffc8 	b	107248 <_realloc_r+0x88>
  107328:	0220202d 	move	a0,s1
  10732c:	34830001 	ori	v1,a0,0x1
  107330:	02162821 	addu	a1,s0,s6
  107334:	00561025 	or	v0,v0,s6
  107338:	ae020004 	sw	v0,4(s0)
  10733c:	00a43021 	addu	a2,a1,a0
  107340:	aca30004 	sw	v1,4(a1)
  107344:	02e0202d 	move	a0,s7
  107348:	24a50008 	addiu	a1,a1,8
  10734c:	8cc20004 	lw	v0,4(a2)
  107350:	34420001 	ori	v0,v0,0x1
  107354:	acc20004 	sw	v0,4(a2)
  107358:	0c0411f6 	jal	1047d8 <_free_r>
  10735c:	00000000 	nop
  107360:	1000ffee 	b	10731c <_realloc_r+0x15c>
  107364:	02e0202d 	move	a0,s7
  107368:	8ea20004 	lw	v0,4(s5)
  10736c:	30420001 	andi	v0,v0,0x1
  107370:	14400054 	bnez	v0,1074c4 <_realloc_r+0x304>
  107374:	0220282d 	move	a1,s1
  107378:	8ea20000 	lw	v0,0(s5)
  10737c:	02a2f023 	subu	s8,s5,v0
  107380:	2402fffc 	li	v0,-4
  107384:	8fc30004 	lw	v1,4(s8)
  107388:	10e0003f 	beqz	a3,107488 <_realloc_r+0x2c8>
  10738c:	00622824 	and	a1,v1,v0
  107390:	3c020011 	lui	v0,0x11
  107394:	8c430cc0 	lw	v1,3264(v0)
  107398:	10e3008c 	beq	a3,v1,1075cc <_realloc_r+0x40c>
  10739c:	00851021 	addu	v0,a0,a1
  1073a0:	00534821 	addu	t1,v0,s3
  1073a4:	0136182b 	sltu	v1,t1,s6
  1073a8:	14600037 	bnez	v1,107488 <_realloc_r+0x2c8>
  1073ac:	2666fffc 	addiu	a2,s3,-4
  1073b0:	8ce80008 	lw	t0,8(a3)
  1073b4:	8ce4000c 	lw	a0,12(a3)
  1073b8:	03c0802d 	move	s0,s8
  1073bc:	2cc20025 	sltiu	v0,a2,37
  1073c0:	0120a02d 	move	s4,t1
  1073c4:	ac880008 	sw	t0,8(a0)
  1073c8:	27d10008 	addiu	s1,s8,8
  1073cc:	ad04000c 	sw	a0,12(t0)
  1073d0:	8fc80008 	lw	t0,8(s8)
  1073d4:	8fc4000c 	lw	a0,12(s8)
  1073d8:	ac880008 	sw	t0,8(a0)
  1073dc:	10400025 	beqz	v0,107474 <_realloc_r+0x2b4>
  1073e0:	ad04000c 	sw	a0,12(t0)
  1073e4:	2cc20014 	sltiu	v0,a2,20
  1073e8:	0240402d 	move	t0,s2
  1073ec:	14400017 	bnez	v0,10744c <_realloc_r+0x28c>
  1073f0:	0220382d 	move	a3,s1
  1073f4:	8e420000 	lw	v0,0(s2)
  1073f8:	2cc4001c 	sltiu	a0,a2,28
  1073fc:	26480008 	addiu	t0,s2,8
  107400:	26070010 	addiu	a3,s0,16
  107404:	ae020008 	sw	v0,8(s0)
  107408:	8e430004 	lw	v1,4(s2)
  10740c:	1480000f 	bnez	a0,10744c <_realloc_r+0x28c>
  107410:	ae03000c 	sw	v1,12(s0)
  107414:	8e420008 	lw	v0,8(s2)
  107418:	2cc40024 	sltiu	a0,a2,36
  10741c:	26480010 	addiu	t0,s2,16
  107420:	26070018 	addiu	a3,s0,24
  107424:	ae020010 	sw	v0,16(s0)
  107428:	8e43000c 	lw	v1,12(s2)
  10742c:	14800007 	bnez	a0,10744c <_realloc_r+0x28c>
  107430:	ae030014 	sw	v1,20(s0)
  107434:	8e430010 	lw	v1,16(s2)
  107438:	26480018 	addiu	t0,s2,24
  10743c:	26070020 	addiu	a3,s0,32
  107440:	ae030018 	sw	v1,24(s0)
  107444:	8e420014 	lw	v0,20(s2)
  107448:	ae02001c 	sw	v0,28(s0)
  10744c:	8d020000 	lw	v0,0(t0)
  107450:	25080004 	addiu	t0,t0,4
  107454:	ace20000 	sw	v0,0(a3)
  107458:	24e70004 	addiu	a3,a3,4
  10745c:	8d020000 	lw	v0,0(t0)
  107460:	ace20000 	sw	v0,0(a3)
  107464:	8d030004 	lw	v1,4(t0)
  107468:	ace30004 	sw	v1,4(a3)
  10746c:	1000ffa0 	b	1072f0 <_realloc_r+0x130>
  107470:	8fc50004 	lw	a1,4(s8)
  107474:	0240282d 	move	a1,s2
  107478:	0c0417ec 	jal	105fb0 <memmove>
  10747c:	0220202d 	move	a0,s1
  107480:	1000ff9b 	b	1072f0 <_realloc_r+0x130>
  107484:	8e050004 	lw	a1,4(s0)
  107488:	13c0000d 	beqz	s8,1074c0 <_realloc_r+0x300>
  10748c:	00b31821 	addu	v1,a1,s3
  107490:	0076102b 	sltu	v0,v1,s6
  107494:	5440000b 	bnezl	v0,1074c4 <_realloc_r+0x304>
  107498:	0220282d 	move	a1,s1
  10749c:	8fc4000c 	lw	a0,12(s8)
  1074a0:	2666fffc 	addiu	a2,s3,-4
  1074a4:	8fc80008 	lw	t0,8(s8)
  1074a8:	03c0802d 	move	s0,s8
  1074ac:	2cc20025 	sltiu	v0,a2,37
  1074b0:	0060a02d 	move	s4,v1
  1074b4:	ac880008 	sw	t0,8(a0)
  1074b8:	1000ffc8 	b	1073dc <_realloc_r+0x21c>
  1074bc:	27d10008 	addiu	s1,s8,8
  1074c0:	0220282d 	move	a1,s1
  1074c4:	0c0415c6 	jal	105718 <_malloc_r>
  1074c8:	02e0202d 	move	a0,s7
  1074cc:	1040003b 	beqz	v0,1075bc <_realloc_r+0x3fc>
  1074d0:	0040882d 	move	s1,v0
  1074d4:	8ea50004 	lw	a1,4(s5)
  1074d8:	2450fff8 	addiu	s0,v0,-8
  1074dc:	2402fffe 	li	v0,-2
  1074e0:	00a21024 	and	v0,a1,v0
  1074e4:	02a21021 	addu	v0,s5,v0
  1074e8:	1202002d 	beq	s0,v0,1075a0 <_realloc_r+0x3e0>
  1074ec:	2666fffc 	addiu	a2,s3,-4
  1074f0:	2cc20025 	sltiu	v0,a2,37
  1074f4:	10400025 	beqz	v0,10758c <_realloc_r+0x3cc>
  1074f8:	2cc20014 	sltiu	v0,a2,20
  1074fc:	0240382d 	move	a3,s2
  107500:	14400017 	bnez	v0,107560 <_realloc_r+0x3a0>
  107504:	0220282d 	move	a1,s1
  107508:	8e420000 	lw	v0,0(s2)
  10750c:	2cc4001c 	sltiu	a0,a2,28
  107510:	26470008 	addiu	a3,s2,8
  107514:	26250008 	addiu	a1,s1,8
  107518:	ae220000 	sw	v0,0(s1)
  10751c:	8e430004 	lw	v1,4(s2)
  107520:	1480000f 	bnez	a0,107560 <_realloc_r+0x3a0>
  107524:	ae230004 	sw	v1,4(s1)
  107528:	8e420008 	lw	v0,8(s2)
  10752c:	2cc40024 	sltiu	a0,a2,36
  107530:	26470010 	addiu	a3,s2,16
  107534:	26250010 	addiu	a1,s1,16
  107538:	ae220008 	sw	v0,8(s1)
  10753c:	8e43000c 	lw	v1,12(s2)
  107540:	14800007 	bnez	a0,107560 <_realloc_r+0x3a0>
  107544:	ae23000c 	sw	v1,12(s1)
  107548:	8e430010 	lw	v1,16(s2)
  10754c:	26470018 	addiu	a3,s2,24
  107550:	26250018 	addiu	a1,s1,24
  107554:	ae230010 	sw	v1,16(s1)
  107558:	8e420014 	lw	v0,20(s2)
  10755c:	ae220014 	sw	v0,20(s1)
  107560:	8ce20000 	lw	v0,0(a3)
  107564:	24e70004 	addiu	a3,a3,4
  107568:	aca20000 	sw	v0,0(a1)
  10756c:	24a50004 	addiu	a1,a1,4
  107570:	8ce20000 	lw	v0,0(a3)
  107574:	aca20000 	sw	v0,0(a1)
  107578:	8ce30004 	lw	v1,4(a3)
  10757c:	aca30004 	sw	v1,4(a1)
  107580:	0240282d 	move	a1,s2
  107584:	1000ff74 	b	107358 <_realloc_r+0x198>
  107588:	02e0202d 	move	a0,s7
  10758c:	0220202d 	move	a0,s1
  107590:	0c0417ec 	jal	105fb0 <memmove>
  107594:	0240282d 	move	a1,s2
  107598:	1000fffa 	b	107584 <_realloc_r+0x3c4>
  10759c:	0240282d 	move	a1,s2
  1075a0:	8e030004 	lw	v1,4(s0)
  1075a4:	2402fffc 	li	v0,-4
  1075a8:	02a0802d 	move	s0,s5
  1075ac:	26b10008 	addiu	s1,s5,8
  1075b0:	00621824 	and	v1,v1,v0
  1075b4:	1000ff4e 	b	1072f0 <_realloc_r+0x130>
  1075b8:	0263a021 	addu	s4,s3,v1
  1075bc:	0c041860 	jal	106180 <__malloc_unlock>
  1075c0:	02e0202d 	move	a0,s7
  1075c4:	1000ff20 	b	107248 <_realloc_r+0x88>
  1075c8:	0000202d 	move	a0,zero
  1075cc:	00851821 	addu	v1,a0,a1
  1075d0:	26c20010 	addiu	v0,s6,16
  1075d4:	0073a021 	addu	s4,v1,s3
  1075d8:	0282102b 	sltu	v0,s4,v0
  1075dc:	1440ffaa 	bnez	v0,107488 <_realloc_r+0x2c8>
  1075e0:	2666fffc 	addiu	a2,s3,-4
  1075e4:	8fc4000c 	lw	a0,12(s8)
  1075e8:	8fc80008 	lw	t0,8(s8)
  1075ec:	2cc20025 	sltiu	v0,a2,37
  1075f0:	27d10008 	addiu	s1,s8,8
  1075f4:	ac880008 	sw	t0,8(a0)
  1075f8:	1040002f 	beqz	v0,1076b8 <_realloc_r+0x4f8>
  1075fc:	ad04000c 	sw	a0,12(t0)
  107600:	2cc20014 	sltiu	v0,a2,20
  107604:	0240402d 	move	t0,s2
  107608:	14400017 	bnez	v0,107668 <_realloc_r+0x4a8>
  10760c:	0220382d 	move	a3,s1
  107610:	8e420000 	lw	v0,0(s2)
  107614:	2cc4001c 	sltiu	a0,a2,28
  107618:	26480008 	addiu	t0,s2,8
  10761c:	27c70010 	addiu	a3,s8,16
  107620:	afc20008 	sw	v0,8(s8)
  107624:	8e430004 	lw	v1,4(s2)
  107628:	1480000f 	bnez	a0,107668 <_realloc_r+0x4a8>
  10762c:	afc3000c 	sw	v1,12(s8)
  107630:	8e420008 	lw	v0,8(s2)
  107634:	2cc40024 	sltiu	a0,a2,36
  107638:	26480010 	addiu	t0,s2,16
  10763c:	27c70018 	addiu	a3,s8,24
  107640:	afc20010 	sw	v0,16(s8)
  107644:	8e43000c 	lw	v1,12(s2)
  107648:	14800007 	bnez	a0,107668 <_realloc_r+0x4a8>
  10764c:	afc30014 	sw	v1,20(s8)
  107650:	8e430010 	lw	v1,16(s2)
  107654:	26480018 	addiu	t0,s2,24
  107658:	27c70020 	addiu	a3,s8,32
  10765c:	afc30018 	sw	v1,24(s8)
  107660:	8e420014 	lw	v0,20(s2)
  107664:	afc2001c 	sw	v0,28(s8)
  107668:	8d020000 	lw	v0,0(t0)
  10766c:	25080004 	addiu	t0,t0,4
  107670:	ace20000 	sw	v0,0(a3)
  107674:	24e70004 	addiu	a3,a3,4
  107678:	8d020000 	lw	v0,0(t0)
  10767c:	ace20000 	sw	v0,0(a3)
  107680:	8d030004 	lw	v1,4(t0)
  107684:	ace30004 	sw	v1,4(a3)
  107688:	02961023 	subu	v0,s4,s6
  10768c:	03d62821 	addu	a1,s8,s6
  107690:	34420001 	ori	v0,v0,0x1
  107694:	3c030011 	lui	v1,0x11
  107698:	aca20004 	sw	v0,4(a1)
  10769c:	02e0202d 	move	a0,s7
  1076a0:	ac650cc0 	sw	a1,3264(v1)
  1076a4:	8fc20004 	lw	v0,4(s8)
  1076a8:	30420001 	andi	v0,v0,0x1
  1076ac:	00561025 	or	v0,v0,s6
  1076b0:	1000ff1a 	b	10731c <_realloc_r+0x15c>
  1076b4:	afc20004 	sw	v0,4(s8)
  1076b8:	0240282d 	move	a1,s2
  1076bc:	0c0417ec 	jal	105fb0 <memmove>
  1076c0:	0220202d 	move	a0,s1
  1076c4:	1000fff1 	b	10768c <_realloc_r+0x4cc>
  1076c8:	02961023 	subu	v0,s4,s6
  1076cc:	00931821 	addu	v1,a0,s3
  1076d0:	26c20010 	addiu	v0,s6,16
  1076d4:	0062102b 	sltu	v0,v1,v0
  1076d8:	5440ff24 	bnezl	v0,10736c <_realloc_r+0x1ac>
  1076dc:	8ea20004 	lw	v0,4(s5)
  1076e0:	00761023 	subu	v0,v1,s6
  1076e4:	02e0202d 	move	a0,s7
  1076e8:	02b61821 	addu	v1,s5,s6
  1076ec:	34420001 	ori	v0,v0,0x1
  1076f0:	ac620004 	sw	v0,4(v1)
  1076f4:	ad030008 	sw	v1,8(t0)
  1076f8:	8ea20004 	lw	v0,4(s5)
  1076fc:	30420001 	andi	v0,v0,0x1
  107700:	00561025 	or	v0,v0,s6
  107704:	0c041860 	jal	106180 <__malloc_unlock>
  107708:	aea20004 	sw	v0,4(s5)
  10770c:	1000fece 	b	107248 <_realloc_r+0x88>
  107710:	26a40008 	addiu	a0,s5,8
  107714:	00000000 	nop
  107718:	1000ff13 	b	107368 <_realloc_r+0x1a8>
  10771c:	0000202d 	move	a0,zero
  107720:	1000fee6 	b	1072bc <_realloc_r+0xfc>
  107724:	8ce40004 	lw	a0,4(a3)
  107728:	1000fec0 	b	10722c <_realloc_r+0x6c>
  10772c:	24160010 	li	s6,16
  107730:	0c0415c6 	jal	105718 <_malloc_r>
  107734:	00c0282d 	move	a1,a2
  107738:	1000fec3 	b	107248 <_realloc_r+0x88>
  10773c:	0040202d 	move	a0,v0

00107740 <isinf>:
  107740:	0004103c 	dsll32	v0,a0,0x0
  107744:	0002103f 	dsra32	v0,v0,0x0
  107748:	0004183f 	dsra32	v1,a0,0x0
  10774c:	3c057fff 	lui	a1,0x7fff
  107750:	00022023 	negu	a0,v0
  107754:	34a5ffff 	ori	a1,a1,0xffff
  107758:	00441025 	or	v0,v0,a0
  10775c:	00651824 	and	v1,v1,a1
  107760:	000217c2 	srl	v0,v0,0x1f
  107764:	00621825 	or	v1,v1,v0
  107768:	3c047ff0 	lui	a0,0x7ff0
  10776c:	00831823 	subu	v1,a0,v1
  107770:	00031023 	negu	v0,v1
  107774:	00621825 	or	v1,v1,v0
  107778:	24020001 	li	v0,1
  10777c:	00031fc2 	srl	v1,v1,0x1f
  107780:	03e00008 	jr	ra
  107784:	00431023 	subu	v0,v0,v1

00107788 <isnan>:
  107788:	0004183c 	dsll32	v1,a0,0x0
  10778c:	0003183f 	dsra32	v1,v1,0x0
  107790:	0004103f 	dsra32	v0,a0,0x0
  107794:	3c057fff 	lui	a1,0x7fff
  107798:	00032023 	negu	a0,v1
  10779c:	34a5ffff 	ori	a1,a1,0xffff
  1077a0:	00641825 	or	v1,v1,a0
  1077a4:	00451024 	and	v0,v0,a1
  1077a8:	00031fc2 	srl	v1,v1,0x1f
  1077ac:	00431025 	or	v0,v0,v1
  1077b0:	3c047ff0 	lui	a0,0x7ff0
  1077b4:	00821023 	subu	v0,a0,v0
  1077b8:	03e00008 	jr	ra
  1077bc:	000217c2 	srl	v0,v0,0x1f

001077c0 <_sbrk_r>:
  1077c0:	27bdffd0 	addiu	sp,sp,-48
  1077c4:	ffb10010 	sd	s1,16(sp)
  1077c8:	0080882d 	move	s1,a0
  1077cc:	ffb00000 	sd	s0,0(sp)
  1077d0:	00a0202d 	move	a0,a1
  1077d4:	3c100011 	lui	s0,0x11
  1077d8:	ffbf0020 	sd	ra,32(sp)
  1077dc:	0c04223e 	jal	1088f8 <_sbrk>
  1077e0:	ae002c88 	sw	zero,11400(s0)
  1077e4:	2403ffff 	li	v1,-1
  1077e8:	10430007 	beq	v0,v1,107808 <_sbrk_r+0x48>
  1077ec:	8e032c88 	lw	v1,11400(s0)
  1077f0:	dfbf0020 	ld	ra,32(sp)
  1077f4:	dfb10010 	ld	s1,16(sp)
  1077f8:	dfb00000 	ld	s0,0(sp)
  1077fc:	03e00008 	jr	ra
  107800:	27bd0030 	addiu	sp,sp,48
  107804:	00000000 	nop
  107808:	5460fff9 	bnezl	v1,1077f0 <_sbrk_r+0x30>
  10780c:	ae230000 	sw	v1,0(s1)
  107810:	1000fff8 	b	1077f4 <_sbrk_r+0x34>
  107814:	dfbf0020 	ld	ra,32(sp)

00107818 <__sread>:
  107818:	27bdffe0 	addiu	sp,sp,-32
  10781c:	3c020011 	lui	v0,0x11
  107820:	ffb00000 	sd	s0,0(sp)
  107824:	00a0402d 	move	t0,a1
  107828:	ffbf0010 	sd	ra,16(sp)
  10782c:	0080802d 	move	s0,a0
  107830:	00c0382d 	move	a3,a2
  107834:	0100302d 	move	a2,t0
  107838:	8483000e 	lh	v1,14(a0)
  10783c:	8c440c80 	lw	a0,3200(v0)
  107840:	0c041ff4 	jal	107fd0 <_read_r>
  107844:	0060282d 	move	a1,v1
  107848:	04400009 	bltz	v0,107870 <__sread+0x58>
  10784c:	0040182d 	move	v1,v0
  107850:	8e020050 	lw	v0,80(s0)
  107854:	00431021 	addu	v0,v0,v1
  107858:	ae020050 	sw	v0,80(s0)
  10785c:	dfbf0010 	ld	ra,16(sp)
  107860:	0060102d 	move	v0,v1
  107864:	dfb00000 	ld	s0,0(sp)
  107868:	03e00008 	jr	ra
  10786c:	27bd0020 	addiu	sp,sp,32
  107870:	9602000c 	lhu	v0,12(s0)
  107874:	3042efff 	andi	v0,v0,0xefff
  107878:	1000fff8 	b	10785c <__sread+0x44>
  10787c:	a602000c 	sh	v0,12(s0)

00107880 <__swrite>:
  107880:	27bdffb0 	addiu	sp,sp,-80
  107884:	24070002 	li	a3,2
  107888:	ffb30030 	sd	s3,48(sp)
  10788c:	3c130011 	lui	s3,0x11
  107890:	ffb20020 	sd	s2,32(sp)
  107894:	00c0902d 	move	s2,a2
  107898:	ffb10010 	sd	s1,16(sp)
  10789c:	0000302d 	move	a2,zero
  1078a0:	ffb00000 	sd	s0,0(sp)
  1078a4:	00a0882d 	move	s1,a1
  1078a8:	ffbf0040 	sd	ra,64(sp)
  1078ac:	9482000c 	lhu	v0,12(a0)
  1078b0:	30420100 	andi	v0,v0,0x100
  1078b4:	14400012 	bnez	v0,107900 <__swrite+0x80>
  1078b8:	0080802d 	move	s0,a0
  1078bc:	3c130011 	lui	s3,0x11
  1078c0:	9602000c 	lhu	v0,12(s0)
  1078c4:	0220302d 	move	a2,s1
  1078c8:	8605000e 	lh	a1,14(s0)
  1078cc:	0240382d 	move	a3,s2
  1078d0:	3042efff 	andi	v0,v0,0xefff
  1078d4:	8e640c80 	lw	a0,3200(s3)
  1078d8:	0c041f0c 	jal	107c30 <_write_r>
  1078dc:	a602000c 	sh	v0,12(s0)
  1078e0:	dfb00000 	ld	s0,0(sp)
  1078e4:	dfbf0040 	ld	ra,64(sp)
  1078e8:	dfb30030 	ld	s3,48(sp)
  1078ec:	dfb20020 	ld	s2,32(sp)
  1078f0:	dfb10010 	ld	s1,16(sp)
  1078f4:	03e00008 	jr	ra
  1078f8:	27bd0050 	addiu	sp,sp,80
  1078fc:	00000000 	nop
  107900:	8485000e 	lh	a1,14(a0)
  107904:	0c041fd8 	jal	107f60 <_lseek_r>
  107908:	8e640c80 	lw	a0,3200(s3)
  10790c:	1000ffed 	b	1078c4 <__swrite+0x44>
  107910:	9602000c 	lhu	v0,12(s0)
  107914:	00000000 	nop

00107918 <__sseek>:
  107918:	27bdffe0 	addiu	sp,sp,-32
  10791c:	3c020011 	lui	v0,0x11
  107920:	ffb00000 	sd	s0,0(sp)
  107924:	00a0402d 	move	t0,a1
  107928:	ffbf0010 	sd	ra,16(sp)
  10792c:	0080802d 	move	s0,a0
  107930:	00c0382d 	move	a3,a2
  107934:	0100302d 	move	a2,t0
  107938:	8483000e 	lh	v1,14(a0)
  10793c:	8c440c80 	lw	a0,3200(v0)
  107940:	0c041fd8 	jal	107f60 <_lseek_r>
  107944:	0060282d 	move	a1,v1
  107948:	0040182d 	move	v1,v0
  10794c:	0002203c 	dsll32	a0,v0,0x0
  107950:	0004203f 	dsra32	a0,a0,0x0
  107954:	2402ffff 	li	v0,-1
  107958:	10620009 	beq	v1,v0,107980 <__sseek+0x68>
  10795c:	9602000c 	lhu	v0,12(s0)
  107960:	ae040050 	sw	a0,80(s0)
  107964:	34421000 	ori	v0,v0,0x1000
  107968:	a602000c 	sh	v0,12(s0)
  10796c:	0060102d 	move	v0,v1
  107970:	dfbf0010 	ld	ra,16(sp)
  107974:	dfb00000 	ld	s0,0(sp)
  107978:	03e00008 	jr	ra
  10797c:	27bd0020 	addiu	sp,sp,32
  107980:	1000fff9 	b	107968 <__sseek+0x50>
  107984:	3042efff 	andi	v0,v0,0xefff

00107988 <__sclose>:
  107988:	27bdfff0 	addiu	sp,sp,-16
  10798c:	3c020011 	lui	v0,0x11
  107990:	ffbf0000 	sd	ra,0(sp)
  107994:	8485000e 	lh	a1,14(a0)
  107998:	0c041f52 	jal	107d48 <_close_r>
  10799c:	8c440c80 	lw	a0,3200(v0)
  1079a0:	dfbf0000 	ld	ra,0(sp)
  1079a4:	03e00008 	jr	ra
  1079a8:	27bd0010 	addiu	sp,sp,16
  1079ac:	00000000 	nop

001079b0 <strcmp>:
  1079b0:	00854025 	or	t0,a0,a1
  1079b4:	31020007 	andi	v0,t0,0x7
  1079b8:	54400049 	bnezl	v0,107ae0 <strcmp+0x130>
  1079bc:	80820000 	lb	v0,0(a0)
  1079c0:	3109000f 	andi	t1,t0,0xf
  1079c4:	3c070101 	lui	a3,0x101
  1079c8:	34e70101 	ori	a3,a3,0x101
  1079cc:	00073c38 	dsll	a3,a3,0x10
  1079d0:	34e70101 	ori	a3,a3,0x101
  1079d4:	00073c38 	dsll	a3,a3,0x10
  1079d8:	34e70101 	ori	a3,a3,0x101
  1079dc:	3c068080 	lui	a2,0x8080
  1079e0:	34c68080 	ori	a2,a2,0x8080
  1079e4:	00063438 	dsll	a2,a2,0x10
  1079e8:	34c68080 	ori	a2,a2,0x8080
  1079ec:	00063438 	dsll	a2,a2,0x10
  1079f0:	34c68080 	ori	a2,a2,0x8080
  1079f4:	1520001f 	bnez	t1,107a74 <strcmp+0xc4>
  1079f8:	dca20000 	ld	v0,0(a1)
  1079fc:	78830000 	lq	v1,0(a0)
  107a00:	70e74389 	pcpyld	t0,a3,a3
  107a04:	78a20000 	lq	v0,0(a1)
  107a08:	70c65389 	pcpyld	t2,a2,a2
  107a0c:	70433848 	psubw	a3,v0,v1
  107a10:	70e433a9 	pcpyud	a2,a3,a0
  107a14:	00c71825 	or	v1,a2,a3
  107a18:	54600031 	bnezl	v1,107ae0 <strcmp+0x130>
  107a1c:	80820000 	lb	v0,0(a0)
  107a20:	78820000 	lq	v0,0(a0)
  107a24:	70021ce9 	pnor	v1,zero,v0
  107a28:	70481248 	psubb	v0,v0,t0
  107a2c:	70431489 	pand	v0,v0,v1
  107a30:	704a1489 	pand	v0,v0,t2
  107a34:	70441ba9 	pcpyud	v1,v0,a0
  107a38:	00623025 	or	a2,v1,v0
  107a3c:	10c00003 	beqz	a2,107a4c <strcmp+0x9c>
  107a40:	24840010 	addiu	a0,a0,16
  107a44:	03e00008 	jr	ra
  107a48:	0000102d 	move	v0,zero
  107a4c:	24a50010 	addiu	a1,a1,16
  107a50:	78820000 	lq	v0,0(a0)
  107a54:	78a30000 	lq	v1,0(a1)
  107a58:	70433848 	psubw	a3,v0,v1
  107a5c:	70e433a9 	pcpyud	a2,a3,a0
  107a60:	00c74825 	or	t1,a2,a3
  107a64:	5120fff0 	beqzl	t1,107a28 <strcmp+0x78>
  107a68:	70021ce9 	pnor	v1,zero,v0
  107a6c:	1000001c 	b	107ae0 <strcmp+0x130>
  107a70:	80820000 	lb	v0,0(a0)
  107a74:	dc830000 	ld	v1,0(a0)
  107a78:	54620019 	bnel	v1,v0,107ae0 <strcmp+0x130>
  107a7c:	80820000 	lb	v0,0(a0)
  107a80:	dc820000 	ld	v0,0(a0)
  107a84:	00024027 	nor	t0,zero,v0
  107a88:	0047102f 	dsubu	v0,v0,a3
  107a8c:	00481024 	and	v0,v0,t0
  107a90:	00461024 	and	v0,v0,a2
  107a94:	10400003 	beqz	v0,107aa4 <strcmp+0xf4>
  107a98:	24840008 	addiu	a0,a0,8
  107a9c:	03e00008 	jr	ra
  107aa0:	0000102d 	move	v0,zero
  107aa4:	24a50008 	addiu	a1,a1,8
  107aa8:	dc820000 	ld	v0,0(a0)
  107aac:	dca30000 	ld	v1,0(a1)
  107ab0:	5062fff5 	beql	v1,v0,107a88 <strcmp+0xd8>
  107ab4:	00024027 	nor	t0,zero,v0
  107ab8:	10000009 	b	107ae0 <strcmp+0x130>
  107abc:	80820000 	lb	v0,0(a0)
  107ac0:	00031600 	sll	v0,v1,0x18
  107ac4:	80a30000 	lb	v1,0(a1)
  107ac8:	00021603 	sra	v0,v0,0x18
  107acc:	54430006 	bnel	v0,v1,107ae8 <strcmp+0x138>
  107ad0:	90830000 	lbu	v1,0(a0)
  107ad4:	24840001 	addiu	a0,a0,1
  107ad8:	24a50001 	addiu	a1,a1,1
  107adc:	80820000 	lb	v0,0(a0)
  107ae0:	1440fff7 	bnez	v0,107ac0 <strcmp+0x110>
  107ae4:	90830000 	lbu	v1,0(a0)
  107ae8:	90a20000 	lbu	v0,0(a1)
  107aec:	03e00008 	jr	ra
  107af0:	00621023 	subu	v0,v1,v0

00107af4 <strlen>:
  107af4:	30820007 	andi	v0,a0,0x7
  107af8:	14400043 	bnez	v0,107c08 <strlen+0x114>
  107afc:	0080382d 	move	a3,a0
  107b00:	3083000f 	andi	v1,a0,0xf
  107b04:	3c020101 	lui	v0,0x101
  107b08:	34420101 	ori	v0,v0,0x101
  107b0c:	00021438 	dsll	v0,v0,0x10
  107b10:	34420101 	ori	v0,v0,0x101
  107b14:	00021438 	dsll	v0,v0,0x10
  107b18:	34420101 	ori	v0,v0,0x101
  107b1c:	1460001e 	bnez	v1,107b98 <strlen+0xa4>
  107b20:	0080282d 	move	a1,a0
  107b24:	78a30000 	lq	v1,0(a1)
  107b28:	70424389 	pcpyld	t0,v0,v0
  107b2c:	3c048080 	lui	a0,0x8080
  107b30:	34848080 	ori	a0,a0,0x8080
  107b34:	00042438 	dsll	a0,a0,0x10
  107b38:	34848080 	ori	a0,a0,0x8080
  107b3c:	00042438 	dsll	a0,a0,0x10
  107b40:	34848080 	ori	a0,a0,0x8080
  107b44:	70681248 	psubb	v0,v1,t0
  107b48:	70031ce9 	pnor	v1,zero,v1
  107b4c:	70844b89 	pcpyld	t1,a0,a0
  107b50:	70431489 	pand	v0,v0,v1
  107b54:	70491489 	pand	v0,v0,t1
  107b58:	70481ba9 	pcpyud	v1,v0,t0
  107b5c:	00623025 	or	a2,v1,v0
  107b60:	54c00029 	bnezl	a2,107c08 <strlen+0x114>
  107b64:	00a0202d 	move	a0,a1
  107b68:	24a50010 	addiu	a1,a1,16
  107b6c:	78a20000 	lq	v0,0(a1)
  107b70:	70021ce9 	pnor	v1,zero,v0
  107b74:	70481248 	psubb	v0,v0,t0
  107b78:	70431489 	pand	v0,v0,v1
  107b7c:	70492489 	pand	a0,v0,t1
  107b80:	70861ba9 	pcpyud	v1,a0,a2
  107b84:	00641825 	or	v1,v1,a0
  107b88:	5060fff8 	beqzl	v1,107b6c <strlen+0x78>
  107b8c:	24a50010 	addiu	a1,a1,16
  107b90:	1000001d 	b	107c08 <strlen+0x114>
  107b94:	00a0202d 	move	a0,a1
  107b98:	dca30000 	ld	v1,0(a1)
  107b9c:	3c048080 	lui	a0,0x8080
  107ba0:	34848080 	ori	a0,a0,0x8080
  107ba4:	00042438 	dsll	a0,a0,0x10
  107ba8:	34848080 	ori	a0,a0,0x8080
  107bac:	00042438 	dsll	a0,a0,0x10
  107bb0:	34848080 	ori	a0,a0,0x8080
  107bb4:	0062102f 	dsubu	v0,v1,v0
  107bb8:	00031827 	nor	v1,zero,v1
  107bbc:	00431024 	and	v0,v0,v1
  107bc0:	00441024 	and	v0,v0,a0
  107bc4:	54400010 	bnezl	v0,107c08 <strlen+0x114>
  107bc8:	00a0202d 	move	a0,a1
  107bcc:	3c060101 	lui	a2,0x101
  107bd0:	34c60101 	ori	a2,a2,0x101
  107bd4:	00063438 	dsll	a2,a2,0x10
  107bd8:	34c60101 	ori	a2,a2,0x101
  107bdc:	00063438 	dsll	a2,a2,0x10
  107be0:	34c60101 	ori	a2,a2,0x101
  107be4:	24a50008 	addiu	a1,a1,8
  107be8:	dca20000 	ld	v0,0(a1)
  107bec:	00021827 	nor	v1,zero,v0
  107bf0:	0046102f 	dsubu	v0,v0,a2
  107bf4:	00431024 	and	v0,v0,v1
  107bf8:	00441024 	and	v0,v0,a0
  107bfc:	5040fffa 	beqzl	v0,107be8 <strlen+0xf4>
  107c00:	24a50008 	addiu	a1,a1,8
  107c04:	00a0202d 	move	a0,a1
  107c08:	80820000 	lb	v0,0(a0)
  107c0c:	10400004 	beqz	v0,107c20 <strlen+0x12c>
  107c10:	24840001 	addiu	a0,a0,1
  107c14:	80820000 	lb	v0,0(a0)
  107c18:	1440fffb 	bnez	v0,107c08 <strlen+0x114>
  107c1c:	24840001 	addiu	a0,a0,1
  107c20:	2484ffff 	addiu	a0,a0,-1
  107c24:	03e00008 	jr	ra
  107c28:	00871023 	subu	v0,a0,a3
  107c2c:	00000000 	nop

00107c30 <_write_r>:
  107c30:	27bdffd0 	addiu	sp,sp,-48
  107c34:	00a0102d 	move	v0,a1
  107c38:	ffb10010 	sd	s1,16(sp)
  107c3c:	00c0282d 	move	a1,a2
  107c40:	ffb00000 	sd	s0,0(sp)
  107c44:	0080882d 	move	s1,a0
  107c48:	00e0302d 	move	a2,a3
  107c4c:	3c100011 	lui	s0,0x11
  107c50:	0040202d 	move	a0,v0
  107c54:	ffbf0020 	sd	ra,32(sp)
  107c58:	0c042192 	jal	108648 <_write>
  107c5c:	ae002c88 	sw	zero,11400(s0)
  107c60:	2403ffff 	li	v1,-1
  107c64:	10430006 	beq	v0,v1,107c80 <_write_r+0x50>
  107c68:	8e032c88 	lw	v1,11400(s0)
  107c6c:	dfbf0020 	ld	ra,32(sp)
  107c70:	dfb10010 	ld	s1,16(sp)
  107c74:	dfb00000 	ld	s0,0(sp)
  107c78:	03e00008 	jr	ra
  107c7c:	27bd0030 	addiu	sp,sp,48
  107c80:	5460fffa 	bnezl	v1,107c6c <_write_r+0x3c>
  107c84:	ae230000 	sw	v1,0(s1)
  107c88:	1000fff9 	b	107c70 <_write_r+0x40>
  107c8c:	dfbf0020 	ld	ra,32(sp)

00107c90 <_calloc_r>:
  107c90:	27bdffe0 	addiu	sp,sp,-32
  107c94:	ffb00000 	sd	s0,0(sp)
  107c98:	ffbf0010 	sd	ra,16(sp)
  107c9c:	0c0415c6 	jal	105718 <_malloc_r>
  107ca0:	00a62818 	mult	a1,a1,a2
  107ca4:	0040802d 	move	s0,v0
  107ca8:	1200001e 	beqz	s0,107d24 <_calloc_r+0x94>
  107cac:	0000102d 	move	v0,zero
  107cb0:	8e02fffc 	lw	v0,-4(s0)
  107cb4:	2403fffc 	li	v1,-4
  107cb8:	00431024 	and	v0,v0,v1
  107cbc:	2446fffc 	addiu	a2,v0,-4
  107cc0:	2cc30025 	sltiu	v1,a2,37
  107cc4:	1060001c 	beqz	v1,107d38 <_calloc_r+0xa8>
  107cc8:	0200202d 	move	a0,s0
  107ccc:	2cc20014 	sltiu	v0,a2,20
  107cd0:	54400010 	bnezl	v0,107d14 <_calloc_r+0x84>
  107cd4:	ac800000 	sw	zero,0(a0)
  107cd8:	2cc2001c 	sltiu	v0,a2,28
  107cdc:	ae000000 	sw	zero,0(s0)
  107ce0:	ae000004 	sw	zero,4(s0)
  107ce4:	1440000a 	bnez	v0,107d10 <_calloc_r+0x80>
  107ce8:	26040008 	addiu	a0,s0,8
  107cec:	2cc20024 	sltiu	v0,a2,36
  107cf0:	ae000008 	sw	zero,8(s0)
  107cf4:	ae00000c 	sw	zero,12(s0)
  107cf8:	14400005 	bnez	v0,107d10 <_calloc_r+0x80>
  107cfc:	26040010 	addiu	a0,s0,16
  107d00:	ae000010 	sw	zero,16(s0)
  107d04:	26040018 	addiu	a0,s0,24
  107d08:	ae000014 	sw	zero,20(s0)
  107d0c:	00000000 	nop
  107d10:	ac800000 	sw	zero,0(a0)
  107d14:	24840004 	addiu	a0,a0,4
  107d18:	ac800004 	sw	zero,4(a0)
  107d1c:	ac800000 	sw	zero,0(a0)
  107d20:	0200102d 	move	v0,s0
  107d24:	dfbf0010 	ld	ra,16(sp)
  107d28:	dfb00000 	ld	s0,0(sp)
  107d2c:	03e00008 	jr	ra
  107d30:	27bd0020 	addiu	sp,sp,32
  107d34:	00000000 	nop
  107d38:	0c04182d 	jal	1060b4 <memset>
  107d3c:	0000282d 	move	a1,zero
  107d40:	1000fff8 	b	107d24 <_calloc_r+0x94>
  107d44:	0200102d 	move	v0,s0

00107d48 <_close_r>:
  107d48:	27bdffd0 	addiu	sp,sp,-48
  107d4c:	ffb10010 	sd	s1,16(sp)
  107d50:	0080882d 	move	s1,a0
  107d54:	ffb00000 	sd	s0,0(sp)
  107d58:	00a0202d 	move	a0,a1
  107d5c:	3c100011 	lui	s0,0x11
  107d60:	ffbf0020 	sd	ra,32(sp)
  107d64:	0c04217e 	jal	1085f8 <_close>
  107d68:	ae002c88 	sw	zero,11400(s0)
  107d6c:	2403ffff 	li	v1,-1
  107d70:	10430007 	beq	v0,v1,107d90 <_close_r+0x48>
  107d74:	8e032c88 	lw	v1,11400(s0)
  107d78:	dfbf0020 	ld	ra,32(sp)
  107d7c:	dfb10010 	ld	s1,16(sp)
  107d80:	dfb00000 	ld	s0,0(sp)
  107d84:	03e00008 	jr	ra
  107d88:	27bd0030 	addiu	sp,sp,48
  107d8c:	00000000 	nop
  107d90:	5460fff9 	bnezl	v1,107d78 <_close_r+0x30>
  107d94:	ae230000 	sw	v1,0(s1)
  107d98:	1000fff8 	b	107d7c <_close_r+0x34>
  107d9c:	dfbf0020 	ld	ra,32(sp)

00107da0 <_fclose_r>:
  107da0:	27bdffc0 	addiu	sp,sp,-64
  107da4:	0000102d 	move	v0,zero
  107da8:	ffb10010 	sd	s1,16(sp)
  107dac:	0080882d 	move	s1,a0
  107db0:	ffb00000 	sd	s0,0(sp)
  107db4:	00a0802d 	move	s0,a1
  107db8:	ffbf0030 	sd	ra,48(sp)
  107dbc:	10a00025 	beqz	a1,107e54 <_fclose_r+0xb4>
  107dc0:	ffb20020 	sd	s2,32(sp)
  107dc4:	0c0411d2 	jal	104748 <__sfp_lock_acquire>
  107dc8:	00000000 	nop
  107dcc:	52200005 	beqzl	s1,107de4 <_fclose_r+0x44>
  107dd0:	8602000c 	lh	v0,12(s0)
  107dd4:	8e220038 	lw	v0,56(s1)
  107dd8:	1040003b 	beqz	v0,107ec8 <_fclose_r+0x128>
  107ddc:	00000000 	nop
  107de0:	8602000c 	lh	v0,12(s0)
  107de4:	10400034 	beqz	v0,107eb8 <_fclose_r+0x118>
  107de8:	9603000c 	lhu	v1,12(s0)
  107dec:	30620008 	andi	v0,v1,0x8
  107df0:	1440002d 	bnez	v0,107ea8 <_fclose_r+0x108>
  107df4:	00000000 	nop
  107df8:	0000902d 	move	s2,zero
  107dfc:	8e02002c 	lw	v0,44(s0)
  107e00:	14400023 	bnez	v0,107e90 <_fclose_r+0xf0>
  107e04:	00000000 	nop
  107e08:	9602000c 	lhu	v0,12(s0)
  107e0c:	30420080 	andi	v0,v0,0x80
  107e10:	5440001b 	bnezl	v0,107e80 <_fclose_r+0xe0>
  107e14:	8e050010 	lw	a1,16(s0)
  107e18:	8e050030 	lw	a1,48(s0)
  107e1c:	50a00008 	beqzl	a1,107e40 <_fclose_r+0xa0>
  107e20:	8e050044 	lw	a1,68(s0)
  107e24:	26020040 	addiu	v0,s0,64
  107e28:	10a20003 	beq	a1,v0,107e38 <_fclose_r+0x98>
  107e2c:	3c020011 	lui	v0,0x11
  107e30:	0c0411f6 	jal	1047d8 <_free_r>
  107e34:	8c440c80 	lw	a0,3200(v0)
  107e38:	ae000030 	sw	zero,48(s0)
  107e3c:	8e050044 	lw	a1,68(s0)
  107e40:	14a0000b 	bnez	a1,107e70 <_fclose_r+0xd0>
  107e44:	3c020011 	lui	v0,0x11
  107e48:	0c0411d4 	jal	104750 <__sfp_lock_release>
  107e4c:	a600000c 	sh	zero,12(s0)
  107e50:	0240102d 	move	v0,s2
  107e54:	dfbf0030 	ld	ra,48(sp)
  107e58:	dfb20020 	ld	s2,32(sp)
  107e5c:	dfb10010 	ld	s1,16(sp)
  107e60:	dfb00000 	ld	s0,0(sp)
  107e64:	03e00008 	jr	ra
  107e68:	27bd0040 	addiu	sp,sp,64
  107e6c:	00000000 	nop
  107e70:	0c0411f6 	jal	1047d8 <_free_r>
  107e74:	8c440c80 	lw	a0,3200(v0)
  107e78:	1000fff3 	b	107e48 <_fclose_r+0xa8>
  107e7c:	ae000044 	sw	zero,68(s0)
  107e80:	0c0411f6 	jal	1047d8 <_free_r>
  107e84:	0220202d 	move	a0,s1
  107e88:	1000ffe4 	b	107e1c <_fclose_r+0x7c>
  107e8c:	8e050030 	lw	a1,48(s0)
  107e90:	0040f809 	jalr	v0
  107e94:	8e04001c 	lw	a0,28(s0)
  107e98:	2403ffff 	li	v1,-1
  107e9c:	28420000 	slti	v0,v0,0
  107ea0:	1000ffd9 	b	107e08 <_fclose_r+0x68>
  107ea4:	0062900b 	movn	s2,v1,v0
  107ea8:	0c0410e6 	jal	104398 <fflush>
  107eac:	0200202d 	move	a0,s0
  107eb0:	1000ffd2 	b	107dfc <_fclose_r+0x5c>
  107eb4:	0040902d 	move	s2,v0
  107eb8:	0c0411d4 	jal	104750 <__sfp_lock_release>
  107ebc:	00000000 	nop
  107ec0:	1000ffe4 	b	107e54 <_fclose_r+0xb4>
  107ec4:	0000102d 	move	v0,zero
  107ec8:	0c0411ac 	jal	1046b0 <__sinit>
  107ecc:	0220202d 	move	a0,s1
  107ed0:	1000ffc4 	b	107de4 <_fclose_r+0x44>
  107ed4:	8602000c 	lh	v0,12(s0)

00107ed8 <fclose>:
  107ed8:	27bdfff0 	addiu	sp,sp,-16
  107edc:	3c020011 	lui	v0,0x11
  107ee0:	ffbf0000 	sd	ra,0(sp)
  107ee4:	0080282d 	move	a1,a0
  107ee8:	0c041f68 	jal	107da0 <_fclose_r>
  107eec:	8c440c80 	lw	a0,3200(v0)
  107ef0:	dfbf0000 	ld	ra,0(sp)
  107ef4:	03e00008 	jr	ra
  107ef8:	27bd0010 	addiu	sp,sp,16
  107efc:	00000000 	nop

00107f00 <_fstat_r>:
  107f00:	27bdffd0 	addiu	sp,sp,-48
  107f04:	00a0102d 	move	v0,a1
  107f08:	ffb10010 	sd	s1,16(sp)
  107f0c:	00c0282d 	move	a1,a2
  107f10:	ffb00000 	sd	s0,0(sp)
  107f14:	0080882d 	move	s1,a0
  107f18:	3c100011 	lui	s0,0x11
  107f1c:	0040202d 	move	a0,v0
  107f20:	ffbf0020 	sd	ra,32(sp)
  107f24:	0c04219c 	jal	108670 <_fstat>
  107f28:	ae002c88 	sw	zero,11400(s0)
  107f2c:	2403ffff 	li	v1,-1
  107f30:	10430007 	beq	v0,v1,107f50 <_fstat_r+0x50>
  107f34:	8e032c88 	lw	v1,11400(s0)
  107f38:	dfbf0020 	ld	ra,32(sp)
  107f3c:	dfb10010 	ld	s1,16(sp)
  107f40:	dfb00000 	ld	s0,0(sp)
  107f44:	03e00008 	jr	ra
  107f48:	27bd0030 	addiu	sp,sp,48
  107f4c:	00000000 	nop
  107f50:	5460fff9 	bnezl	v1,107f38 <_fstat_r+0x38>
  107f54:	ae230000 	sw	v1,0(s1)
  107f58:	1000fff8 	b	107f3c <_fstat_r+0x3c>
  107f5c:	dfbf0020 	ld	ra,32(sp)

00107f60 <_lseek_r>:
  107f60:	27bdffd0 	addiu	sp,sp,-48
  107f64:	00a0102d 	move	v0,a1
  107f68:	ffb10010 	sd	s1,16(sp)
  107f6c:	00c0282d 	move	a1,a2
  107f70:	ffb00000 	sd	s0,0(sp)
  107f74:	0080882d 	move	s1,a0
  107f78:	00e0302d 	move	a2,a3
  107f7c:	3c100011 	lui	s0,0x11
  107f80:	0040202d 	move	a0,v0
  107f84:	ffbf0020 	sd	ra,32(sp)
  107f88:	0c0421e8 	jal	1087a0 <_lseek>
  107f8c:	ae002c88 	sw	zero,11400(s0)
  107f90:	0040182d 	move	v1,v0
  107f94:	2404ffff 	li	a0,-1
  107f98:	10640007 	beq	v1,a0,107fb8 <_lseek_r+0x58>
  107f9c:	0060102d 	move	v0,v1
  107fa0:	dfbf0020 	ld	ra,32(sp)
  107fa4:	dfb10010 	ld	s1,16(sp)
  107fa8:	dfb00000 	ld	s0,0(sp)
  107fac:	03e00008 	jr	ra
  107fb0:	27bd0030 	addiu	sp,sp,48
  107fb4:	00000000 	nop
  107fb8:	8e032c88 	lw	v1,11400(s0)
  107fbc:	5460fff8 	bnezl	v1,107fa0 <_lseek_r+0x40>
  107fc0:	ae230000 	sw	v1,0(s1)
  107fc4:	1000fff7 	b	107fa4 <_lseek_r+0x44>
  107fc8:	dfbf0020 	ld	ra,32(sp)
  107fcc:	00000000 	nop

00107fd0 <_read_r>:
  107fd0:	27bdffd0 	addiu	sp,sp,-48
  107fd4:	00a0102d 	move	v0,a1
  107fd8:	ffb10010 	sd	s1,16(sp)
  107fdc:	00c0282d 	move	a1,a2
  107fe0:	ffb00000 	sd	s0,0(sp)
  107fe4:	0080882d 	move	s1,a0
  107fe8:	00e0302d 	move	a2,a3
  107fec:	3c100011 	lui	s0,0x11
  107ff0:	0040202d 	move	a0,v0
  107ff4:	ffbf0020 	sd	ra,32(sp)
  107ff8:	0c042188 	jal	108620 <_read>
  107ffc:	ae002c88 	sw	zero,11400(s0)
  108000:	2403ffff 	li	v1,-1
  108004:	10430006 	beq	v0,v1,108020 <_read_r+0x50>
  108008:	8e032c88 	lw	v1,11400(s0)
  10800c:	dfbf0020 	ld	ra,32(sp)
  108010:	dfb10010 	ld	s1,16(sp)
  108014:	dfb00000 	ld	s0,0(sp)
  108018:	03e00008 	jr	ra
  10801c:	27bd0030 	addiu	sp,sp,48
  108020:	5460fffa 	bnezl	v1,10800c <_read_r+0x3c>
  108024:	ae230000 	sw	v1,0(s1)
  108028:	1000fff9 	b	108010 <_read_r+0x40>
  10802c:	dfbf0020 	ld	ra,32(sp)

00108030 <cleanup_glue>:
  108030:	27bdffd0 	addiu	sp,sp,-48
  108034:	ffb10010 	sd	s1,16(sp)
  108038:	0080882d 	move	s1,a0
  10803c:	ffb00000 	sd	s0,0(sp)
  108040:	00a0802d 	move	s0,a1
  108044:	ffbf0020 	sd	ra,32(sp)
  108048:	8ca20000 	lw	v0,0(a1)
  10804c:	1440000a 	bnez	v0,108078 <cleanup_glue+0x48>
  108050:	0040282d 	move	a1,v0
  108054:	0220202d 	move	a0,s1
  108058:	0c0411f6 	jal	1047d8 <_free_r>
  10805c:	0200282d 	move	a1,s0
  108060:	dfb00000 	ld	s0,0(sp)
  108064:	dfbf0020 	ld	ra,32(sp)
  108068:	dfb10010 	ld	s1,16(sp)
  10806c:	03e00008 	jr	ra
  108070:	27bd0030 	addiu	sp,sp,48
  108074:	00000000 	nop
  108078:	0c04200c 	jal	108030 <cleanup_glue>
  10807c:	00000000 	nop
  108080:	1000fff5 	b	108058 <cleanup_glue+0x28>
  108084:	0220202d 	move	a0,s1

00108088 <_reclaim_reent>:
  108088:	27bdffc0 	addiu	sp,sp,-64
  10808c:	3c020011 	lui	v0,0x11
  108090:	ffb10010 	sd	s1,16(sp)
  108094:	ffbf0030 	sd	ra,48(sp)
  108098:	ffb20020 	sd	s2,32(sp)
  10809c:	ffb00000 	sd	s0,0(sp)
  1080a0:	8c430c80 	lw	v1,3200(v0)
  1080a4:	10830017 	beq	a0,v1,108104 <_reclaim_reent+0x7c>
  1080a8:	0080882d 	move	s1,a0
  1080ac:	8c83004c 	lw	v1,76(a0)
  1080b0:	14600027 	bnez	v1,108150 <_reclaim_reent+0xc8>
  1080b4:	0000902d 	move	s2,zero
  1080b8:	8e250148 	lw	a1,328(s1)
  1080bc:	50a0000c 	beqzl	a1,1080f0 <_reclaim_reent+0x68>
  1080c0:	8e250054 	lw	a1,84(s1)
  1080c4:	2632014c 	addiu	s2,s1,332
  1080c8:	50b20009 	beql	a1,s2,1080f0 <_reclaim_reent+0x68>
  1080cc:	8e250054 	lw	a1,84(s1)
  1080d0:	00a0802d 	move	s0,a1
  1080d4:	0200282d 	move	a1,s0
  1080d8:	0220202d 	move	a0,s1
  1080dc:	0c0411f6 	jal	1047d8 <_free_r>
  1080e0:	8e100000 	lw	s0,0(s0)
  1080e4:	1612fffc 	bne	s0,s2,1080d8 <_reclaim_reent+0x50>
  1080e8:	0200282d 	move	a1,s0
  1080ec:	8e250054 	lw	a1,84(s1)
  1080f0:	14a00013 	bnez	a1,108140 <_reclaim_reent+0xb8>
  1080f4:	00000000 	nop
  1080f8:	8e220038 	lw	v0,56(s1)
  1080fc:	54400007 	bnezl	v0,10811c <_reclaim_reent+0x94>
  108100:	8e22003c 	lw	v0,60(s1)
  108104:	dfbf0030 	ld	ra,48(sp)
  108108:	dfb20020 	ld	s2,32(sp)
  10810c:	dfb10010 	ld	s1,16(sp)
  108110:	dfb00000 	ld	s0,0(sp)
  108114:	03e00008 	jr	ra
  108118:	27bd0040 	addiu	sp,sp,64
  10811c:	0040f809 	jalr	v0
  108120:	0220202d 	move	a0,s1
  108124:	8e2502e0 	lw	a1,736(s1)
  108128:	50a0fff7 	beqzl	a1,108108 <_reclaim_reent+0x80>
  10812c:	dfbf0030 	ld	ra,48(sp)
  108130:	0c04200c 	jal	108030 <cleanup_glue>
  108134:	0220202d 	move	a0,s1
  108138:	1000fff3 	b	108108 <_reclaim_reent+0x80>
  10813c:	dfbf0030 	ld	ra,48(sp)
  108140:	0c0411f6 	jal	1047d8 <_free_r>
  108144:	0220202d 	move	a0,s1
  108148:	1000ffec 	b	1080fc <_reclaim_reent+0x74>
  10814c:	8e220038 	lw	v0,56(s1)
  108150:	00121080 	sll	v0,s2,0x2
  108154:	00431021 	addu	v0,v0,v1
  108158:	8c500000 	lw	s0,0(v0)
  10815c:	52000008 	beqzl	s0,108180 <_reclaim_reent+0xf8>
  108160:	26520001 	addiu	s2,s2,1
  108164:	0200282d 	move	a1,s0
  108168:	0220202d 	move	a0,s1
  10816c:	0c0411f6 	jal	1047d8 <_free_r>
  108170:	8e100000 	lw	s0,0(s0)
  108174:	1600fffc 	bnez	s0,108168 <_reclaim_reent+0xe0>
  108178:	0200282d 	move	a1,s0
  10817c:	26520001 	addiu	s2,s2,1
  108180:	2a42000f 	slti	v0,s2,15
  108184:	50400003 	beqzl	v0,108194 <_reclaim_reent+0x10c>
  108188:	8e25004c 	lw	a1,76(s1)
  10818c:	1000fff0 	b	108150 <_reclaim_reent+0xc8>
  108190:	8e23004c 	lw	v1,76(s1)
  108194:	0c0411f6 	jal	1047d8 <_free_r>
  108198:	0220202d 	move	a0,s1
  10819c:	1000ffc7 	b	1080bc <_reclaim_reent+0x34>
  1081a0:	8e250148 	lw	a1,328(s1)
  1081a4:	00000000 	nop

001081a8 <_wrapup_reent>:
  1081a8:	27bdffb0 	addiu	sp,sp,-80
  1081ac:	ffb30030 	sd	s3,48(sp)
  1081b0:	0080982d 	move	s3,a0
  1081b4:	ffbf0040 	sd	ra,64(sp)
  1081b8:	ffb20020 	sd	s2,32(sp)
  1081bc:	ffb10010 	sd	s1,16(sp)
  1081c0:	10800021 	beqz	a0,108248 <_wrapup_reent+0xa0>
  1081c4:	ffb00000 	sd	s0,0(sp)
  1081c8:	8e720148 	lw	s2,328(s3)
  1081cc:	52400011 	beqzl	s2,108214 <_wrapup_reent+0x6c>
  1081d0:	8e62003c 	lw	v0,60(s3)
  1081d4:	8e510004 	lw	s1,4(s2)
  1081d8:	2631ffff 	addiu	s1,s1,-1
  1081dc:	06200009 	bltz	s1,108204 <_wrapup_reent+0x5c>
  1081e0:	00111080 	sll	v0,s1,0x2
  1081e4:	00521021 	addu	v0,v0,s2
  1081e8:	24500008 	addiu	s0,v0,8
  1081ec:	8e020000 	lw	v0,0(s0)
  1081f0:	2631ffff 	addiu	s1,s1,-1
  1081f4:	0040f809 	jalr	v0
  1081f8:	2610fffc 	addiu	s0,s0,-4
  1081fc:	0623fffc 	bgezl	s1,1081f0 <_wrapup_reent+0x48>
  108200:	8e020000 	lw	v0,0(s0)
  108204:	8e520000 	lw	s2,0(s2)
  108208:	5640fff3 	bnezl	s2,1081d8 <_wrapup_reent+0x30>
  10820c:	8e510004 	lw	s1,4(s2)
  108210:	8e62003c 	lw	v0,60(s3)
  108214:	14400008 	bnez	v0,108238 <_wrapup_reent+0x90>
  108218:	00000000 	nop
  10821c:	dfbf0040 	ld	ra,64(sp)
  108220:	dfb30030 	ld	s3,48(sp)
  108224:	dfb20020 	ld	s2,32(sp)
  108228:	dfb10010 	ld	s1,16(sp)
  10822c:	dfb00000 	ld	s0,0(sp)
  108230:	03e00008 	jr	ra
  108234:	27bd0050 	addiu	sp,sp,80
  108238:	0040f809 	jalr	v0
  10823c:	0260202d 	move	a0,s3
  108240:	1000fff7 	b	108220 <_wrapup_reent+0x78>
  108244:	dfbf0040 	ld	ra,64(sp)
  108248:	3c020011 	lui	v0,0x11
  10824c:	1000ffde 	b	1081c8 <_wrapup_reent+0x20>
  108250:	8c530c80 	lw	s3,3200(v0)
  108254:	00000000 	nop

00108258 <fioRename>:
  108258:	03e00008 	jr	ra
  10825c:	2402ffa8 	li	v0,-88

00108260 <fioMkdirHelper>:
  108260:	27bdfff0 	addiu	sp,sp,-16
  108264:	ffbf0000 	sd	ra,0(sp)
  108268:	0c0424f0 	jal	1093c0 <fioMkdir>
  10826c:	00000000 	nop
  108270:	dfbf0000 	ld	ra,0(sp)
  108274:	03e00008 	jr	ra
  108278:	27bd0010 	addiu	sp,sp,16
  10827c:	00000000 	nop

00108280 <fioRmdirHelper>:
  108280:	27bdfff0 	addiu	sp,sp,-16
  108284:	ffbf0000 	sd	ra,0(sp)
  108288:	0c042646 	jal	109918 <fioRmdir>
  10828c:	00000000 	nop
  108290:	dfbf0000 	ld	ra,0(sp)
  108294:	03e00008 	jr	ra
  108298:	27bd0010 	addiu	sp,sp,16
  10829c:	00000000 	nop

001082a0 <io_to_posix_time>:
  1082a0:	27bdffc0 	addiu	sp,sp,-64
  1082a4:	0080102d 	move	v0,a0
  1082a8:	ffbf0030 	sd	ra,48(sp)
  1082ac:	03a0202d 	move	a0,sp
  1082b0:	90430007 	lbu	v1,7(v0)
  1082b4:	90450006 	lbu	a1,6(v0)
  1082b8:	90460005 	lbu	a2,5(v0)
  1082bc:	00031a00 	sll	v1,v1,0x8
  1082c0:	90480001 	lbu	t0,1(v0)
  1082c4:	00a32825 	or	a1,a1,v1
  1082c8:	90490002 	lbu	t1,2(v0)
  1082cc:	24c6ffff 	addiu	a2,a2,-1
  1082d0:	90470003 	lbu	a3,3(v0)
  1082d4:	24a5f894 	addiu	a1,a1,-1900
  1082d8:	90430004 	lbu	v1,4(v0)
  1082dc:	afa80000 	sw	t0,0(sp)
  1082e0:	afa90004 	sw	t1,4(sp)
  1082e4:	afa70008 	sw	a3,8(sp)
  1082e8:	afa3000c 	sw	v1,12(sp)
  1082ec:	afa60010 	sw	a2,16(sp)
  1082f0:	0c042eac 	jal	10bab0 <mktime>
  1082f4:	afa50014 	sw	a1,20(sp)
  1082f8:	dfbf0030 	ld	ra,48(sp)
  1082fc:	03e00008 	jr	ra
  108300:	27bd0040 	addiu	sp,sp,64
  108304:	00000000 	nop

00108308 <io_to_posix_mode>:
  108308:	000412c0 	sll	v0,a0,0xb
  10830c:	30850020 	andi	a1,a0,0x20
  108310:	30428000 	andi	v0,v0,0x8000
  108314:	30860004 	andi	a2,a0,0x4
  108318:	34434000 	ori	v1,v0,0x4000
  10831c:	30870002 	andi	a3,a0,0x2
  108320:	0065100b 	movn	v0,v1,a1
  108324:	30840001 	andi	a0,a0,0x1
  108328:	34430124 	ori	v1,v0,0x124
  10832c:	0066100b 	movn	v0,v1,a2
  108330:	34450092 	ori	a1,v0,0x92
  108334:	00a7100b 	movn	v0,a1,a3
  108338:	34430049 	ori	v1,v0,0x49
  10833c:	03e00008 	jr	ra
  108340:	0064100b 	movn	v0,v1,a0
  108344:	00000000 	nop

00108348 <fioGetstatHelper>:
  108348:	27bdffb0 	addiu	sp,sp,-80
  10834c:	ffb00030 	sd	s0,48(sp)
  108350:	00a0802d 	move	s0,a1
  108354:	ffbf0040 	sd	ra,64(sp)
  108358:	0c0425d8 	jal	109760 <fioGetstat>
  10835c:	03a0282d 	move	a1,sp
  108360:	04400021 	bltz	v0,1083e8 <fioGetstatHelper+0xa0>
  108364:	2406ffff 	li	a2,-1
  108368:	8fa40000 	lw	a0,0(sp)
  10836c:	a6000000 	sh	zero,0(s0)
  108370:	0c0420c2 	jal	108308 <io_to_posix_mode>
  108374:	a6000002 	sh	zero,2(s0)
  108378:	a600000e 	sh	zero,14(s0)
  10837c:	9fa30024 	lwu	v1,36(sp)
  108380:	27a40014 	addiu	a0,sp,20
  108384:	9fa50008 	lwu	a1,8(sp)
  108388:	0003183c 	dsll32	v1,v1,0x0
  10838c:	a6000008 	sh	zero,8(s0)
  108390:	00651825 	or	v1,v1,a1
  108394:	ae020004 	sw	v0,4(s0)
  108398:	fe030010 	sd	v1,16(s0)
  10839c:	a600000a 	sh	zero,10(s0)
  1083a0:	0c0420a8 	jal	1082a0 <io_to_posix_time>
  1083a4:	a600000c 	sh	zero,12(s0)
  1083a8:	27a4001c 	addiu	a0,sp,28
  1083ac:	0c0420a8 	jal	1082a0 <io_to_posix_time>
  1083b0:	fe020018 	sd	v0,24(s0)
  1083b4:	27a4000c 	addiu	a0,sp,12
  1083b8:	0c0420a8 	jal	1082a0 <io_to_posix_time>
  1083bc:	fe020028 	sd	v0,40(s0)
  1083c0:	24044000 	li	a0,16384
  1083c4:	de030010 	ld	v1,16(s0)
  1083c8:	0000302d 	move	a2,zero
  1083cc:	fe020038 	sd	v0,56(s0)
  1083d0:	646501ff 	daddiu	a1,v1,511
  1083d4:	28620000 	slti	v0,v1,0
  1083d8:	00a2180b 	movn	v1,a1,v0
  1083dc:	fe040048 	sd	a0,72(s0)
  1083e0:	00031a7b 	dsra	v1,v1,0x9
  1083e4:	fe030050 	sd	v1,80(s0)
  1083e8:	dfbf0040 	ld	ra,64(sp)
  1083ec:	00c0102d 	move	v0,a2
  1083f0:	dfb00030 	ld	s0,48(sp)
  1083f4:	03e00008 	jr	ra
  1083f8:	27bd0050 	addiu	sp,sp,80
  1083fc:	00000000 	nop

00108400 <fioOpendirHelper>:
  108400:	27bdffd0 	addiu	sp,sp,-48
  108404:	ffb10010 	sd	s1,16(sp)
  108408:	ffbf0020 	sd	ra,32(sp)
  10840c:	0c042542 	jal	109508 <fioDopen>
  108410:	ffb00000 	sd	s0,0(sp)
  108414:	0040882d 	move	s1,v0
  108418:	0620000d 	bltz	s1,108450 <fioOpendirHelper+0x50>
  10841c:	0000102d 	move	v0,zero
  108420:	0c042da8 	jal	10b6a0 <malloc>
  108424:	24040028 	li	a0,40
  108428:	24040117 	li	a0,279
  10842c:	ac510000 	sw	s1,0(v0)
  108430:	0040802d 	move	s0,v0
  108434:	fc400008 	sd	zero,8(v0)
  108438:	0c042da8 	jal	10b6a0 <malloc>
  10843c:	fc400010 	sd	zero,16(v0)
  108440:	fe000020 	sd	zero,32(s0)
  108444:	ae00001c 	sw	zero,28(s0)
  108448:	ae020018 	sw	v0,24(s0)
  10844c:	0200102d 	move	v0,s0
  108450:	dfbf0020 	ld	ra,32(sp)
  108454:	dfb10010 	ld	s1,16(sp)
  108458:	dfb00000 	ld	s0,0(sp)
  10845c:	03e00008 	jr	ra
  108460:	27bd0030 	addiu	sp,sp,48
  108464:	00000000 	nop

00108468 <fioReaddirHelper>:
  108468:	27bdfeb0 	addiu	sp,sp,-336
  10846c:	0080102d 	move	v0,a0
  108470:	ffbf0140 	sd	ra,320(sp)
  108474:	0000182d 	move	v1,zero
  108478:	10800010 	beqz	a0,1084bc <fioReaddirHelper+0x54>
  10847c:	ffb00130 	sd	s0,304(sp)
  108480:	8c840000 	lw	a0,0(a0)
  108484:	03a0282d 	move	a1,sp
  108488:	0c04259e 	jal	109678 <fioDread>
  10848c:	8c500018 	lw	s0,24(v0)
  108490:	1840000a 	blez	v0,1084bc <fioReaddirHelper+0x54>
  108494:	0000182d 	move	v1,zero
  108498:	fe000000 	sd	zero,0(s0)
  10849c:	26040012 	addiu	a0,s0,18
  1084a0:	fe000008 	sd	zero,8(s0)
  1084a4:	27a50028 	addiu	a1,sp,40
  1084a8:	a6000010 	sh	zero,16(s0)
  1084ac:	0c042344 	jal	108d10 <strncpy>
  1084b0:	240600ff 	li	a2,255
  1084b4:	a2000111 	sb	zero,273(s0)
  1084b8:	0200182d 	move	v1,s0
  1084bc:	dfbf0140 	ld	ra,320(sp)
  1084c0:	0060102d 	move	v0,v1
  1084c4:	dfb00130 	ld	s0,304(sp)
  1084c8:	03e00008 	jr	ra
  1084cc:	27bd0150 	addiu	sp,sp,336

001084d0 <fioRewinddirHelper>:
  1084d0:	3c040011 	lui	a0,0x11
  1084d4:	27bdfff0 	addiu	sp,sp,-16
  1084d8:	ffbf0000 	sd	ra,0(sp)
  1084dc:	0c0431e2 	jal	10c788 <puts>
  1084e0:	2484f960 	addiu	a0,a0,-1696
  1084e4:	dfbf0000 	ld	ra,0(sp)
  1084e8:	03e00008 	jr	ra
  1084ec:	27bd0010 	addiu	sp,sp,16

001084f0 <fioClosedirHelper>:
  1084f0:	27bdffe0 	addiu	sp,sp,-32
  1084f4:	2402ffff 	li	v0,-1
  1084f8:	ffb00000 	sd	s0,0(sp)
  1084fc:	0080802d 	move	s0,a0
  108500:	10800008 	beqz	a0,108524 <fioClosedirHelper+0x34>
  108504:	ffbf0010 	sd	ra,16(sp)
  108508:	0c042572 	jal	1095c8 <fioDclose>
  10850c:	8c840000 	lw	a0,0(a0)
  108510:	0c042db2 	jal	10b6c8 <free>
  108514:	8e040018 	lw	a0,24(s0)
  108518:	0c042db2 	jal	10b6c8 <free>
  10851c:	0200202d 	move	a0,s0
  108520:	0000102d 	move	v0,zero
  108524:	dfbf0010 	ld	ra,16(sp)
  108528:	dfb00000 	ld	s0,0(sp)
  10852c:	03e00008 	jr	ra
  108530:	27bd0020 	addiu	sp,sp,32
  108534:	00000000 	nop

00108538 <compile_time_check>:
  108538:	03e00008 	jr	ra
  10853c:	00000000 	nop

00108540 <_open>:
  108540:	30a20003 	andi	v0,a1,0x3
  108544:	00a0602d 	move	t4,a1
  108548:	30af4000 	andi	t7,a1,0x4000
  10854c:	384d0001 	xori	t5,v0,0x1
  108550:	2c450001 	sltiu	a1,v0,1
  108554:	318e0008 	andi	t6,t4,0x8
  108558:	34a30002 	ori	v1,a1,0x2
  10855c:	38420002 	xori	v0,v0,0x2
  108560:	006d280a 	movz	a1,v1,t5
  108564:	27bdff90 	addiu	sp,sp,-112
  108568:	34a30003 	ori	v1,a1,0x3
  10856c:	318d0200 	andi	t5,t4,0x200
  108570:	0062280a 	movz	a1,v1,v0
  108574:	ffb00000 	sd	s0,0(sp)
  108578:	34a20010 	ori	v0,a1,0x10
  10857c:	31900400 	andi	s0,t4,0x400
  108580:	004f280b 	movn	a1,v0,t7
  108584:	ffbf0010 	sd	ra,16(sp)
  108588:	34a20100 	ori	v0,a1,0x100
  10858c:	ffa60040 	sd	a2,64(sp)
  108590:	004e280b 	movn	a1,v0,t6
  108594:	ffa70048 	sd	a3,72(sp)
  108598:	34a20200 	ori	v0,a1,0x200
  10859c:	ffa80050 	sd	t0,80(sp)
  1085a0:	004d280b 	movn	a1,v0,t5
  1085a4:	ffa90058 	sd	t1,88(sp)
  1085a8:	34a20400 	ori	v0,a1,0x400
  1085ac:	ffaa0060 	sd	t2,96(sp)
  1085b0:	ffab0068 	sd	t3,104(sp)
  1085b4:	0050280b 	movn	a1,v0,s0
  1085b8:	e7ac0030 	swc1	$f12,48(sp)
  1085bc:	318c0800 	andi	t4,t4,0x800
  1085c0:	e7ae0034 	swc1	$f14,52(sp)
  1085c4:	3c030011 	lui	v1,0x11
  1085c8:	e7b00038 	swc1	$f16,56(sp)
  1085cc:	34a20800 	ori	v0,a1,0x800
  1085d0:	e7b2003c 	swc1	$f18,60(sp)
  1085d4:	004c280b 	movn	a1,v0,t4
  1085d8:	8c622bf4 	lw	v0,11252(v1)
  1085dc:	0040f809 	jalr	v0
  1085e0:	00000000 	nop
  1085e4:	dfb00000 	ld	s0,0(sp)
  1085e8:	dfbf0010 	ld	ra,16(sp)
  1085ec:	03e00008 	jr	ra
  1085f0:	27bd0070 	addiu	sp,sp,112
  1085f4:	00000000 	nop

001085f8 <_close>:
  1085f8:	27bdfff0 	addiu	sp,sp,-16
  1085fc:	3c030011 	lui	v1,0x11
  108600:	ffbf0000 	sd	ra,0(sp)
  108604:	8c622bf0 	lw	v0,11248(v1)
  108608:	0040f809 	jalr	v0
  10860c:	00000000 	nop
  108610:	dfbf0000 	ld	ra,0(sp)
  108614:	03e00008 	jr	ra
  108618:	27bd0010 	addiu	sp,sp,16
  10861c:	00000000 	nop

00108620 <_read>:
  108620:	27bdfff0 	addiu	sp,sp,-16
  108624:	3c030011 	lui	v1,0x11
  108628:	ffbf0000 	sd	ra,0(sp)
  10862c:	8c622bf8 	lw	v0,11256(v1)
  108630:	0040f809 	jalr	v0
  108634:	00000000 	nop
  108638:	dfbf0000 	ld	ra,0(sp)
  10863c:	03e00008 	jr	ra
  108640:	27bd0010 	addiu	sp,sp,16
  108644:	00000000 	nop

00108648 <_write>:
  108648:	27bdfff0 	addiu	sp,sp,-16
  10864c:	3c030011 	lui	v1,0x11
  108650:	ffbf0000 	sd	ra,0(sp)
  108654:	8c622c00 	lw	v0,11264(v1)
  108658:	0040f809 	jalr	v0
  10865c:	00000000 	nop
  108660:	dfbf0000 	ld	ra,0(sp)
  108664:	03e00008 	jr	ra
  108668:	27bd0010 	addiu	sp,sp,16
  10866c:	00000000 	nop

00108670 <_fstat>:
  108670:	2c840002 	sltiu	a0,a0,2
  108674:	50800006 	beqzl	a0,108690 <_fstat+0x20>
  108678:	24024000 	li	v0,16384
  10867c:	24022000 	li	v0,8192
  108680:	fca00048 	sd	zero,72(a1)
  108684:	aca20004 	sw	v0,4(a1)
  108688:	03e00008 	jr	ra
  10868c:	0000102d 	move	v0,zero
  108690:	24036000 	li	v1,24576
  108694:	fca20048 	sd	v0,72(a1)
  108698:	1000fffb 	b	108688 <_fstat+0x18>
  10869c:	aca30004 	sw	v1,4(a1)

001086a0 <_stat>:
  1086a0:	27bdfff0 	addiu	sp,sp,-16
  1086a4:	3c030011 	lui	v1,0x11
  1086a8:	ffbf0000 	sd	ra,0(sp)
  1086ac:	8c622c14 	lw	v0,11284(v1)
  1086b0:	0040f809 	jalr	v0
  1086b4:	00000000 	nop
  1086b8:	dfbf0000 	ld	ra,0(sp)
  1086bc:	03e00008 	jr	ra
  1086c0:	27bd0010 	addiu	sp,sp,16
  1086c4:	00000000 	nop

001086c8 <opendir>:
  1086c8:	27bdfff0 	addiu	sp,sp,-16
  1086cc:	3c030011 	lui	v1,0x11
  1086d0:	ffbf0000 	sd	ra,0(sp)
  1086d4:	8c622c18 	lw	v0,11288(v1)
  1086d8:	0040f809 	jalr	v0
  1086dc:	00000000 	nop
  1086e0:	dfbf0000 	ld	ra,0(sp)
  1086e4:	03e00008 	jr	ra
  1086e8:	27bd0010 	addiu	sp,sp,16
  1086ec:	00000000 	nop

001086f0 <readdir>:
  1086f0:	27bdfff0 	addiu	sp,sp,-16
  1086f4:	3c030011 	lui	v1,0x11
  1086f8:	ffbf0000 	sd	ra,0(sp)
  1086fc:	8c622c1c 	lw	v0,11292(v1)
  108700:	0040f809 	jalr	v0
  108704:	00000000 	nop
  108708:	dfbf0000 	ld	ra,0(sp)
  10870c:	03e00008 	jr	ra
  108710:	27bd0010 	addiu	sp,sp,16
  108714:	00000000 	nop

00108718 <rewinddir>:
  108718:	27bdfff0 	addiu	sp,sp,-16
  10871c:	3c020011 	lui	v0,0x11
  108720:	ffbf0000 	sd	ra,0(sp)
  108724:	8c432c20 	lw	v1,11296(v0)
  108728:	0060f809 	jalr	v1
  10872c:	00000000 	nop
  108730:	dfbf0000 	ld	ra,0(sp)
  108734:	03e00008 	jr	ra
  108738:	27bd0010 	addiu	sp,sp,16
  10873c:	00000000 	nop

00108740 <closedir>:
  108740:	27bdfff0 	addiu	sp,sp,-16
  108744:	3c030011 	lui	v1,0x11
  108748:	ffbf0000 	sd	ra,0(sp)
  10874c:	8c622c24 	lw	v0,11300(v1)
  108750:	0040f809 	jalr	v0
  108754:	00000000 	nop
  108758:	dfbf0000 	ld	ra,0(sp)
  10875c:	03e00008 	jr	ra
  108760:	27bd0010 	addiu	sp,sp,16
  108764:	00000000 	nop

00108768 <isatty>:
  108768:	27bdff80 	addiu	sp,sp,-128
  10876c:	ffbf0070 	sd	ra,112(sp)
  108770:	0c04219c 	jal	108670 <_fstat>
  108774:	03a0282d 	move	a1,sp
  108778:	04400005 	bltz	v0,108790 <isatty+0x28>
  10877c:	0000182d 	move	v1,zero
  108780:	8fa20004 	lw	v0,4(sp)
  108784:	3042f000 	andi	v0,v0,0xf000
  108788:	38422000 	xori	v0,v0,0x2000
  10878c:	2c430001 	sltiu	v1,v0,1
  108790:	dfbf0070 	ld	ra,112(sp)
  108794:	0060102d 	move	v0,v1
  108798:	03e00008 	jr	ra
  10879c:	27bd0080 	addiu	sp,sp,128

001087a0 <_lseek>:
  1087a0:	27bdfff0 	addiu	sp,sp,-16
  1087a4:	3c030011 	lui	v1,0x11
  1087a8:	ffbf0000 	sd	ra,0(sp)
  1087ac:	0005283c 	dsll32	a1,a1,0x0
  1087b0:	0005283f 	dsra32	a1,a1,0x0
  1087b4:	8c622bfc 	lw	v0,11260(v1)
  1087b8:	0040f809 	jalr	v0
  1087bc:	00000000 	nop
  1087c0:	dfbf0000 	ld	ra,0(sp)
  1087c4:	03e00008 	jr	ra
  1087c8:	27bd0010 	addiu	sp,sp,16
  1087cc:	00000000 	nop

001087d0 <chdir>:
  1087d0:	0080282d 	move	a1,a0
  1087d4:	27bdfff0 	addiu	sp,sp,-16
  1087d8:	3c040011 	lui	a0,0x11
  1087dc:	ffbf0000 	sd	ra,0(sp)
  1087e0:	0c04320c 	jal	10c830 <strcpy>
  1087e4:	24841118 	addiu	a0,a0,4376
  1087e8:	dfbf0000 	ld	ra,0(sp)
  1087ec:	0000102d 	move	v0,zero
  1087f0:	03e00008 	jr	ra
  1087f4:	27bd0010 	addiu	sp,sp,16

001087f8 <mkdir>:
  1087f8:	27bdfff0 	addiu	sp,sp,-16
  1087fc:	3c030011 	lui	v1,0x11
  108800:	ffbf0000 	sd	ra,0(sp)
  108804:	8c622c0c 	lw	v0,11276(v1)
  108808:	0040f809 	jalr	v0
  10880c:	00000000 	nop
  108810:	dfbf0000 	ld	ra,0(sp)
  108814:	03e00008 	jr	ra
  108818:	27bd0010 	addiu	sp,sp,16
  10881c:	00000000 	nop

00108820 <rmdir>:
  108820:	27bdfff0 	addiu	sp,sp,-16
  108824:	3c030011 	lui	v1,0x11
  108828:	ffbf0000 	sd	ra,0(sp)
  10882c:	8c622c10 	lw	v0,11280(v1)
  108830:	0040f809 	jalr	v0
  108834:	00000000 	nop
  108838:	dfbf0000 	ld	ra,0(sp)
  10883c:	03e00008 	jr	ra
  108840:	27bd0010 	addiu	sp,sp,16
  108844:	00000000 	nop

00108848 <_link>:
  108848:	27bdfff0 	addiu	sp,sp,-16
  10884c:	3c030011 	lui	v1,0x11
  108850:	ffbf0000 	sd	ra,0(sp)
  108854:	8c622c08 	lw	v0,11272(v1)
  108858:	0040f809 	jalr	v0
  10885c:	00000000 	nop
  108860:	dfbf0000 	ld	ra,0(sp)
  108864:	03e00008 	jr	ra
  108868:	27bd0010 	addiu	sp,sp,16
  10886c:	00000000 	nop

00108870 <_unlink>:
  108870:	27bdfff0 	addiu	sp,sp,-16
  108874:	3c030011 	lui	v1,0x11
  108878:	ffbf0000 	sd	ra,0(sp)
  10887c:	8c622c04 	lw	v0,11268(v1)
  108880:	0040f809 	jalr	v0
  108884:	00000000 	nop
  108888:	dfbf0000 	ld	ra,0(sp)
  10888c:	03e00008 	jr	ra
  108890:	27bd0010 	addiu	sp,sp,16
  108894:	00000000 	nop

00108898 <getcwd>:
  108898:	27bdffe0 	addiu	sp,sp,-32
  10889c:	00a0302d 	move	a2,a1
  1088a0:	3c050011 	lui	a1,0x11
  1088a4:	ffb00000 	sd	s0,0(sp)
  1088a8:	24a51118 	addiu	a1,a1,4376
  1088ac:	ffbf0010 	sd	ra,16(sp)
  1088b0:	0c042344 	jal	108d10 <strncpy>
  1088b4:	0080802d 	move	s0,a0
  1088b8:	0200102d 	move	v0,s0
  1088bc:	dfbf0010 	ld	ra,16(sp)
  1088c0:	dfb00000 	ld	s0,0(sp)
  1088c4:	03e00008 	jr	ra
  1088c8:	27bd0020 	addiu	sp,sp,32
  1088cc:	00000000 	nop

001088d0 <_getpid>:
  1088d0:	27bdfff0 	addiu	sp,sp,-16
  1088d4:	ffbf0000 	sd	ra,0(sp)
  1088d8:	0c042334 	jal	108cd0 <GetThreadId>
  1088dc:	00000000 	nop
  1088e0:	dfbf0000 	ld	ra,0(sp)
  1088e4:	03e00008 	jr	ra
  1088e8:	27bd0010 	addiu	sp,sp,16
  1088ec:	00000000 	nop

001088f0 <_kill>:
  1088f0:	03e00008 	jr	ra
  1088f4:	2402ffff 	li	v0,-1

001088f8 <_sbrk>:
  1088f8:	27bdfff0 	addiu	sp,sp,-16
  1088fc:	ffbf0000 	sd	ra,0(sp)
  108900:	0c04230c 	jal	108c30 <ps2_sbrk>
  108904:	00000000 	nop
  108908:	dfbf0000 	ld	ra,0(sp)
  10890c:	03e00008 	jr	ra
  108910:	27bd0010 	addiu	sp,sp,16
  108914:	00000000 	nop

00108918 <time>:
  108918:	10800003 	beqz	a0,108928 <time+0x10>
  10891c:	2402ffff 	li	v0,-1
  108920:	2403ffff 	li	v1,-1
  108924:	fc830000 	sd	v1,0(a0)
  108928:	03e00008 	jr	ra
  10892c:	00000000 	nop

00108930 <_gettimeofday>:
  108930:	27bdffe0 	addiu	sp,sp,-32
  108934:	ffb00000 	sd	s0,0(sp)
  108938:	0080802d 	move	s0,a0
  10893c:	ffbf0010 	sd	ra,16(sp)
  108940:	10a00003 	beqz	a1,108950 <_gettimeofday+0x20>
  108944:	0000202d 	move	a0,zero
  108948:	aca00004 	sw	zero,4(a1)
  10894c:	aca00000 	sw	zero,0(a1)
  108950:	0c042246 	jal	108918 <time>
  108954:	fe000008 	sd	zero,8(s0)
  108958:	dfbf0010 	ld	ra,16(sp)
  10895c:	0040182d 	move	v1,v0
  108960:	0000102d 	move	v0,zero
  108964:	fe030000 	sd	v1,0(s0)
  108968:	dfb00000 	ld	s0,0(sp)
  10896c:	03e00008 	jr	ra
  108970:	27bd0020 	addiu	sp,sp,32
  108974:	00000000 	nop

00108978 <_times>:
  108978:	27bdffe0 	addiu	sp,sp,-32
  10897c:	ffb00000 	sd	s0,0(sp)
  108980:	ffbf0010 	sd	ra,16(sp)
  108984:	0c0422c6 	jal	108b18 <ps2_clock>
  108988:	0080802d 	move	s0,a0
  10898c:	0040202d 	move	a0,v0
  108990:	0c0436b2 	jal	10dac8 <__udivdi3>
  108994:	24050240 	li	a1,576
  108998:	12000004 	beqz	s0,1089ac <_times+0x34>
  10899c:	dfbf0010 	ld	ra,16(sp)
  1089a0:	fe000010 	sd	zero,16(s0)
  1089a4:	fe020000 	sd	v0,0(s0)
  1089a8:	fe000008 	sd	zero,8(s0)
  1089ac:	dfb00000 	ld	s0,0(sp)
  1089b0:	03e00008 	jr	ra
  1089b4:	27bd0020 	addiu	sp,sp,32

001089b8 <random>:
  1089b8:	27bdfff0 	addiu	sp,sp,-16
  1089bc:	ffbf0000 	sd	ra,0(sp)
  1089c0:	0c0431f2 	jal	10c7c8 <rand>
  1089c4:	00000000 	nop
  1089c8:	dfbf0000 	ld	ra,0(sp)
  1089cc:	03e00008 	jr	ra
  1089d0:	27bd0010 	addiu	sp,sp,16
  1089d4:	00000000 	nop

001089d8 <srandom>:
  1089d8:	27bdfff0 	addiu	sp,sp,-16
  1089dc:	ffbf0000 	sd	ra,0(sp)
  1089e0:	0c0431ec 	jal	10c7b0 <srand>
  1089e4:	00000000 	nop
  1089e8:	dfbf0000 	ld	ra,0(sp)
  1089ec:	03e00008 	jr	ra
  1089f0:	27bd0010 	addiu	sp,sp,16
  1089f4:	00000000 	nop

001089f8 <intrOverflow>:
  1089f8:	3c041000 	lui	a0,0x1000
  1089fc:	3c050011 	lui	a1,0x11
  108a00:	34840810 	ori	a0,a0,0x810
  108a04:	dca21220 	ld	v0,4640(a1)
  108a08:	8c830000 	lw	v1,0(a0)
  108a0c:	64420001 	daddiu	v0,v0,1
  108a10:	34630800 	ori	v1,v1,0x800
  108a14:	fca21220 	sd	v0,4640(a1)
  108a18:	ac830000 	sw	v1,0(a0)
  108a1c:	0000000f 	sync
  108a20:	42000038 	ei
  108a24:	03e00008 	jr	ra
  108a28:	2402ffff 	li	v0,-1
  108a2c:	00000000 	nop

00108a30 <_ps2sdk_time_init>:
  108a30:	27bdffe0 	addiu	sp,sp,-32
  108a34:	3c031000 	lui	v1,0x1000
  108a38:	ffb00000 	sd	s0,0(sp)
  108a3c:	3c050011 	lui	a1,0x11
  108a40:	3c100011 	lui	s0,0x11
  108a44:	34630810 	ori	v1,v1,0x810
  108a48:	8e071218 	lw	a3,4632(s0)
  108a4c:	2402ffff 	li	v0,-1
  108a50:	ffbf0010 	sd	ra,16(sp)
  108a54:	24a589f8 	addiu	a1,a1,-30216
  108a58:	2404000a 	li	a0,10
  108a5c:	0000302d 	move	a2,zero
  108a60:	10e2000d 	beq	a3,v0,108a98 <_ps2sdk_time_init+0x68>
  108a64:	ac600000 	sw	zero,0(v1)
  108a68:	3c021000 	lui	v0,0x1000
  108a6c:	dfbf0010 	ld	ra,16(sp)
  108a70:	34420800 	ori	v0,v0,0x800
  108a74:	dfb00000 	ld	s0,0(sp)
  108a78:	ac400000 	sw	zero,0(v0)
  108a7c:	3c030011 	lui	v1,0x11
  108a80:	24020282 	li	v0,642
  108a84:	fc601220 	sd	zero,4640(v1)
  108a88:	3c011000 	lui	at,0x1000
  108a8c:	ac220810 	sw	v0,2064(at)
  108a90:	03e00008 	jr	ra
  108a94:	27bd0020 	addiu	sp,sp,32
  108a98:	0c04232c 	jal	108cb0 <AddIntcHandler>
  108a9c:	00000000 	nop
  108aa0:	2404000a 	li	a0,10
  108aa4:	0c04268c 	jal	109a30 <EnableIntc>
  108aa8:	ae021218 	sw	v0,4632(s0)
  108aac:	1000ffef 	b	108a6c <_ps2sdk_time_init+0x3c>
  108ab0:	3c021000 	lui	v0,0x1000
  108ab4:	00000000 	nop

00108ab8 <_ps2sdk_time_deinit>:
  108ab8:	27bdffe0 	addiu	sp,sp,-32
  108abc:	3c021000 	lui	v0,0x1000
  108ac0:	ffb00000 	sd	s0,0(sp)
  108ac4:	34420810 	ori	v0,v0,0x810
  108ac8:	3c100011 	lui	s0,0x11
  108acc:	ffbf0010 	sd	ra,16(sp)
  108ad0:	8e031218 	lw	v1,4632(s0)
  108ad4:	2404000a 	li	a0,10
  108ad8:	ac400000 	sw	zero,0(v0)
  108adc:	04600009 	bltz	v1,108b04 <_ps2sdk_time_deinit+0x4c>
  108ae0:	dfbf0010 	ld	ra,16(sp)
  108ae4:	0c0426aa 	jal	109aa8 <DisableIntc>
  108ae8:	00000000 	nop
  108aec:	8e051218 	lw	a1,4632(s0)
  108af0:	0c042330 	jal	108cc0 <RemoveIntcHandler>
  108af4:	2404000a 	li	a0,10
  108af8:	2403ffff 	li	v1,-1
  108afc:	ae031218 	sw	v1,4632(s0)
  108b00:	dfbf0010 	ld	ra,16(sp)
  108b04:	3c020011 	lui	v0,0x11
  108b08:	dfb00000 	ld	s0,0(sp)
  108b0c:	fc401220 	sd	zero,4640(v0)
  108b10:	03e00008 	jr	ra
  108b14:	27bd0020 	addiu	sp,sp,32

00108b18 <ps2_clock>:
  108b18:	3c041000 	lui	a0,0x1000
  108b1c:	3c020011 	lui	v0,0x11
  108b20:	34840800 	ori	a0,a0,0x800
  108b24:	dc431220 	ld	v1,4640(v0)
  108b28:	8c820000 	lw	v0,0(a0)
  108b2c:	00031c38 	dsll	v1,v1,0x10
  108b30:	0002103c 	dsll32	v0,v0,0x0
  108b34:	0002103e 	dsrl32	v0,v0,0x0
  108b38:	03e00008 	jr	ra
  108b3c:	0043102d 	daddu	v0,v0,v1

00108b40 <_ps2sdk_libc_init>:
  108b40:	27bdfff0 	addiu	sp,sp,-16
  108b44:	ffbf0000 	sd	ra,0(sp)
  108b48:	0c04228c 	jal	108a30 <_ps2sdk_time_init>
  108b4c:	00000000 	nop
  108b50:	dfbf0000 	ld	ra,0(sp)
  108b54:	03e00008 	jr	ra
  108b58:	27bd0010 	addiu	sp,sp,16
  108b5c:	00000000 	nop

00108b60 <_ps2sdk_libc_deinit>:
  108b60:	27bdfff0 	addiu	sp,sp,-16
  108b64:	ffbf0000 	sd	ra,0(sp)
  108b68:	0c0422ae 	jal	108ab8 <_ps2sdk_time_deinit>
  108b6c:	00000000 	nop
  108b70:	dfbf0000 	ld	ra,0(sp)
  108b74:	03e00008 	jr	ra
  108b78:	27bd0010 	addiu	sp,sp,16
  108b7c:	00000000 	nop

00108b80 <_ps2sdk_args_parse>:
  108b80:	27bdffd0 	addiu	sp,sp,-48
  108b84:	ffbf0020 	sd	ra,32(sp)
  108b88:	ffb10010 	sd	s1,16(sp)
  108b8c:	10800022 	beqz	a0,108c18 <_ps2sdk_args_parse+0x98>
  108b90:	ffb00000 	sd	s0,0(sp)
  108b94:	8ca30000 	lw	v1,0(a1)
  108b98:	90620000 	lbu	v0,0(v1)
  108b9c:	00021600 	sll	v0,v0,0x18
  108ba0:	10400010 	beqz	v0,108be4 <_ps2sdk_args_parse+0x64>
  108ba4:	0000882d 	move	s1,zero
  108ba8:	2404002f 	li	a0,47
  108bac:	2406005c 	li	a2,92
  108bb0:	2407003a 	li	a3,58
  108bb4:	00021603 	sra	v0,v0,0x18
  108bb8:	50440005 	beql	v0,a0,108bd0 <_ps2sdk_args_parse+0x50>
  108bbc:	0060882d 	move	s1,v1
  108bc0:	50460003 	beql	v0,a2,108bd0 <_ps2sdk_args_parse+0x50>
  108bc4:	0060882d 	move	s1,v1
  108bc8:	50470001 	beql	v0,a3,108bd0 <_ps2sdk_args_parse+0x50>
  108bcc:	0060882d 	move	s1,v1
  108bd0:	24630001 	addiu	v1,v1,1
  108bd4:	90620000 	lbu	v0,0(v1)
  108bd8:	00021600 	sll	v0,v0,0x18
  108bdc:	1440fff6 	bnez	v0,108bb8 <_ps2sdk_args_parse+0x38>
  108be0:	00021603 	sra	v0,v0,0x18
  108be4:	1220000c 	beqz	s1,108c18 <_ps2sdk_args_parse+0x98>
  108be8:	26310001 	addiu	s1,s1,1
  108bec:	82300000 	lb	s0,0(s1)
  108bf0:	a2200000 	sb	zero,0(s1)
  108bf4:	0c0421f4 	jal	1087d0 <chdir>
  108bf8:	8ca40000 	lw	a0,0(a1)
  108bfc:	a2300000 	sb	s0,0(s1)
  108c00:	dfbf0020 	ld	ra,32(sp)
  108c04:	dfb10010 	ld	s1,16(sp)
  108c08:	dfb00000 	ld	s0,0(sp)
  108c0c:	03e00008 	jr	ra
  108c10:	27bd0030 	addiu	sp,sp,48
  108c14:	00000000 	nop
  108c18:	3c040011 	lui	a0,0x11
  108c1c:	0c0421f4 	jal	1087d0 <chdir>
  108c20:	2484f980 	addiu	a0,a0,-1664
  108c24:	1000fff7 	b	108c04 <_ps2sdk_args_parse+0x84>
  108c28:	dfbf0020 	ld	ra,32(sp)
  108c2c:	00000000 	nop

00108c30 <ps2_sbrk>:
  108c30:	27bdffc0 	addiu	sp,sp,-64
  108c34:	ffb20020 	sd	s2,32(sp)
  108c38:	2412ffff 	li	s2,-1
  108c3c:	ffb10010 	sd	s1,16(sp)
  108c40:	3c110011 	lui	s1,0x11
  108c44:	ffbf0030 	sd	ra,48(sp)
  108c48:	14800009 	bnez	a0,108c70 <ps2_sbrk+0x40>
  108c4c:	ffb00000 	sd	s0,0(sp)
  108c50:	8e221228 	lw	v0,4648(s1)
  108c54:	dfbf0030 	ld	ra,48(sp)
  108c58:	dfb20020 	ld	s2,32(sp)
  108c5c:	dfb10010 	ld	s1,16(sp)
  108c60:	dfb00000 	ld	s0,0(sp)
  108c64:	03e00008 	jr	ra
  108c68:	27bd0040 	addiu	sp,sp,64
  108c6c:	00000000 	nop
  108c70:	8e221228 	lw	v0,4648(s1)
  108c74:	0c042338 	jal	108ce0 <EndOfHeap>
  108c78:	00448021 	addu	s0,v0,a0
  108c7c:	0050102b 	sltu	v0,v0,s0
  108c80:	5440fff4 	bnezl	v0,108c54 <ps2_sbrk+0x24>
  108c84:	0240102d 	move	v0,s2
  108c88:	8e321228 	lw	s2,4648(s1)
  108c8c:	ae301228 	sw	s0,4648(s1)
  108c90:	1000fff0 	b	108c54 <ps2_sbrk+0x24>
  108c94:	0240102d 	move	v0,s2
	...

00108ca0 <SetGsCrt>:
  108ca0:	24030002 	li	v1,2
  108ca4:	0000000c 	syscall
  108ca8:	03e00008 	jr	ra
  108cac:	00000000 	nop

00108cb0 <AddIntcHandler>:
  108cb0:	24030010 	li	v1,16
  108cb4:	0000000c 	syscall
  108cb8:	03e00008 	jr	ra
  108cbc:	00000000 	nop

00108cc0 <RemoveIntcHandler>:
  108cc0:	24030011 	li	v1,17
  108cc4:	0000000c 	syscall
  108cc8:	03e00008 	jr	ra
  108ccc:	00000000 	nop

00108cd0 <GetThreadId>:
  108cd0:	2403002f 	li	v1,47
  108cd4:	0000000c 	syscall
  108cd8:	03e00008 	jr	ra
  108cdc:	00000000 	nop

00108ce0 <EndOfHeap>:
  108ce0:	2403003e 	li	v1,62
  108ce4:	0000000c 	syscall
  108ce8:	03e00008 	jr	ra
  108cec:	00000000 	nop

00108cf0 <FlushCache>:
  108cf0:	24030064 	li	v1,100
  108cf4:	0000000c 	syscall
  108cf8:	03e00008 	jr	ra
  108cfc:	00000000 	nop

00108d00 <GsPutIMR>:
  108d00:	24030071 	li	v1,113
  108d04:	0000000c 	syscall
  108d08:	03e00008 	jr	ra
  108d0c:	00000000 	nop

00108d10 <strncpy>:
  108d10:	0080402d 	move	t0,a0
  108d14:	00a43825 	or	a3,a1,a0
  108d18:	240a0010 	li	t2,16
  108d1c:	30e20007 	andi	v0,a3,0x7
  108d20:	24090008 	li	t1,8
  108d24:	14400054 	bnez	v0,108e78 <strncpy+0x168>
  108d28:	30e2000f 	andi	v0,a3,0xf
  108d2c:	0142480a 	movz	t1,t2,v0
  108d30:	1440002c 	bnez	v0,108de4 <strncpy+0xd4>
  108d34:	00c9102b 	sltu	v0,a2,t1
  108d38:	1440004f 	bnez	v0,108e78 <strncpy+0x168>
  108d3c:	00000000 	nop
  108d40:	3c070101 	lui	a3,0x101
  108d44:	34e70101 	ori	a3,a3,0x101
  108d48:	00073c38 	dsll	a3,a3,0x10
  108d4c:	34e70101 	ori	a3,a3,0x101
  108d50:	00073c38 	dsll	a3,a3,0x10
  108d54:	34e70101 	ori	a3,a3,0x101
  108d58:	78a30000 	lq	v1,0(a1)
  108d5c:	70e74b89 	pcpyld	t1,a3,a3
  108d60:	70031ce9 	pnor	v1,zero,v1
  108d64:	3c078080 	lui	a3,0x8080
  108d68:	34e78080 	ori	a3,a3,0x8080
  108d6c:	00073c38 	dsll	a3,a3,0x10
  108d70:	34e78080 	ori	a3,a3,0x8080
  108d74:	00073c38 	dsll	a3,a3,0x10
  108d78:	34e78080 	ori	a3,a3,0x8080
  108d7c:	70691248 	psubb	v0,v1,t1
  108d80:	70e75389 	pcpyld	t2,a3,a3
  108d84:	70431489 	pand	v0,v0,v1
  108d88:	704a1489 	pand	v0,v0,t2
  108d8c:	70441ba9 	pcpyud	v1,v0,a0
  108d90:	00431825 	or	v1,v0,v1
  108d94:	14600037 	bnez	v1,108e74 <strncpy+0x164>
  108d98:	0100382d 	move	a3,t0
  108d9c:	78a30000 	lq	v1,0(a1)
  108da0:	24c6fff0 	addiu	a2,a2,-16
  108da4:	24a50010 	addiu	a1,a1,16
  108da8:	2cc20010 	sltiu	v0,a2,16
  108dac:	7ce30000 	sq	v1,0(a3)
  108db0:	14400030 	bnez	v0,108e74 <strncpy+0x164>
  108db4:	24e70010 	addiu	a3,a3,16
  108db8:	78a20000 	lq	v0,0(a1)
  108dbc:	70021ce9 	pnor	v1,zero,v0
  108dc0:	70491248 	psubb	v0,v0,t1
  108dc4:	70431489 	pand	v0,v0,v1
  108dc8:	704a1489 	pand	v0,v0,t2
  108dcc:	70441ba9 	pcpyud	v1,v0,a0
  108dd0:	00431025 	or	v0,v0,v1
  108dd4:	5040001a 	beqzl	v0,108e40 <strncpy+0x130>
  108dd8:	78a30000 	lq	v1,0(a1)
  108ddc:	10000026 	b	108e78 <strncpy+0x168>
  108de0:	00e0202d 	move	a0,a3
  108de4:	14400024 	bnez	v0,108e78 <strncpy+0x168>
  108de8:	00000000 	nop
  108dec:	dca30000 	ld	v1,0(a1)
  108df0:	3c090101 	lui	t1,0x101
  108df4:	35290101 	ori	t1,t1,0x101
  108df8:	00094c38 	dsll	t1,t1,0x10
  108dfc:	35290101 	ori	t1,t1,0x101
  108e00:	00094c38 	dsll	t1,t1,0x10
  108e04:	35290101 	ori	t1,t1,0x101
  108e08:	3c0a8080 	lui	t2,0x8080
  108e0c:	354a8080 	ori	t2,t2,0x8080
  108e10:	000a5438 	dsll	t2,t2,0x10
  108e14:	354a8080 	ori	t2,t2,0x8080
  108e18:	000a5438 	dsll	t2,t2,0x10
  108e1c:	354a8080 	ori	t2,t2,0x8080
  108e20:	0069102f 	dsubu	v0,v1,t1
  108e24:	00031827 	nor	v1,zero,v1
  108e28:	00431024 	and	v0,v0,v1
  108e2c:	004a1024 	and	v0,v0,t2
  108e30:	14400010 	bnez	v0,108e74 <strncpy+0x164>
  108e34:	0100382d 	move	a3,t0
  108e38:	dca30000 	ld	v1,0(a1)
  108e3c:	00000000 	nop
  108e40:	24c6fff8 	addiu	a2,a2,-8
  108e44:	24a50008 	addiu	a1,a1,8
  108e48:	2cc20008 	sltiu	v0,a2,8
  108e4c:	fce30000 	sd	v1,0(a3)
  108e50:	14400008 	bnez	v0,108e74 <strncpy+0x164>
  108e54:	24e70008 	addiu	a3,a3,8
  108e58:	dca20000 	ld	v0,0(a1)
  108e5c:	00021827 	nor	v1,zero,v0
  108e60:	0049102f 	dsubu	v0,v0,t1
  108e64:	00431024 	and	v0,v0,v1
  108e68:	004a1024 	and	v0,v0,t2
  108e6c:	5040fff4 	beqzl	v0,108e40 <strncpy+0x130>
  108e70:	dca30000 	ld	v1,0(a1)
  108e74:	00e0202d 	move	a0,a3
  108e78:	10c00012 	beqz	a2,108ec4 <strncpy+0x1b4>
  108e7c:	00c0102d 	move	v0,a2
  108e80:	90a20000 	lbu	v0,0(a1)
  108e84:	24c6ffff 	addiu	a2,a2,-1
  108e88:	24a50001 	addiu	a1,a1,1
  108e8c:	a0820000 	sb	v0,0(a0)
  108e90:	00021600 	sll	v0,v0,0x18
  108e94:	1440fff8 	bnez	v0,108e78 <strncpy+0x168>
  108e98:	24840001 	addiu	a0,a0,1
  108e9c:	00c0102d 	move	v0,a2
  108ea0:	10400008 	beqz	v0,108ec4 <strncpy+0x1b4>
  108ea4:	24c6ffff 	addiu	a2,a2,-1
  108ea8:	a0800000 	sb	zero,0(a0)
  108eac:	00c0102d 	move	v0,a2
  108eb0:	24840001 	addiu	a0,a0,1
	...
  108ebc:	1440fffa 	bnez	v0,108ea8 <strncpy+0x198>
  108ec0:	24c6ffff 	addiu	a2,a2,-1
  108ec4:	03e00008 	jr	ra
  108ec8:	0100102d 	move	v0,t0
  108ecc:	00000000 	nop

00108ed0 <fioOpen>:
  108ed0:	27bdfe80 	addiu	sp,sp,-384
  108ed4:	ffb10130 	sd	s1,304(sp)
  108ed8:	00a0882d 	move	s1,a1
  108edc:	ffb00120 	sd	s0,288(sp)
  108ee0:	0080802d 	move	s0,a0
  108ee4:	ffbf0170 	sd	ra,368(sp)
  108ee8:	ffb40160 	sd	s4,352(sp)
  108eec:	ffb30150 	sd	s3,336(sp)
  108ef0:	0c042ab4 	jal	10aad0 <fioInit>
  108ef4:	ffb20140 	sd	s2,320(sp)
  108ef8:	04400025 	bltz	v0,108f90 <fioOpen+0xc0>
  108efc:	0040482d 	move	t1,v0
  108f00:	3c020011 	lui	v0,0x11
  108f04:	3c140011 	lui	s4,0x11
  108f08:	8c4429fc 	lw	a0,10748(v0)
  108f0c:	3c120011 	lui	s2,0x11
  108f10:	0c0428b4 	jal	10a2d0 <WaitSema>
  108f14:	3c130011 	lui	s3,0x11
  108f18:	0c0428b4 	jal	10a2d0 <WaitSema>
  108f1c:	8e842a00 	lw	a0,10752(s4)
  108f20:	afb10010 	sw	s1,16(sp)
  108f24:	240600ff 	li	a2,255
  108f28:	0200282d 	move	a1,s0
  108f2c:	0c042344 	jal	108d10 <strncpy>
  108f30:	27a40014 	addiu	a0,sp,20
  108f34:	afa00000 	sw	zero,0(sp)
  108f38:	3c0b0011 	lui	t3,0x11
  108f3c:	3c040011 	lui	a0,0x11
  108f40:	8e462c90 	lw	a2,11408(s2)
  108f44:	240a0004 	li	t2,4
  108f48:	26694ec0 	addiu	t1,s3,20160
  108f4c:	256bac08 	addiu	t3,t3,-21496
  108f50:	24844e00 	addiu	a0,a0,19968
  108f54:	0000282d 	move	a1,zero
  108f58:	27a70010 	addiu	a3,sp,16
  108f5c:	24080110 	li	t0,272
  108f60:	0c0428f8 	jal	10a3e0 <SifCallRpc>
  108f64:	a3a00113 	sb	zero,275(sp)
  108f68:	04400012 	bltz	v0,108fb4 <fioOpen+0xe4>
  108f6c:	8e634ec0 	lw	v1,20160(s3)
  108f70:	8e422c90 	lw	v0,11408(s2)
  108f74:	0000802d 	move	s0,zero
  108f78:	38420001 	xori	v0,v0,0x1
  108f7c:	0062800b 	movn	s0,v1,v0
  108f80:	3c020011 	lui	v0,0x11
  108f84:	0c0428b0 	jal	10a2c0 <SignalSema>
  108f88:	8c4429fc 	lw	a0,10748(v0)
  108f8c:	0200482d 	move	t1,s0
  108f90:	dfbf0170 	ld	ra,368(sp)
  108f94:	0120102d 	move	v0,t1
  108f98:	dfb40160 	ld	s4,352(sp)
  108f9c:	dfb30150 	ld	s3,336(sp)
  108fa0:	dfb20140 	ld	s2,320(sp)
  108fa4:	dfb10130 	ld	s1,304(sp)
  108fa8:	dfb00120 	ld	s0,288(sp)
  108fac:	03e00008 	jr	ra
  108fb0:	27bd0180 	addiu	sp,sp,384
  108fb4:	8e842a00 	lw	a0,10752(s4)
  108fb8:	0c0428b0 	jal	10a2c0 <SignalSema>
  108fbc:	0040802d 	move	s0,v0
  108fc0:	1000fff0 	b	108f84 <fioOpen+0xb4>
  108fc4:	3c020011 	lui	v0,0x11

00108fc8 <fioClose>:
  108fc8:	27bdffb0 	addiu	sp,sp,-80
  108fcc:	ffb00020 	sd	s0,32(sp)
  108fd0:	0080802d 	move	s0,a0
  108fd4:	ffbf0040 	sd	ra,64(sp)
  108fd8:	0c042ab4 	jal	10aad0 <fioInit>
  108fdc:	ffb10030 	sd	s1,48(sp)
  108fe0:	0440001b 	bltz	v0,109050 <fioClose+0x88>
  108fe4:	0040182d 	move	v1,v0
  108fe8:	3c020011 	lui	v0,0x11
  108fec:	3c110011 	lui	s1,0x11
  108ff0:	0c0428b4 	jal	10a2d0 <WaitSema>
  108ff4:	8c4429fc 	lw	a0,10748(v0)
  108ff8:	0c0428b4 	jal	10a2d0 <WaitSema>
  108ffc:	8e242a00 	lw	a0,10752(s1)
  109000:	afa00000 	sw	zero,0(sp)
  109004:	27a70010 	addiu	a3,sp,16
  109008:	3c0b0011 	lui	t3,0x11
  10900c:	3c040011 	lui	a0,0x11
  109010:	240a0004 	li	t2,4
  109014:	256bac08 	addiu	t3,t3,-21496
  109018:	24844e00 	addiu	a0,a0,19968
  10901c:	24050001 	li	a1,1
  109020:	0000302d 	move	a2,zero
  109024:	24080004 	li	t0,4
  109028:	00e0482d 	move	t1,a3
  10902c:	0c0428f8 	jal	10a3e0 <SifCallRpc>
  109030:	afb00010 	sw	s0,16(sp)
  109034:	0440000c 	bltz	v0,109068 <fioClose+0xa0>
  109038:	8e242a00 	lw	a0,10752(s1)
  10903c:	8fb00010 	lw	s0,16(sp)
  109040:	3c020011 	lui	v0,0x11
  109044:	0c0428b0 	jal	10a2c0 <SignalSema>
  109048:	8c4429fc 	lw	a0,10748(v0)
  10904c:	0200182d 	move	v1,s0
  109050:	dfbf0040 	ld	ra,64(sp)
  109054:	0060102d 	move	v0,v1
  109058:	dfb10030 	ld	s1,48(sp)
  10905c:	dfb00020 	ld	s0,32(sp)
  109060:	03e00008 	jr	ra
  109064:	27bd0050 	addiu	sp,sp,80
  109068:	0c0428b0 	jal	10a2c0 <SignalSema>
  10906c:	0040802d 	move	s0,v0
  109070:	1000fff4 	b	109044 <fioClose+0x7c>
  109074:	3c020011 	lui	v0,0x11

00109078 <fioRead>:
  109078:	27bdff60 	addiu	sp,sp,-160
  10907c:	ffb20040 	sd	s2,64(sp)
  109080:	0080902d 	move	s2,a0
  109084:	ffb10030 	sd	s1,48(sp)
  109088:	00c0882d 	move	s1,a2
  10908c:	ffb00020 	sd	s0,32(sp)
  109090:	00a0802d 	move	s0,a1
  109094:	ffbf0090 	sd	ra,144(sp)
  109098:	ffb60080 	sd	s6,128(sp)
  10909c:	ffb50070 	sd	s5,112(sp)
  1090a0:	ffb40060 	sd	s4,96(sp)
  1090a4:	0c042ab4 	jal	10aad0 <fioInit>
  1090a8:	ffb30050 	sd	s3,80(sp)
  1090ac:	0440002a 	bltz	v0,109158 <fioRead+0xe0>
  1090b0:	0040482d 	move	t1,v0
  1090b4:	3c020011 	lui	v0,0x11
  1090b8:	3c160011 	lui	s6,0x11
  1090bc:	8c4429fc 	lw	a0,10748(v0)
  1090c0:	3c140011 	lui	s4,0x11
  1090c4:	0c0428b4 	jal	10a2d0 <WaitSema>
  1090c8:	3c150011 	lui	s5,0x11
  1090cc:	0c0428b4 	jal	10a2d0 <WaitSema>
  1090d0:	8ec42a00 	lw	a0,10752(s6)
  1090d4:	afb10018 	sw	s1,24(sp)
  1090d8:	3c032000 	lui	v1,0x2000
  1090dc:	3c020011 	lui	v0,0x11
  1090e0:	24534e40 	addiu	s3,v0,20032
  1090e4:	02031824 	and	v1,s0,v1
  1090e8:	0200202d 	move	a0,s0
  1090ec:	0220282d 	move	a1,s1
  1090f0:	afb20010 	sw	s2,16(sp)
  1090f4:	afb00014 	sw	s0,20(sp)
  1090f8:	10600027 	beqz	v1,109198 <fioRead+0x120>
  1090fc:	afb3001c 	sw	s3,28(sp)
  109100:	3c0b0011 	lui	t3,0x11
  109104:	3c040011 	lui	a0,0x11
  109108:	8e862c90 	lw	a2,11408(s4)
  10910c:	26a94ec0 	addiu	t1,s5,20160
  109110:	24050002 	li	a1,2
  109114:	27a70010 	addiu	a3,sp,16
  109118:	24080010 	li	t0,16
  10911c:	240a0004 	li	t2,4
  109120:	256b9480 	addiu	t3,t3,-27520
  109124:	24844e00 	addiu	a0,a0,19968
  109128:	0c0428f8 	jal	10a3e0 <SifCallRpc>
  10912c:	afb30000 	sw	s3,0(sp)
  109130:	04400014 	bltz	v0,109184 <fioRead+0x10c>
  109134:	8ea34ec0 	lw	v1,20160(s5)
  109138:	8e822c90 	lw	v0,11408(s4)
  10913c:	0000802d 	move	s0,zero
  109140:	38420001 	xori	v0,v0,0x1
  109144:	0062800b 	movn	s0,v1,v0
  109148:	3c020011 	lui	v0,0x11
  10914c:	0c0428b0 	jal	10a2c0 <SignalSema>
  109150:	8c4429fc 	lw	a0,10748(v0)
  109154:	0200482d 	move	t1,s0
  109158:	dfbf0090 	ld	ra,144(sp)
  10915c:	0120102d 	move	v0,t1
  109160:	dfb60080 	ld	s6,128(sp)
  109164:	dfb50070 	ld	s5,112(sp)
  109168:	dfb40060 	ld	s4,96(sp)
  10916c:	dfb30050 	ld	s3,80(sp)
  109170:	dfb20040 	ld	s2,64(sp)
  109174:	dfb10030 	ld	s1,48(sp)
  109178:	dfb00020 	ld	s0,32(sp)
  10917c:	03e00008 	jr	ra
  109180:	27bd00a0 	addiu	sp,sp,160
  109184:	8ec42a00 	lw	a0,10752(s6)
  109188:	0c0428b0 	jal	10a2c0 <SignalSema>
  10918c:	0040802d 	move	s0,v0
  109190:	1000ffee 	b	10914c <fioRead+0xd4>
  109194:	3c020011 	lui	v0,0x11
  109198:	0c0428cc 	jal	10a330 <SifWriteBackDCache>
  10919c:	00000000 	nop
  1091a0:	1000ffd8 	b	109104 <fioRead+0x8c>
  1091a4:	3c0b0011 	lui	t3,0x11

001091a8 <fioWrite>:
  1091a8:	27bdff80 	addiu	sp,sp,-128
  1091ac:	ffb20050 	sd	s2,80(sp)
  1091b0:	0080902d 	move	s2,a0
  1091b4:	ffb10040 	sd	s1,64(sp)
  1091b8:	00c0882d 	move	s1,a2
  1091bc:	ffb00030 	sd	s0,48(sp)
  1091c0:	00a0802d 	move	s0,a1
  1091c4:	ffbf0070 	sd	ra,112(sp)
  1091c8:	0c042ab4 	jal	10aad0 <fioInit>
  1091cc:	ffb30060 	sd	s3,96(sp)
  1091d0:	0440002f 	bltz	v0,109290 <fioWrite+0xe8>
  1091d4:	0040482d 	move	t1,v0
  1091d8:	3c020011 	lui	v0,0x11
  1091dc:	3c130011 	lui	s3,0x11
  1091e0:	0c0428b4 	jal	10a2d0 <WaitSema>
  1091e4:	8c4429fc 	lw	a0,10748(v0)
  1091e8:	0c0428b4 	jal	10a2d0 <WaitSema>
  1091ec:	8e642a00 	lw	a0,10752(s3)
  1091f0:	afb10018 	sw	s1,24(sp)
  1091f4:	3203000f 	andi	v1,s0,0xf
  1091f8:	afb20010 	sw	s2,16(sp)
  1091fc:	0000302d 	move	a2,zero
  109200:	10600005 	beqz	v1,109218 <fioWrite+0x70>
  109204:	afb00014 	sw	s0,20(sp)
  109208:	24020010 	li	v0,16
  10920c:	00433023 	subu	a2,v0,v1
  109210:	0226182a 	slt	v1,s1,a2
  109214:	0223300b 	movn	a2,s1,v1
  109218:	14c0002f 	bnez	a2,1092d8 <fioWrite+0x130>
  10921c:	afa6001c 	sw	a2,28(sp)
  109220:	3c022000 	lui	v0,0x2000
  109224:	02021024 	and	v0,s0,v0
  109228:	10400027 	beqz	v0,1092c8 <fioWrite+0x120>
  10922c:	0200202d 	move	a0,s0
  109230:	3c100011 	lui	s0,0x11
  109234:	3c110011 	lui	s1,0x11
  109238:	8e062c90 	lw	a2,11408(s0)
  10923c:	3c040011 	lui	a0,0x11
  109240:	3c0b0011 	lui	t3,0x11
  109244:	26294ec0 	addiu	t1,s1,20160
  109248:	24844e00 	addiu	a0,a0,19968
  10924c:	256bac08 	addiu	t3,t3,-21496
  109250:	24050003 	li	a1,3
  109254:	27a70010 	addiu	a3,sp,16
  109258:	24080020 	li	t0,32
  10925c:	240a0004 	li	t2,4
  109260:	0c0428f8 	jal	10a3e0 <SifCallRpc>
  109264:	afa00000 	sw	zero,0(sp)
  109268:	04400011 	bltz	v0,1092b0 <fioWrite+0x108>
  10926c:	8e234ec0 	lw	v1,20160(s1)
  109270:	8e022c90 	lw	v0,11408(s0)
  109274:	0000802d 	move	s0,zero
  109278:	38420001 	xori	v0,v0,0x1
  10927c:	0062800b 	movn	s0,v1,v0
  109280:	3c020011 	lui	v0,0x11
  109284:	0c0428b0 	jal	10a2c0 <SignalSema>
  109288:	8c4429fc 	lw	a0,10748(v0)
  10928c:	0200482d 	move	t1,s0
  109290:	dfbf0070 	ld	ra,112(sp)
  109294:	0120102d 	move	v0,t1
  109298:	dfb30060 	ld	s3,96(sp)
  10929c:	dfb20050 	ld	s2,80(sp)
  1092a0:	dfb10040 	ld	s1,64(sp)
  1092a4:	dfb00030 	ld	s0,48(sp)
  1092a8:	03e00008 	jr	ra
  1092ac:	27bd0080 	addiu	sp,sp,128
  1092b0:	8e642a00 	lw	a0,10752(s3)
  1092b4:	0c0428b0 	jal	10a2c0 <SignalSema>
  1092b8:	0040802d 	move	s0,v0
  1092bc:	1000fff1 	b	109284 <fioWrite+0xdc>
  1092c0:	3c020011 	lui	v0,0x11
  1092c4:	00000000 	nop
  1092c8:	0c0428cc 	jal	10a330 <SifWriteBackDCache>
  1092cc:	0220282d 	move	a1,s1
  1092d0:	1000ffd8 	b	109234 <fioWrite+0x8c>
  1092d4:	3c100011 	lui	s0,0x11
  1092d8:	27a40020 	addiu	a0,sp,32
  1092dc:	0c0417c0 	jal	105f00 <memcpy>
  1092e0:	0200282d 	move	a1,s0
  1092e4:	1000ffcf 	b	109224 <fioWrite+0x7c>
  1092e8:	3c022000 	lui	v0,0x2000
  1092ec:	00000000 	nop

001092f0 <fioLseek>:
  1092f0:	27bdff90 	addiu	sp,sp,-112
  1092f4:	ffb20040 	sd	s2,64(sp)
  1092f8:	00c0902d 	move	s2,a2
  1092fc:	ffb10030 	sd	s1,48(sp)
  109300:	00a0882d 	move	s1,a1
  109304:	ffb00020 	sd	s0,32(sp)
  109308:	0080802d 	move	s0,a0
  10930c:	ffbf0060 	sd	ra,96(sp)
  109310:	0c042ab4 	jal	10aad0 <fioInit>
  109314:	ffb30050 	sd	s3,80(sp)
  109318:	0440001d 	bltz	v0,109390 <fioLseek+0xa0>
  10931c:	0040182d 	move	v1,v0
  109320:	3c020011 	lui	v0,0x11
  109324:	3c130011 	lui	s3,0x11
  109328:	0c0428b4 	jal	10a2d0 <WaitSema>
  10932c:	8c4429fc 	lw	a0,10748(v0)
  109330:	0c0428b4 	jal	10a2d0 <WaitSema>
  109334:	8e642a00 	lw	a0,10752(s3)
  109338:	afa00000 	sw	zero,0(sp)
  10933c:	27a70010 	addiu	a3,sp,16
  109340:	3c0b0011 	lui	t3,0x11
  109344:	3c040011 	lui	a0,0x11
  109348:	240a0004 	li	t2,4
  10934c:	256bac08 	addiu	t3,t3,-21496
  109350:	24844e00 	addiu	a0,a0,19968
  109354:	24050004 	li	a1,4
  109358:	0000302d 	move	a2,zero
  10935c:	24080010 	li	t0,16
  109360:	00e0482d 	move	t1,a3
  109364:	afb00010 	sw	s0,16(sp)
  109368:	afb10014 	sw	s1,20(sp)
  10936c:	0c0428f8 	jal	10a3e0 <SifCallRpc>
  109370:	afb20018 	sw	s2,24(sp)
  109374:	0440000e 	bltz	v0,1093b0 <fioLseek+0xc0>
  109378:	8e642a00 	lw	a0,10752(s3)
  10937c:	8fb00010 	lw	s0,16(sp)
  109380:	3c020011 	lui	v0,0x11
  109384:	0c0428b0 	jal	10a2c0 <SignalSema>
  109388:	8c4429fc 	lw	a0,10748(v0)
  10938c:	0200182d 	move	v1,s0
  109390:	dfbf0060 	ld	ra,96(sp)
  109394:	0060102d 	move	v0,v1
  109398:	dfb30050 	ld	s3,80(sp)
  10939c:	dfb20040 	ld	s2,64(sp)
  1093a0:	dfb10030 	ld	s1,48(sp)
  1093a4:	dfb00020 	ld	s0,32(sp)
  1093a8:	03e00008 	jr	ra
  1093ac:	27bd0070 	addiu	sp,sp,112
  1093b0:	0c0428b0 	jal	10a2c0 <SignalSema>
  1093b4:	0040802d 	move	s0,v0
  1093b8:	1000fff2 	b	109384 <fioLseek+0x94>
  1093bc:	3c020011 	lui	v0,0x11

001093c0 <fioMkdir>:
  1093c0:	27bdfec0 	addiu	sp,sp,-320
  1093c4:	ffb00110 	sd	s0,272(sp)
  1093c8:	0080802d 	move	s0,a0
  1093cc:	ffbf0130 	sd	ra,304(sp)
  1093d0:	0c042ab4 	jal	10aad0 <fioInit>
  1093d4:	ffb10120 	sd	s1,288(sp)
  1093d8:	0440001f 	bltz	v0,109458 <fioMkdir+0x98>
  1093dc:	0040182d 	move	v1,v0
  1093e0:	3c020011 	lui	v0,0x11
  1093e4:	3c110011 	lui	s1,0x11
  1093e8:	0c0428b4 	jal	10a2d0 <WaitSema>
  1093ec:	8c4429fc 	lw	a0,10748(v0)
  1093f0:	0c0428b4 	jal	10a2d0 <WaitSema>
  1093f4:	8e242a00 	lw	a0,10752(s1)
  1093f8:	27a40010 	addiu	a0,sp,16
  1093fc:	240600ff 	li	a2,255
  109400:	0c042344 	jal	108d10 <strncpy>
  109404:	0200282d 	move	a1,s0
  109408:	afa00000 	sw	zero,0(sp)
  10940c:	27a70010 	addiu	a3,sp,16
  109410:	3c0b0011 	lui	t3,0x11
  109414:	3c040011 	lui	a0,0x11
  109418:	240a0004 	li	t2,4
  10941c:	256bac08 	addiu	t3,t3,-21496
  109420:	24844e00 	addiu	a0,a0,19968
  109424:	24050007 	li	a1,7
  109428:	0000302d 	move	a2,zero
  10942c:	24080100 	li	t0,256
  109430:	00e0482d 	move	t1,a3
  109434:	0c0428f8 	jal	10a3e0 <SifCallRpc>
  109438:	a3a0010f 	sb	zero,271(sp)
  10943c:	0440000c 	bltz	v0,109470 <fioMkdir+0xb0>
  109440:	8e242a00 	lw	a0,10752(s1)
  109444:	8fb00010 	lw	s0,16(sp)
  109448:	3c020011 	lui	v0,0x11
  10944c:	0c0428b0 	jal	10a2c0 <SignalSema>
  109450:	8c4429fc 	lw	a0,10748(v0)
  109454:	0200182d 	move	v1,s0
  109458:	dfbf0130 	ld	ra,304(sp)
  10945c:	0060102d 	move	v0,v1
  109460:	dfb10120 	ld	s1,288(sp)
  109464:	dfb00110 	ld	s0,272(sp)
  109468:	03e00008 	jr	ra
  10946c:	27bd0140 	addiu	sp,sp,320
  109470:	0c0428b0 	jal	10a2c0 <SignalSema>
  109474:	0040802d 	move	s0,v0
  109478:	1000fff4 	b	10944c <fioMkdir+0x8c>
  10947c:	3c020011 	lui	v0,0x11

00109480 <_fio_read_intr>:
  109480:	27bdffe0 	addiu	sp,sp,-32
  109484:	3c022000 	lui	v0,0x2000
  109488:	ffb00000 	sd	s0,0(sp)
  10948c:	00828025 	or	s0,a0,v0
  109490:	ffbf0010 	sd	ra,16(sp)
  109494:	8e060000 	lw	a2,0(s0)
  109498:	50c00006 	beqzl	a2,1094b4 <_fio_read_intr+0x34>
  10949c:	8e060004 	lw	a2,4(s0)
  1094a0:	8e020008 	lw	v0,8(s0)
  1094a4:	26050010 	addiu	a1,s0,16
  1094a8:	14400013 	bnez	v0,1094f8 <_fio_read_intr+0x78>
  1094ac:	0040202d 	move	a0,v0
  1094b0:	8e060004 	lw	a2,4(s0)
  1094b4:	10c00004 	beqz	a2,1094c8 <_fio_read_intr+0x48>
  1094b8:	26050020 	addiu	a1,s0,32
  1094bc:	8e02000c 	lw	v0,12(s0)
  1094c0:	14400009 	bnez	v0,1094e8 <_fio_read_intr+0x68>
  1094c4:	0040202d 	move	a0,v0
  1094c8:	3c020011 	lui	v0,0x11
  1094cc:	0c0428ac 	jal	10a2b0 <iSignalSema>
  1094d0:	8c442a00 	lw	a0,10752(v0)
  1094d4:	dfb00000 	ld	s0,0(sp)
  1094d8:	dfbf0010 	ld	ra,16(sp)
  1094dc:	03e00008 	jr	ra
  1094e0:	27bd0020 	addiu	sp,sp,32
  1094e4:	00000000 	nop
  1094e8:	0c0417c0 	jal	105f00 <memcpy>
  1094ec:	00000000 	nop
  1094f0:	1000fff6 	b	1094cc <_fio_read_intr+0x4c>
  1094f4:	3c020011 	lui	v0,0x11
  1094f8:	0c0417c0 	jal	105f00 <memcpy>
  1094fc:	00000000 	nop
  109500:	1000ffec 	b	1094b4 <_fio_read_intr+0x34>
  109504:	8e060004 	lw	a2,4(s0)

00109508 <fioDopen>:
  109508:	27bdfec0 	addiu	sp,sp,-320
  10950c:	ffb00110 	sd	s0,272(sp)
  109510:	0080802d 	move	s0,a0
  109514:	ffbf0130 	sd	ra,304(sp)
  109518:	0c042ab4 	jal	10aad0 <fioInit>
  10951c:	ffb10120 	sd	s1,288(sp)
  109520:	0440001f 	bltz	v0,1095a0 <fioDopen+0x98>
  109524:	0040182d 	move	v1,v0
  109528:	3c020011 	lui	v0,0x11
  10952c:	3c110011 	lui	s1,0x11
  109530:	0c0428b4 	jal	10a2d0 <WaitSema>
  109534:	8c4429fc 	lw	a0,10748(v0)
  109538:	0c0428b4 	jal	10a2d0 <WaitSema>
  10953c:	8e242a00 	lw	a0,10752(s1)
  109540:	27a40010 	addiu	a0,sp,16
  109544:	240600ff 	li	a2,255
  109548:	0c042344 	jal	108d10 <strncpy>
  10954c:	0200282d 	move	a1,s0
  109550:	afa00000 	sw	zero,0(sp)
  109554:	27a70010 	addiu	a3,sp,16
  109558:	3c0b0011 	lui	t3,0x11
  10955c:	3c040011 	lui	a0,0x11
  109560:	240a0004 	li	t2,4
  109564:	256bac08 	addiu	t3,t3,-21496
  109568:	24844e00 	addiu	a0,a0,19968
  10956c:	24050009 	li	a1,9
  109570:	0000302d 	move	a2,zero
  109574:	24080100 	li	t0,256
  109578:	00e0482d 	move	t1,a3
  10957c:	0c0428f8 	jal	10a3e0 <SifCallRpc>
  109580:	a3a0010f 	sb	zero,271(sp)
  109584:	0440000c 	bltz	v0,1095b8 <fioDopen+0xb0>
  109588:	8e242a00 	lw	a0,10752(s1)
  10958c:	8fb00010 	lw	s0,16(sp)
  109590:	3c020011 	lui	v0,0x11
  109594:	0c0428b0 	jal	10a2c0 <SignalSema>
  109598:	8c4429fc 	lw	a0,10748(v0)
  10959c:	0200182d 	move	v1,s0
  1095a0:	dfbf0130 	ld	ra,304(sp)
  1095a4:	0060102d 	move	v0,v1
  1095a8:	dfb10120 	ld	s1,288(sp)
  1095ac:	dfb00110 	ld	s0,272(sp)
  1095b0:	03e00008 	jr	ra
  1095b4:	27bd0140 	addiu	sp,sp,320
  1095b8:	0c0428b0 	jal	10a2c0 <SignalSema>
  1095bc:	0040802d 	move	s0,v0
  1095c0:	1000fff4 	b	109594 <fioDopen+0x8c>
  1095c4:	3c020011 	lui	v0,0x11

001095c8 <fioDclose>:
  1095c8:	27bdffb0 	addiu	sp,sp,-80
  1095cc:	ffb00020 	sd	s0,32(sp)
  1095d0:	0080802d 	move	s0,a0
  1095d4:	ffbf0040 	sd	ra,64(sp)
  1095d8:	0c042ab4 	jal	10aad0 <fioInit>
  1095dc:	ffb10030 	sd	s1,48(sp)
  1095e0:	0440001b 	bltz	v0,109650 <fioDclose+0x88>
  1095e4:	0040182d 	move	v1,v0
  1095e8:	3c020011 	lui	v0,0x11
  1095ec:	3c110011 	lui	s1,0x11
  1095f0:	0c0428b4 	jal	10a2d0 <WaitSema>
  1095f4:	8c4429fc 	lw	a0,10748(v0)
  1095f8:	0c0428b4 	jal	10a2d0 <WaitSema>
  1095fc:	8e242a00 	lw	a0,10752(s1)
  109600:	afa00000 	sw	zero,0(sp)
  109604:	27a70010 	addiu	a3,sp,16
  109608:	3c0b0011 	lui	t3,0x11
  10960c:	3c040011 	lui	a0,0x11
  109610:	240a0004 	li	t2,4
  109614:	256bac08 	addiu	t3,t3,-21496
  109618:	24844e00 	addiu	a0,a0,19968
  10961c:	2405000a 	li	a1,10
  109620:	0000302d 	move	a2,zero
  109624:	24080004 	li	t0,4
  109628:	00e0482d 	move	t1,a3
  10962c:	0c0428f8 	jal	10a3e0 <SifCallRpc>
  109630:	afb00010 	sw	s0,16(sp)
  109634:	0440000c 	bltz	v0,109668 <fioDclose+0xa0>
  109638:	8e242a00 	lw	a0,10752(s1)
  10963c:	8fb00010 	lw	s0,16(sp)
  109640:	3c020011 	lui	v0,0x11
  109644:	0c0428b0 	jal	10a2c0 <SignalSema>
  109648:	8c4429fc 	lw	a0,10748(v0)
  10964c:	0200182d 	move	v1,s0
  109650:	dfbf0040 	ld	ra,64(sp)
  109654:	0060102d 	move	v0,v1
  109658:	dfb10030 	ld	s1,48(sp)
  10965c:	dfb00020 	ld	s0,32(sp)
  109660:	03e00008 	jr	ra
  109664:	27bd0050 	addiu	sp,sp,80
  109668:	0c0428b0 	jal	10a2c0 <SignalSema>
  10966c:	0040802d 	move	s0,v0
  109670:	1000fff4 	b	109644 <fioDclose+0x7c>
  109674:	3c020011 	lui	v0,0x11

00109678 <fioDread>:
  109678:	27bdffa0 	addiu	sp,sp,-96
  10967c:	ffb10030 	sd	s1,48(sp)
  109680:	0080882d 	move	s1,a0
  109684:	ffb00020 	sd	s0,32(sp)
  109688:	00a0802d 	move	s0,a1
  10968c:	ffbf0050 	sd	ra,80(sp)
  109690:	0c042ab4 	jal	10aad0 <fioInit>
  109694:	ffb20040 	sd	s2,64(sp)
  109698:	04400021 	bltz	v0,109720 <fioDread+0xa8>
  10969c:	0040182d 	move	v1,v0
  1096a0:	3c020011 	lui	v0,0x11
  1096a4:	3c120011 	lui	s2,0x11
  1096a8:	0c0428b4 	jal	10a2d0 <WaitSema>
  1096ac:	8c4429fc 	lw	a0,10748(v0)
  1096b0:	0c0428b4 	jal	10a2d0 <WaitSema>
  1096b4:	8e442a00 	lw	a0,10752(s2)
  1096b8:	afb00014 	sw	s0,20(sp)
  1096bc:	3c032000 	lui	v1,0x2000
  1096c0:	0200202d 	move	a0,s0
  1096c4:	02031824 	and	v1,s0,v1
  1096c8:	2405012c 	li	a1,300
  1096cc:	10600020 	beqz	v1,109750 <fioDread+0xd8>
  1096d0:	afb10010 	sw	s1,16(sp)
  1096d4:	27a70010 	addiu	a3,sp,16
  1096d8:	3c0b0011 	lui	t3,0x11
  1096dc:	3c040011 	lui	a0,0x11
  1096e0:	2405000b 	li	a1,11
  1096e4:	0000302d 	move	a2,zero
  1096e8:	24080010 	li	t0,16
  1096ec:	240a0004 	li	t2,4
  1096f0:	256bac08 	addiu	t3,t3,-21496
  1096f4:	24844e00 	addiu	a0,a0,19968
  1096f8:	00e0482d 	move	t1,a3
  1096fc:	0c0428f8 	jal	10a3e0 <SifCallRpc>
  109700:	afa00000 	sw	zero,0(sp)
  109704:	0440000d 	bltz	v0,10973c <fioDread+0xc4>
  109708:	8e442a00 	lw	a0,10752(s2)
  10970c:	8fb00010 	lw	s0,16(sp)
  109710:	3c020011 	lui	v0,0x11
  109714:	0c0428b0 	jal	10a2c0 <SignalSema>
  109718:	8c4429fc 	lw	a0,10748(v0)
  10971c:	0200182d 	move	v1,s0
  109720:	dfbf0050 	ld	ra,80(sp)
  109724:	0060102d 	move	v0,v1
  109728:	dfb20040 	ld	s2,64(sp)
  10972c:	dfb10030 	ld	s1,48(sp)
  109730:	dfb00020 	ld	s0,32(sp)
  109734:	03e00008 	jr	ra
  109738:	27bd0060 	addiu	sp,sp,96
  10973c:	0c0428b0 	jal	10a2c0 <SignalSema>
  109740:	0040802d 	move	s0,v0
  109744:	1000fff3 	b	109714 <fioDread+0x9c>
  109748:	3c020011 	lui	v0,0x11
  10974c:	00000000 	nop
  109750:	0c0428cc 	jal	10a330 <SifWriteBackDCache>
  109754:	00000000 	nop
  109758:	1000ffdf 	b	1096d8 <fioDread+0x60>
  10975c:	27a70010 	addiu	a3,sp,16

00109760 <fioGetstat>:
  109760:	27bdfea0 	addiu	sp,sp,-352
  109764:	ffb10130 	sd	s1,304(sp)
  109768:	0080882d 	move	s1,a0
  10976c:	ffb00120 	sd	s0,288(sp)
  109770:	00a0802d 	move	s0,a1
  109774:	ffbf0150 	sd	ra,336(sp)
  109778:	0c042ab4 	jal	10aad0 <fioInit>
  10977c:	ffb20140 	sd	s2,320(sp)
  109780:	04400025 	bltz	v0,109818 <fioGetstat+0xb8>
  109784:	0040182d 	move	v1,v0
  109788:	3c020011 	lui	v0,0x11
  10978c:	3c120011 	lui	s2,0x11
  109790:	0c0428b4 	jal	10a2d0 <WaitSema>
  109794:	8c4429fc 	lw	a0,10748(v0)
  109798:	0c0428b4 	jal	10a2d0 <WaitSema>
  10979c:	8e442a00 	lw	a0,10752(s2)
  1097a0:	afb00010 	sw	s0,16(sp)
  1097a4:	0220282d 	move	a1,s1
  1097a8:	27a40014 	addiu	a0,sp,20
  1097ac:	0c042344 	jal	108d10 <strncpy>
  1097b0:	240600ff 	li	a2,255
  1097b4:	a3a00113 	sb	zero,275(sp)
  1097b8:	3c032000 	lui	v1,0x2000
  1097bc:	0200202d 	move	a0,s0
  1097c0:	02031824 	and	v1,s0,v1
  1097c4:	10600020 	beqz	v1,109848 <fioGetstat+0xe8>
  1097c8:	24050028 	li	a1,40
  1097cc:	27a70010 	addiu	a3,sp,16
  1097d0:	3c0b0011 	lui	t3,0x11
  1097d4:	3c040011 	lui	a0,0x11
  1097d8:	2405000c 	li	a1,12
  1097dc:	0000302d 	move	a2,zero
  1097e0:	24080110 	li	t0,272
  1097e4:	240a0004 	li	t2,4
  1097e8:	256bac08 	addiu	t3,t3,-21496
  1097ec:	24844e00 	addiu	a0,a0,19968
  1097f0:	00e0482d 	move	t1,a3
  1097f4:	0c0428f8 	jal	10a3e0 <SifCallRpc>
  1097f8:	afa00000 	sw	zero,0(sp)
  1097fc:	0440000d 	bltz	v0,109834 <fioGetstat+0xd4>
  109800:	8e442a00 	lw	a0,10752(s2)
  109804:	8fb00010 	lw	s0,16(sp)
  109808:	3c020011 	lui	v0,0x11
  10980c:	0c0428b0 	jal	10a2c0 <SignalSema>
  109810:	8c4429fc 	lw	a0,10748(v0)
  109814:	0200182d 	move	v1,s0
  109818:	dfbf0150 	ld	ra,336(sp)
  10981c:	0060102d 	move	v0,v1
  109820:	dfb20140 	ld	s2,320(sp)
  109824:	dfb10130 	ld	s1,304(sp)
  109828:	dfb00120 	ld	s0,288(sp)
  10982c:	03e00008 	jr	ra
  109830:	27bd0160 	addiu	sp,sp,352
  109834:	0c0428b0 	jal	10a2c0 <SignalSema>
  109838:	0040802d 	move	s0,v0
  10983c:	1000fff3 	b	10980c <fioGetstat+0xac>
  109840:	3c020011 	lui	v0,0x11
  109844:	00000000 	nop
  109848:	0c0428cc 	jal	10a330 <SifWriteBackDCache>
  10984c:	00000000 	nop
  109850:	1000ffdf 	b	1097d0 <fioGetstat+0x70>
  109854:	27a70010 	addiu	a3,sp,16

00109858 <fioRemove>:
  109858:	27bdfec0 	addiu	sp,sp,-320
  10985c:	ffb00110 	sd	s0,272(sp)
  109860:	0080802d 	move	s0,a0
  109864:	ffbf0130 	sd	ra,304(sp)
  109868:	0c042ab4 	jal	10aad0 <fioInit>
  10986c:	ffb10120 	sd	s1,288(sp)
  109870:	0440001f 	bltz	v0,1098f0 <fioRemove+0x98>
  109874:	0040182d 	move	v1,v0
  109878:	3c020011 	lui	v0,0x11
  10987c:	3c110011 	lui	s1,0x11
  109880:	0c0428b4 	jal	10a2d0 <WaitSema>
  109884:	8c4429fc 	lw	a0,10748(v0)
  109888:	0c0428b4 	jal	10a2d0 <WaitSema>
  10988c:	8e242a00 	lw	a0,10752(s1)
  109890:	27a40010 	addiu	a0,sp,16
  109894:	240600ff 	li	a2,255
  109898:	0c042344 	jal	108d10 <strncpy>
  10989c:	0200282d 	move	a1,s0
  1098a0:	afa00000 	sw	zero,0(sp)
  1098a4:	27a70010 	addiu	a3,sp,16
  1098a8:	3c0b0011 	lui	t3,0x11
  1098ac:	3c040011 	lui	a0,0x11
  1098b0:	240a0004 	li	t2,4
  1098b4:	256bac08 	addiu	t3,t3,-21496
  1098b8:	24844e00 	addiu	a0,a0,19968
  1098bc:	24050006 	li	a1,6
  1098c0:	0000302d 	move	a2,zero
  1098c4:	24080100 	li	t0,256
  1098c8:	00e0482d 	move	t1,a3
  1098cc:	0c0428f8 	jal	10a3e0 <SifCallRpc>
  1098d0:	a3a0010f 	sb	zero,271(sp)
  1098d4:	0440000c 	bltz	v0,109908 <fioRemove+0xb0>
  1098d8:	8e242a00 	lw	a0,10752(s1)
  1098dc:	8fb00010 	lw	s0,16(sp)
  1098e0:	3c020011 	lui	v0,0x11
  1098e4:	0c0428b0 	jal	10a2c0 <SignalSema>
  1098e8:	8c4429fc 	lw	a0,10748(v0)
  1098ec:	0200182d 	move	v1,s0
  1098f0:	dfbf0130 	ld	ra,304(sp)
  1098f4:	0060102d 	move	v0,v1
  1098f8:	dfb10120 	ld	s1,288(sp)
  1098fc:	dfb00110 	ld	s0,272(sp)
  109900:	03e00008 	jr	ra
  109904:	27bd0140 	addiu	sp,sp,320
  109908:	0c0428b0 	jal	10a2c0 <SignalSema>
  10990c:	0040802d 	move	s0,v0
  109910:	1000fff4 	b	1098e4 <fioRemove+0x8c>
  109914:	3c020011 	lui	v0,0x11

00109918 <fioRmdir>:
  109918:	27bdfec0 	addiu	sp,sp,-320
  10991c:	ffb00110 	sd	s0,272(sp)
  109920:	0080802d 	move	s0,a0
  109924:	ffbf0130 	sd	ra,304(sp)
  109928:	0c042ab4 	jal	10aad0 <fioInit>
  10992c:	ffb10120 	sd	s1,288(sp)
  109930:	0440001f 	bltz	v0,1099b0 <fioRmdir+0x98>
  109934:	0040182d 	move	v1,v0
  109938:	3c020011 	lui	v0,0x11
  10993c:	3c110011 	lui	s1,0x11
  109940:	0c0428b4 	jal	10a2d0 <WaitSema>
  109944:	8c4429fc 	lw	a0,10748(v0)
  109948:	0c0428b4 	jal	10a2d0 <WaitSema>
  10994c:	8e242a00 	lw	a0,10752(s1)
  109950:	27a40010 	addiu	a0,sp,16
  109954:	240600ff 	li	a2,255
  109958:	0c042344 	jal	108d10 <strncpy>
  10995c:	0200282d 	move	a1,s0
  109960:	afa00000 	sw	zero,0(sp)
  109964:	27a70010 	addiu	a3,sp,16
  109968:	3c0b0011 	lui	t3,0x11
  10996c:	3c040011 	lui	a0,0x11
  109970:	240a0004 	li	t2,4
  109974:	256bac08 	addiu	t3,t3,-21496
  109978:	24844e00 	addiu	a0,a0,19968
  10997c:	24050008 	li	a1,8
  109980:	0000302d 	move	a2,zero
  109984:	24080100 	li	t0,256
  109988:	00e0482d 	move	t1,a3
  10998c:	0c0428f8 	jal	10a3e0 <SifCallRpc>
  109990:	a3a0010f 	sb	zero,271(sp)
  109994:	0440000c 	bltz	v0,1099c8 <fioRmdir+0xb0>
  109998:	8e242a00 	lw	a0,10752(s1)
  10999c:	8fb00010 	lw	s0,16(sp)
  1099a0:	3c020011 	lui	v0,0x11
  1099a4:	0c0428b0 	jal	10a2c0 <SignalSema>
  1099a8:	8c4429fc 	lw	a0,10748(v0)
  1099ac:	0200182d 	move	v1,s0
  1099b0:	dfbf0130 	ld	ra,304(sp)
  1099b4:	0060102d 	move	v0,v1
  1099b8:	dfb10120 	ld	s1,288(sp)
  1099bc:	dfb00110 	ld	s0,272(sp)
  1099c0:	03e00008 	jr	ra
  1099c4:	27bd0140 	addiu	sp,sp,320
  1099c8:	0c0428b0 	jal	10a2c0 <SignalSema>
  1099cc:	0040802d 	move	s0,v0
  1099d0:	1000fff4 	b	1099a4 <fioRmdir+0x8c>
  1099d4:	3c020011 	lui	v0,0x11

001099d8 <GetRomName>:
  1099d8:	27bdffd0 	addiu	sp,sp,-48
  1099dc:	0000282d 	move	a1,zero
  1099e0:	ffb00000 	sd	s0,0(sp)
  1099e4:	0080802d 	move	s0,a0
  1099e8:	3c040011 	lui	a0,0x11
  1099ec:	ffbf0020 	sd	ra,32(sp)
  1099f0:	2484f988 	addiu	a0,a0,-1656
  1099f4:	0c04325a 	jal	10c968 <open>
  1099f8:	ffb10010 	sd	s1,16(sp)
  1099fc:	2406000e 	li	a2,14
  109a00:	0200282d 	move	a1,s0
  109a04:	0040882d 	move	s1,v0
  109a08:	0c04326c 	jal	10c9b0 <read>
  109a0c:	0040202d 	move	a0,v0
  109a10:	0c043252 	jal	10c948 <close>
  109a14:	0220202d 	move	a0,s1
  109a18:	dfb10010 	ld	s1,16(sp)
  109a1c:	0200102d 	move	v0,s0
  109a20:	dfbf0020 	ld	ra,32(sp)
  109a24:	dfb00000 	ld	s0,0(sp)
  109a28:	03e00008 	jr	ra
  109a2c:	27bd0030 	addiu	sp,sp,48

00109a30 <EnableIntc>:
  109a30:	27bdffd0 	addiu	sp,sp,-48
  109a34:	ffb10010 	sd	s1,16(sp)
  109a38:	0080882d 	move	s1,a0
  109a3c:	ffbf0020 	sd	ra,32(sp)
  109a40:	ffb00000 	sd	s0,0(sp)
  109a44:	40106000 	mfc0	s0,$12
  109a48:	3c020001 	lui	v0,0x1
  109a4c:	02028024 	and	s0,s0,v0
  109a50:	16000011 	bnez	s0,109a98 <EnableIntc+0x68>
  109a54:	00000000 	nop
  109a58:	0c042884 	jal	10a210 <_EnableIntc>
  109a5c:	0220202d 	move	a0,s1
  109a60:	0040882d 	move	s1,v0
  109a64:	0000000f 	sync
  109a68:	16000007 	bnez	s0,109a88 <EnableIntc+0x58>
  109a6c:	00000000 	nop
  109a70:	0220102d 	move	v0,s1
  109a74:	dfbf0020 	ld	ra,32(sp)
  109a78:	dfb10010 	ld	s1,16(sp)
  109a7c:	dfb00000 	ld	s0,0(sp)
  109a80:	03e00008 	jr	ra
  109a84:	27bd0030 	addiu	sp,sp,48
  109a88:	0c042b38 	jal	10ace0 <EIntr>
  109a8c:	00000000 	nop
  109a90:	1000fff8 	b	109a74 <EnableIntc+0x44>
  109a94:	0220102d 	move	v0,s1
  109a98:	0c042b26 	jal	10ac98 <DIntr>
  109a9c:	00000000 	nop
  109aa0:	1000ffed 	b	109a58 <EnableIntc+0x28>
  109aa4:	00000000 	nop

00109aa8 <DisableIntc>:
  109aa8:	27bdffd0 	addiu	sp,sp,-48
  109aac:	ffb10010 	sd	s1,16(sp)
  109ab0:	0080882d 	move	s1,a0
  109ab4:	ffbf0020 	sd	ra,32(sp)
  109ab8:	ffb00000 	sd	s0,0(sp)
  109abc:	40106000 	mfc0	s0,$12
  109ac0:	3c020001 	lui	v0,0x1
  109ac4:	02028024 	and	s0,s0,v0
  109ac8:	16000011 	bnez	s0,109b10 <DisableIntc+0x68>
  109acc:	00000000 	nop
  109ad0:	0c042888 	jal	10a220 <_DisableIntc>
  109ad4:	0220202d 	move	a0,s1
  109ad8:	0040882d 	move	s1,v0
  109adc:	0000000f 	sync
  109ae0:	16000007 	bnez	s0,109b00 <DisableIntc+0x58>
  109ae4:	00000000 	nop
  109ae8:	0220102d 	move	v0,s1
  109aec:	dfbf0020 	ld	ra,32(sp)
  109af0:	dfb10010 	ld	s1,16(sp)
  109af4:	dfb00000 	ld	s0,0(sp)
  109af8:	03e00008 	jr	ra
  109afc:	27bd0030 	addiu	sp,sp,48
  109b00:	0c042b38 	jal	10ace0 <EIntr>
  109b04:	00000000 	nop
  109b08:	1000fff8 	b	109aec <DisableIntc+0x44>
  109b0c:	0220102d 	move	v0,s1
  109b10:	0c042b26 	jal	10ac98 <DIntr>
  109b14:	00000000 	nop
  109b18:	1000ffed 	b	109ad0 <DisableIntc+0x28>
  109b1c:	00000000 	nop

00109b20 <_InitSys>:
  109b20:	27bdfff0 	addiu	sp,sp,-16
  109b24:	ffbf0000 	sd	ra,0(sp)
  109b28:	0c042824 	jal	10a090 <InitAlarm>
  109b2c:	00000000 	nop
  109b30:	0c042700 	jal	109c00 <InitThread>
  109b34:	00000000 	nop
  109b38:	0c04273c 	jal	109cf0 <InitExecPS2>
  109b3c:	00000000 	nop
  109b40:	0c042778 	jal	109de0 <InitTLBFunctions>
  109b44:	00000000 	nop
  109b48:	dfbf0000 	ld	ra,0(sp)
  109b4c:	03e00008 	jr	ra
  109b50:	27bd0010 	addiu	sp,sp,16
  109b54:	00000000 	nop

00109b58 <topThread>:
  109b58:	27bdffa0 	addiu	sp,sp,-96
  109b5c:	ffb00000 	sd	s0,0(sp)
  109b60:	3c100011 	lui	s0,0x11
  109b64:	ffbf0050 	sd	ra,80(sp)
  109b68:	ffb40040 	sd	s4,64(sp)
  109b6c:	24140002 	li	s4,2
  109b70:	ffb30030 	sd	s3,48(sp)
  109b74:	3c130011 	lui	s3,0x11
  109b78:	ffb20020 	sd	s2,32(sp)
  109b7c:	26121238 	addiu	s2,s0,4664
  109b80:	ffb10010 	sd	s1,16(sp)
  109b84:	24110001 	li	s1,1
  109b88:	0c0428b4 	jal	10a2d0 <WaitSema>
  109b8c:	8e641234 	lw	a0,4660(s3)
  109b90:	8e031238 	lw	v1,4664(s0)
  109b94:	306301ff 	andi	v1,v1,0x1ff
  109b98:	24620001 	addiu	v0,v1,1
  109b9c:	00031840 	sll	v1,v1,0x1
  109ba0:	ae021238 	sw	v0,4664(s0)
  109ba4:	00721821 	addu	v1,v1,s2
  109ba8:	90620008 	lbu	v0,8(v1)
  109bac:	14510005 	bne	v0,s1,109bc4 <topThread+0x6c>
  109bb0:	28440002 	slti	a0,v0,2
  109bb4:	0c042898 	jal	10a260 <RotateThreadReadyQueue>
  109bb8:	90640009 	lbu	a0,9(v1)
  109bbc:	1000fff2 	b	109b88 <topThread+0x30>
  109bc0:	00000000 	nop
  109bc4:	14800007 	bnez	a0,109be4 <topThread+0x8c>
  109bc8:	00000000 	nop
  109bcc:	1454ffee 	bne	v0,s4,109b88 <topThread+0x30>
  109bd0:	00000000 	nop
  109bd4:	0c0428a0 	jal	10a280 <SuspendThread>
  109bd8:	90640009 	lbu	a0,9(v1)
  109bdc:	1000ffea 	b	109b88 <topThread+0x30>
  109be0:	00000000 	nop
  109be4:	1440ffe8 	bnez	v0,109b88 <topThread+0x30>
  109be8:	00000000 	nop
  109bec:	0c04289c 	jal	10a270 <WakeupThread>
  109bf0:	90640009 	lbu	a0,9(v1)
  109bf4:	1000ffe4 	b	109b88 <topThread+0x30>
  109bf8:	00000000 	nop
  109bfc:	00000000 	nop

00109c00 <InitThread>:
  109c00:	27bdff70 	addiu	sp,sp,-144
  109c04:	3c020011 	lui	v0,0x11
  109c08:	ffb00050 	sd	s0,80(sp)
  109c0c:	03a0202d 	move	a0,sp
  109c10:	2450f998 	addiu	s0,v0,-1640
  109c14:	ffb20070 	sd	s2,112(sp)
  109c18:	240200ff 	li	v0,255
  109c1c:	ffbf0080 	sd	ra,128(sp)
  109c20:	ffb10060 	sd	s1,96(sp)
  109c24:	3c120011 	lui	s2,0x11
  109c28:	afa20004 	sw	v0,4(sp)
  109c2c:	afa00008 	sw	zero,8(sp)
  109c30:	0c0428a4 	jal	10a290 <CreateSema>
  109c34:	afb00014 	sw	s0,20(sp)
  109c38:	ae421234 	sw	v0,4660(s2)
  109c3c:	04400020 	bltz	v0,109cc0 <InitThread+0xc0>
  109c40:	2403ffff 	li	v1,-1
  109c44:	24020400 	li	v0,1024
  109c48:	3c030011 	lui	v1,0x11
  109c4c:	afa2002c 	sw	v0,44(sp)
  109c50:	24634a00 	addiu	v1,v1,18944
  109c54:	3c020011 	lui	v0,0x11
  109c58:	27a40020 	addiu	a0,sp,32
  109c5c:	24429b58 	addiu	v0,v0,-25768
  109c60:	afa30028 	sw	v1,40(sp)
  109c64:	afa20024 	sw	v0,36(sp)
  109c68:	3c110011 	lui	s1,0x11
  109c6c:	3c020012 	lui	v0,0x12
  109c70:	afb00040 	sw	s0,64(sp)
  109c74:	2442ac30 	addiu	v0,v0,-21456
  109c78:	afa00034 	sw	zero,52(sp)
  109c7c:	0c04288c 	jal	10a230 <CreateThread>
  109c80:	afa20030 	sw	v0,48(sp)
  109c84:	3c060011 	lui	a2,0x11
  109c88:	0040202d 	move	a0,v0
  109c8c:	24c31238 	addiu	v1,a2,4664
  109c90:	ae221230 	sw	v0,4656(s1)
  109c94:	04400012 	bltz	v0,109ce0 <InitThread+0xe0>
  109c98:	0060282d 	move	a1,v1
  109c9c:	ac600004 	sw	zero,4(v1)
  109ca0:	0c042890 	jal	10a240 <StartThread>
  109ca4:	acc01238 	sw	zero,4664(a2)
  109ca8:	0c042334 	jal	108cd0 <GetThreadId>
  109cac:	00000000 	nop
  109cb0:	24050001 	li	a1,1
  109cb4:	0c042894 	jal	10a250 <ChangeThreadPriority>
  109cb8:	0040202d 	move	a0,v0
  109cbc:	8e231230 	lw	v1,4656(s1)
  109cc0:	dfbf0080 	ld	ra,128(sp)
  109cc4:	0060102d 	move	v0,v1
  109cc8:	dfb20070 	ld	s2,112(sp)
  109ccc:	dfb10060 	ld	s1,96(sp)
  109cd0:	dfb00050 	ld	s0,80(sp)
  109cd4:	03e00008 	jr	ra
  109cd8:	27bd0090 	addiu	sp,sp,144
  109cdc:	00000000 	nop
  109ce0:	0c0428a8 	jal	10a2a0 <DeleteSema>
  109ce4:	8e441234 	lw	a0,4660(s2)
  109ce8:	1000fff5 	b	109cc0 <InitThread+0xc0>
  109cec:	2403ffff 	li	v1,-1

00109cf0 <InitExecPS2>:
  109cf0:	27bdffe0 	addiu	sp,sp,-32
  109cf4:	ffb00000 	sd	s0,0(sp)
  109cf8:	ffbf0010 	sd	ra,16(sp)
  109cfc:	0c042760 	jal	109d80 <PatchIsNeeded>
  109d00:	00000000 	nop
  109d04:	3c030011 	lui	v1,0x11
  109d08:	14400005 	bnez	v0,109d20 <InitExecPS2+0x30>
  109d0c:	24701640 	addiu	s0,v1,5696
  109d10:	dfbf0010 	ld	ra,16(sp)
  109d14:	dfb00000 	ld	s0,0(sp)
  109d18:	03e00008 	jr	ra
  109d1c:	27bd0020 	addiu	sp,sp,32
  109d20:	8c641640 	lw	a0,5696(v1)
  109d24:	0c04286e 	jal	10a1b8 <setup>
  109d28:	8e050004 	lw	a1,4(s0)
  109d2c:	3c050011 	lui	a1,0x11
  109d30:	3c020011 	lui	v0,0x11
  109d34:	3c048007 	lui	a0,0x8007
  109d38:	8c461660 	lw	a2,5728(v0)
  109d3c:	24a51670 	addiu	a1,a1,5744
  109d40:	0c042873 	jal	10a1cc <Copy>
  109d44:	34844000 	ori	a0,a0,0x4000
  109d48:	0c04233c 	jal	108cf0 <FlushCache>
  109d4c:	0000202d 	move	a0,zero
  109d50:	0c04233c 	jal	108cf0 <FlushCache>
  109d54:	24040002 	li	a0,2
  109d58:	8e040008 	lw	a0,8(s0)
  109d5c:	0c04286e 	jal	10a1b8 <setup>
  109d60:	8e05000c 	lw	a1,12(s0)
  109d64:	0c042878 	jal	10a1e0 <GetEntryAddress>
  109d68:	8e040010 	lw	a0,16(s0)
  109d6c:	8e040010 	lw	a0,16(s0)
  109d70:	0c04286e 	jal	10a1b8 <setup>
  109d74:	0040282d 	move	a1,v0
  109d78:	1000ffe6 	b	109d14 <InitExecPS2+0x24>
  109d7c:	dfbf0010 	ld	ra,16(sp)

00109d80 <PatchIsNeeded>:
  109d80:	27bdffe0 	addiu	sp,sp,-32
  109d84:	ffbf0010 	sd	ra,16(sp)
  109d88:	0c0428bc 	jal	10a2f0 <GetOsdConfigParam>
  109d8c:	03a0202d 	move	a0,sp
  109d90:	8fa20000 	lw	v0,0(sp)
  109d94:	3c03ffff 	lui	v1,0xffff
  109d98:	27a40004 	addiu	a0,sp,4
  109d9c:	34631fff 	ori	v1,v1,0x1fff
  109da0:	00431024 	and	v0,v0,v1
  109da4:	34422000 	ori	v0,v0,0x2000
  109da8:	0c0428b8 	jal	10a2e0 <SetOsdConfigParam>
  109dac:	afa20004 	sw	v0,4(sp)
  109db0:	0c0428bc 	jal	10a2f0 <GetOsdConfigParam>
  109db4:	27a40004 	addiu	a0,sp,4
  109db8:	0c0428b8 	jal	10a2e0 <SetOsdConfigParam>
  109dbc:	03a0202d 	move	a0,sp
  109dc0:	dfbf0010 	ld	ra,16(sp)
  109dc4:	8fa20004 	lw	v0,4(sp)
  109dc8:	00021342 	srl	v0,v0,0xd
  109dcc:	30420007 	andi	v0,v0,0x7
  109dd0:	28420001 	slti	v0,v0,1
  109dd4:	03e00008 	jr	ra
  109dd8:	27bd0020 	addiu	sp,sp,32
  109ddc:	00000000 	nop

00109de0 <InitTLBFunctions>:
  109de0:	27bdffc0 	addiu	sp,sp,-64
  109de4:	3c020011 	lui	v0,0x11
  109de8:	ffbf0030 	sd	ra,48(sp)
  109dec:	ffb20020 	sd	s2,32(sp)
  109df0:	24120004 	li	s2,4
  109df4:	ffb10010 	sd	s1,16(sp)
  109df8:	ffb00000 	sd	s0,0(sp)
  109dfc:	2450f9a8 	addiu	s0,v0,-1624
  109e00:	8e050004 	lw	a1,4(s0)
  109e04:	26110018 	addiu	s1,s0,24
  109e08:	0c04286e 	jal	10a1b8 <setup>
  109e0c:	8c44f9a8 	lw	a0,-1624(v0)
  109e10:	3c050011 	lui	a1,0x11
  109e14:	3c020011 	lui	v0,0x11
  109e18:	3c048007 	lui	a0,0x8007
  109e1c:	8c461d80 	lw	a2,7552(v0)
  109e20:	24a51d90 	addiu	a1,a1,7568
  109e24:	0c042873 	jal	10a1cc <Copy>
  109e28:	34845000 	ori	a0,a0,0x5000
  109e2c:	0c04233c 	jal	108cf0 <FlushCache>
  109e30:	0000202d 	move	a0,zero
  109e34:	0c04233c 	jal	108cf0 <FlushCache>
  109e38:	24040002 	li	a0,2
  109e3c:	8e040008 	lw	a0,8(s0)
  109e40:	0c04286e 	jal	10a1b8 <setup>
  109e44:	8e05000c 	lw	a1,12(s0)
  109e48:	8e240000 	lw	a0,0(s1)
  109e4c:	0c042878 	jal	10a1e0 <GetEntryAddress>
  109e50:	2652ffff 	addiu	s2,s2,-1
  109e54:	8e240000 	lw	a0,0(s1)
  109e58:	0040282d 	move	a1,v0
  109e5c:	0c04286e 	jal	10a1b8 <setup>
  109e60:	26310008 	addiu	s1,s1,8
  109e64:	0643fff9 	bgezl	s2,109e4c <InitTLBFunctions+0x6c>
  109e68:	8e240000 	lw	a0,0(s1)
  109e6c:	0c042878 	jal	10a1e0 <GetEntryAddress>
  109e70:	24040003 	li	a0,3
  109e74:	dfb00000 	ld	s0,0(sp)
  109e78:	dfbf0030 	ld	ra,48(sp)
  109e7c:	3c030011 	lui	v1,0x11
  109e80:	dfb20020 	ld	s2,32(sp)
  109e84:	dfb10010 	ld	s1,16(sp)
  109e88:	ac622c8c 	sw	v0,11404(v1)
  109e8c:	03e00008 	jr	ra
  109e90:	27bd0040 	addiu	sp,sp,64
  109e94:	00000000 	nop

00109e98 <InitTLB>:
  109e98:	27bdfff0 	addiu	sp,sp,-16
  109e9c:	ffbf0000 	sd	ra,0(sp)
  109ea0:	0c0428c4 	jal	10a310 <GetMemorySize>
  109ea4:	00000000 	nop
  109ea8:	3c030200 	lui	v1,0x200
  109eac:	10430006 	beq	v0,v1,109ec8 <InitTLB+0x30>
  109eb0:	00000000 	nop
  109eb4:	0c0428c8 	jal	10a320 <_InitTLB>
  109eb8:	00000000 	nop
  109ebc:	dfbf0000 	ld	ra,0(sp)
  109ec0:	03e00008 	jr	ra
  109ec4:	27bd0010 	addiu	sp,sp,16
  109ec8:	0c0427b6 	jal	109ed8 <InitTLB32MB>
  109ecc:	00000000 	nop
  109ed0:	1000fffb 	b	109ec0 <InitTLB+0x28>
  109ed4:	dfbf0000 	ld	ra,0(sp)

00109ed8 <InitTLB32MB>:
  109ed8:	27bdffb0 	addiu	sp,sp,-80
  109edc:	ffbf0040 	sd	ra,64(sp)
  109ee0:	ffb30030 	sd	s3,48(sp)
  109ee4:	ffb20020 	sd	s2,32(sp)
  109ee8:	ffb10010 	sd	s1,16(sp)
  109eec:	ffb00000 	sd	s0,0(sp)
  109ef0:	40803000 	mtc0	zero,$6
  109ef4:	0000040f 	sync.p
  109ef8:	3c040011 	lui	a0,0x11
  109efc:	8c831d60 	lw	v1,7520(a0)
  109f00:	2c620031 	sltiu	v0,v1,49
  109f04:	1040005f 	beqz	v0,10a084 <InitTLB32MB+0x1ac>
  109f08:	24851d60 	addiu	a1,a0,7520
  109f0c:	8cb00010 	lw	s0,16(a1)
  109f10:	1060000e 	beqz	v1,109f4c <InitTLB32MB+0x74>
  109f14:	0000882d 	move	s1,zero
  109f18:	0080902d 	move	s2,a0
  109f1c:	8e050000 	lw	a1,0(s0)
  109f20:	0220202d 	move	a0,s1
  109f24:	8e060004 	lw	a2,4(s0)
  109f28:	26310001 	addiu	s1,s1,1
  109f2c:	8e070008 	lw	a3,8(s0)
  109f30:	8e08000c 	lw	t0,12(s0)
  109f34:	0c0428c0 	jal	10a300 <_SetTLBEntry>
  109f38:	26100010 	addiu	s0,s0,16
  109f3c:	8e431d60 	lw	v1,7520(s2)
  109f40:	0223182b 	sltu	v1,s1,v1
  109f44:	5460fff6 	bnezl	v1,109f20 <InitTLB32MB+0x48>
  109f48:	8e050000 	lw	a1,0(s0)
  109f4c:	3c020011 	lui	v0,0x11
  109f50:	24451d60 	addiu	a1,v0,7520
  109f54:	8ca30004 	lw	v1,4(a1)
  109f58:	00719021 	addu	s2,v1,s1
  109f5c:	2e420031 	sltiu	v0,s2,49
  109f60:	10400048 	beqz	v0,10a084 <InitTLB32MB+0x1ac>
  109f64:	0232102b 	sltu	v0,s1,s2
  109f68:	14400039 	bnez	v0,10a050 <InitTLB32MB+0x178>
  109f6c:	8cb00014 	lw	s0,20(a1)
  109f70:	3c020011 	lui	v0,0x11
  109f74:	0220902d 	move	s2,s1
  109f78:	ac511d6c 	sw	s1,7532(v0)
  109f7c:	40913000 	mtc0	s1,$6
  109f80:	0000040f 	sync.p
  109f84:	3c020011 	lui	v0,0x11
  109f88:	24451d60 	addiu	a1,v0,7520
  109f8c:	8ca20008 	lw	v0,8(a1)
  109f90:	50400008 	beqzl	v0,109fb4 <InitTLB32MB+0xdc>
  109f94:	00121340 	sll	v0,s2,0xd
  109f98:	00519821 	addu	s3,v0,s1
  109f9c:	2e620031 	sltiu	v0,s3,49
  109fa0:	10400038 	beqz	v0,10a084 <InitTLB32MB+0x1ac>
  109fa4:	0233102b 	sltu	v0,s1,s3
  109fa8:	1440001b 	bnez	v0,10a018 <InitTLB32MB+0x140>
  109fac:	8cb00018 	lw	s0,24(a1)
  109fb0:	00121340 	sll	v0,s2,0xd
  109fb4:	3c03e000 	lui	v1,0xe000
  109fb8:	2e240030 	sltiu	a0,s1,48
  109fbc:	1480000a 	bnez	a0,109fe8 <InitTLB32MB+0x110>
  109fc0:	00438021 	addu	s0,v0,v1
  109fc4:	0240102d 	move	v0,s2
  109fc8:	dfbf0040 	ld	ra,64(sp)
  109fcc:	dfb30030 	ld	s3,48(sp)
  109fd0:	dfb20020 	ld	s2,32(sp)
  109fd4:	dfb10010 	ld	s1,16(sp)
  109fd8:	dfb00000 	ld	s0,0(sp)
  109fdc:	03e00008 	jr	ra
  109fe0:	27bd0050 	addiu	sp,sp,80
  109fe4:	00000000 	nop
  109fe8:	0220202d 	move	a0,s1
  109fec:	0200302d 	move	a2,s0
  109ff0:	0000282d 	move	a1,zero
  109ff4:	0000382d 	move	a3,zero
  109ff8:	0000402d 	move	t0,zero
  109ffc:	0c0428c0 	jal	10a300 <_SetTLBEntry>
  10a000:	26310001 	addiu	s1,s1,1
  10a004:	2e220030 	sltiu	v0,s1,48
  10a008:	1440fff7 	bnez	v0,109fe8 <InitTLB32MB+0x110>
  10a00c:	26102000 	addiu	s0,s0,8192
  10a010:	1000ffed 	b	109fc8 <InitTLB32MB+0xf0>
  10a014:	0240102d 	move	v0,s2
  10a018:	8e050000 	lw	a1,0(s0)
  10a01c:	0220202d 	move	a0,s1
  10a020:	8e060004 	lw	a2,4(s0)
  10a024:	26310001 	addiu	s1,s1,1
  10a028:	8e070008 	lw	a3,8(s0)
  10a02c:	26520001 	addiu	s2,s2,1
  10a030:	8e08000c 	lw	t0,12(s0)
  10a034:	0c0428c0 	jal	10a300 <_SetTLBEntry>
  10a038:	26100010 	addiu	s0,s0,16
  10a03c:	0233182b 	sltu	v1,s1,s3
  10a040:	5460fff6 	bnezl	v1,10a01c <InitTLB32MB+0x144>
  10a044:	8e050000 	lw	a1,0(s0)
  10a048:	1000ffda 	b	109fb4 <InitTLB32MB+0xdc>
  10a04c:	00121340 	sll	v0,s2,0xd
  10a050:	8e050000 	lw	a1,0(s0)
  10a054:	0220202d 	move	a0,s1
  10a058:	8e060004 	lw	a2,4(s0)
  10a05c:	26310001 	addiu	s1,s1,1
  10a060:	8e070008 	lw	a3,8(s0)
  10a064:	8e08000c 	lw	t0,12(s0)
  10a068:	0c0428c0 	jal	10a300 <_SetTLBEntry>
  10a06c:	26100010 	addiu	s0,s0,16
  10a070:	0232182b 	sltu	v1,s1,s2
  10a074:	5460fff7 	bnezl	v1,10a054 <InitTLB32MB+0x17c>
  10a078:	8e050000 	lw	a1,0(s0)
  10a07c:	1000ffbd 	b	109f74 <InitTLB32MB+0x9c>
  10a080:	3c020011 	lui	v0,0x11
  10a084:	0c042854 	jal	10a150 <Exit>
  10a088:	24040001 	li	a0,1
  10a08c:	00000000 	nop

0010a090 <InitAlarm>:
  10a090:	27bdffc0 	addiu	sp,sp,-64
  10a094:	3c020011 	lui	v0,0x11
  10a098:	ffbf0030 	sd	ra,48(sp)
  10a09c:	ffb20020 	sd	s2,32(sp)
  10a0a0:	24120005 	li	s2,5
  10a0a4:	ffb10010 	sd	s1,16(sp)
  10a0a8:	ffb00000 	sd	s0,0(sp)
  10a0ac:	2450fc58 	addiu	s0,v0,-936
  10a0b0:	8e050004 	lw	a1,4(s0)
  10a0b4:	26110010 	addiu	s1,s0,16
  10a0b8:	0c04286e 	jal	10a1b8 <setup>
  10a0bc:	8c44fc58 	lw	a0,-936(v0)
  10a0c0:	3c050011 	lui	a1,0x11
  10a0c4:	3c020011 	lui	v0,0x11
  10a0c8:	3c048007 	lui	a0,0x8007
  10a0cc:	8c4621a0 	lw	a2,8608(v0)
  10a0d0:	24a521b0 	addiu	a1,a1,8624
  10a0d4:	0c042873 	jal	10a1cc <Copy>
  10a0d8:	34846000 	ori	a0,a0,0x6000
  10a0dc:	3c050011 	lui	a1,0x11
  10a0e0:	3c020011 	lui	v0,0x11
  10a0e4:	3c040008 	lui	a0,0x8
  10a0e8:	8c462980 	lw	a2,10624(v0)
  10a0ec:	24a52990 	addiu	a1,a1,10640
  10a0f0:	0c042873 	jal	10a1cc <Copy>
  10a0f4:	34842000 	ori	a0,a0,0x2000
  10a0f8:	0c04233c 	jal	108cf0 <FlushCache>
  10a0fc:	0000202d 	move	a0,zero
  10a100:	0c04233c 	jal	108cf0 <FlushCache>
  10a104:	24040002 	li	a0,2
  10a108:	8e040008 	lw	a0,8(s0)
  10a10c:	0c04286e 	jal	10a1b8 <setup>
  10a110:	8e05000c 	lw	a1,12(s0)
  10a114:	8e240000 	lw	a0,0(s1)
  10a118:	0c042878 	jal	10a1e0 <GetEntryAddress>
  10a11c:	2652ffff 	addiu	s2,s2,-1
  10a120:	8e240000 	lw	a0,0(s1)
  10a124:	0040282d 	move	a1,v0
  10a128:	0c04286e 	jal	10a1b8 <setup>
  10a12c:	26310008 	addiu	s1,s1,8
  10a130:	0643fff9 	bgezl	s2,10a118 <InitAlarm+0x88>
  10a134:	8e240000 	lw	a0,0(s1)
  10a138:	dfbf0030 	ld	ra,48(sp)
  10a13c:	dfb20020 	ld	s2,32(sp)
  10a140:	dfb10010 	ld	s1,16(sp)
  10a144:	dfb00000 	ld	s0,0(sp)
  10a148:	03e00008 	jr	ra
  10a14c:	27bd0040 	addiu	sp,sp,64

0010a150 <Exit>:
  10a150:	27bdffe0 	addiu	sp,sp,-32
  10a154:	ffb00000 	sd	s0,0(sp)
  10a158:	ffbf0010 	sd	ra,16(sp)
  10a15c:	0c042b3e 	jal	10acf8 <TerminateLibrary>
  10a160:	0080802d 	move	s0,a0
  10a164:	0c042880 	jal	10a200 <_Exit>
  10a168:	0200202d 	move	a0,s0
  10a16c:	00000000 	nop

0010a170 <kCopy>:
  10a170:	24c20003 	addiu	v0,a2,3
  10a174:	28c30000 	slti	v1,a2,0
  10a178:	00c3100a 	movz	v0,a2,v1
  10a17c:	00021083 	sra	v0,v0,0x2
  10a180:	1040000b 	beqz	v0,10a1b0 <kCopy+0x40>
  10a184:	00000000 	nop
  10a188:	18c00009 	blez	a2,10a1b0 <kCopy+0x40>
  10a18c:	0000382d 	move	a3,zero
  10a190:	8ca20000 	lw	v0,0(a1)
  10a194:	24e70004 	addiu	a3,a3,4
  10a198:	00e6182a 	slt	v1,a3,a2
  10a19c:	24a50004 	addiu	a1,a1,4
  10a1a0:	ac820000 	sw	v0,0(a0)
  10a1a4:	24840004 	addiu	a0,a0,4
  10a1a8:	1460fff9 	bnez	v1,10a190 <kCopy+0x20>
  10a1ac:	00000000 	nop
  10a1b0:	03e00008 	jr	ra
  10a1b4:	0000102d 	move	v0,zero

0010a1b8 <setup>:
  10a1b8:	24030074 	li	v1,116
  10a1bc:	0000000c 	syscall
  10a1c0:	03e00008 	jr	ra
  10a1c4:	00000000 	nop
  10a1c8:	00000000 	nop

0010a1cc <Copy>:
  10a1cc:	2403005a 	li	v1,90
  10a1d0:	0000000c 	syscall
  10a1d4:	03e00008 	jr	ra
  10a1d8:	00000000 	nop
  10a1dc:	00000000 	nop

0010a1e0 <GetEntryAddress>:
  10a1e0:	2403005b 	li	v1,91
  10a1e4:	0000000c 	syscall
  10a1e8:	03e00008 	jr	ra
  10a1ec:	00000000 	nop
	...

0010a200 <_Exit>:
  10a200:	24030004 	li	v1,4
  10a204:	0000000c 	syscall
  10a208:	03e00008 	jr	ra
  10a20c:	00000000 	nop

0010a210 <_EnableIntc>:
  10a210:	24030014 	li	v1,20
  10a214:	0000000c 	syscall
  10a218:	03e00008 	jr	ra
  10a21c:	00000000 	nop

0010a220 <_DisableIntc>:
  10a220:	24030015 	li	v1,21
  10a224:	0000000c 	syscall
  10a228:	03e00008 	jr	ra
  10a22c:	00000000 	nop

0010a230 <CreateThread>:
  10a230:	24030020 	li	v1,32
  10a234:	0000000c 	syscall
  10a238:	03e00008 	jr	ra
  10a23c:	00000000 	nop

0010a240 <StartThread>:
  10a240:	24030022 	li	v1,34
  10a244:	0000000c 	syscall
  10a248:	03e00008 	jr	ra
  10a24c:	00000000 	nop

0010a250 <ChangeThreadPriority>:
  10a250:	24030029 	li	v1,41
  10a254:	0000000c 	syscall
  10a258:	03e00008 	jr	ra
  10a25c:	00000000 	nop

0010a260 <RotateThreadReadyQueue>:
  10a260:	2403002b 	li	v1,43
  10a264:	0000000c 	syscall
  10a268:	03e00008 	jr	ra
  10a26c:	00000000 	nop

0010a270 <WakeupThread>:
  10a270:	24030033 	li	v1,51
  10a274:	0000000c 	syscall
  10a278:	03e00008 	jr	ra
  10a27c:	00000000 	nop

0010a280 <SuspendThread>:
  10a280:	24030037 	li	v1,55
  10a284:	0000000c 	syscall
  10a288:	03e00008 	jr	ra
  10a28c:	00000000 	nop

0010a290 <CreateSema>:
  10a290:	24030040 	li	v1,64
  10a294:	0000000c 	syscall
  10a298:	03e00008 	jr	ra
  10a29c:	00000000 	nop

0010a2a0 <DeleteSema>:
  10a2a0:	24030041 	li	v1,65
  10a2a4:	0000000c 	syscall
  10a2a8:	03e00008 	jr	ra
  10a2ac:	00000000 	nop

0010a2b0 <iSignalSema>:
  10a2b0:	2403ffbd 	li	v1,-67
  10a2b4:	0000000c 	syscall
  10a2b8:	03e00008 	jr	ra
  10a2bc:	00000000 	nop

0010a2c0 <SignalSema>:
  10a2c0:	24030042 	li	v1,66
  10a2c4:	0000000c 	syscall
  10a2c8:	03e00008 	jr	ra
  10a2cc:	00000000 	nop

0010a2d0 <WaitSema>:
  10a2d0:	24030044 	li	v1,68
  10a2d4:	0000000c 	syscall
  10a2d8:	03e00008 	jr	ra
  10a2dc:	00000000 	nop

0010a2e0 <SetOsdConfigParam>:
  10a2e0:	2403004a 	li	v1,74
  10a2e4:	0000000c 	syscall
  10a2e8:	03e00008 	jr	ra
  10a2ec:	00000000 	nop

0010a2f0 <GetOsdConfigParam>:
  10a2f0:	2403004b 	li	v1,75
  10a2f4:	0000000c 	syscall
  10a2f8:	03e00008 	jr	ra
  10a2fc:	00000000 	nop

0010a300 <_SetTLBEntry>:
  10a300:	24030056 	li	v1,86
  10a304:	0000000c 	syscall
  10a308:	03e00008 	jr	ra
  10a30c:	00000000 	nop

0010a310 <GetMemorySize>:
  10a310:	2403007f 	li	v1,127
  10a314:	0000000c 	syscall
  10a318:	03e00008 	jr	ra
  10a31c:	00000000 	nop

0010a320 <_InitTLB>:
  10a320:	24030082 	li	v1,130
  10a324:	0000000c 	syscall
  10a328:	03e00008 	jr	ra
  10a32c:	00000000 	nop

0010a330 <SifWriteBackDCache>:
  10a330:	3c19ffff 	lui	t9,0xffff
  10a334:	3739ffc0 	ori	t9,t9,0xffc0
  10a338:	18a00026 	blez	a1,10a3d4 <last>
  10a33c:	00855021 	addu	t2,a0,a1
  10a340:	00994024 	and	t0,a0,t9
  10a344:	254affff 	addiu	t2,t2,-1
  10a348:	01594824 	and	t1,t2,t9
  10a34c:	01285023 	subu	t2,t1,t0
  10a350:	000a5982 	srl	t3,t2,0x6
  10a354:	256b0001 	addiu	t3,t3,1
  10a358:	31690007 	andi	t1,t3,0x7
  10a35c:	11200008 	beqz	t1,10a380 <eight>
  10a360:	000b50c2 	srl	t2,t3,0x3

0010a364 <loop1>:
  10a364:	0000000f 	sync
  10a368:	bd180000 	cache	0x18,0(t0)
  10a36c:	0000000f 	sync
  10a370:	2529ffff 	addiu	t1,t1,-1
  10a374:	00000000 	nop
  10a378:	1d20fffa 	bgtz	t1,10a364 <loop1>
  10a37c:	25080040 	addiu	t0,t0,64

0010a380 <eight>:
  10a380:	11400014 	beqz	t2,10a3d4 <last>

0010a384 <loop8>:
  10a384:	254affff 	addiu	t2,t2,-1
  10a388:	0000000f 	sync
  10a38c:	bd180000 	cache	0x18,0(t0)
  10a390:	0000000f 	sync
  10a394:	bd180040 	cache	0x18,64(t0)
  10a398:	0000000f 	sync
  10a39c:	bd180080 	cache	0x18,128(t0)
  10a3a0:	0000000f 	sync
  10a3a4:	bd1800c0 	cache	0x18,192(t0)
  10a3a8:	0000000f 	sync
  10a3ac:	bd180100 	cache	0x18,256(t0)
  10a3b0:	0000000f 	sync
  10a3b4:	bd180140 	cache	0x18,320(t0)
  10a3b8:	0000000f 	sync
  10a3bc:	bd180180 	cache	0x18,384(t0)
  10a3c0:	0000000f 	sync
  10a3c4:	bd1801c0 	cache	0x18,448(t0)
  10a3c8:	0000000f 	sync
  10a3cc:	1d40ffed 	bgtz	t2,10a384 <loop8>
  10a3d0:	25080200 	addiu	t0,t0,512

0010a3d4 <last>:
  10a3d4:	03e00008 	jr	ra
  10a3d8:	00000000 	nop
  10a3dc:	00000000 	nop

0010a3e0 <SifCallRpc>:
  10a3e0:	27bdff40 	addiu	sp,sp,-192
  10a3e4:	ffb10030 	sd	s1,48(sp)
  10a3e8:	0080882d 	move	s1,a0
  10a3ec:	3c040011 	lui	a0,0x11
  10a3f0:	ffbe00a0 	sd	s8,160(sp)
  10a3f4:	248429c0 	addiu	a0,a0,10688
  10a3f8:	ffb70090 	sd	s7,144(sp)
  10a3fc:	ffb60080 	sd	s6,128(sp)
  10a400:	0120f02d 	move	s8,t1
  10a404:	ffb50070 	sd	s5,112(sp)
  10a408:	00e0b02d 	move	s6,a3
  10a40c:	ffb40060 	sd	s4,96(sp)
  10a410:	00c0a82d 	move	s5,a2
  10a414:	ffb30050 	sd	s3,80(sp)
  10a418:	00a0a02d 	move	s4,a1
  10a41c:	ffb20040 	sd	s2,64(sp)
  10a420:	0100982d 	move	s3,t0
  10a424:	ffb00020 	sd	s0,32(sp)
  10a428:	0140902d 	move	s2,t2
  10a42c:	ffbf00b0 	sd	ra,176(sp)
  10a430:	0c042a78 	jal	10a9e0 <_rpc_get_packet>
  10a434:	0160b82d 	move	s7,t3
  10a438:	3c03ffff 	lui	v1,0xffff
  10a43c:	0040802d 	move	s0,v0
  10a440:	1040002d 	beqz	v0,10a4f8 <SifCallRpc+0x118>
  10a444:	346329f0 	ori	v1,v1,0x29f0
  10a448:	8c420018 	lw	v0,24(v0)
  10a44c:	2403ffff 	li	v1,-1
  10a450:	8e240024 	lw	a0,36(s1)
  10a454:	32a50002 	andi	a1,s5,0x2
  10a458:	ae220004 	sw	v0,4(s1)
  10a45c:	8fa200c0 	lw	v0,192(sp)
  10a460:	ae230008 	sw	v1,8(s1)
  10a464:	ae220020 	sw	v0,32(s1)
  10a468:	24020001 	li	v0,1
  10a46c:	ae300000 	sw	s0,0(s1)
  10a470:	ae140020 	sw	s4,32(s0)
  10a474:	ae020030 	sw	v0,48(s0)
  10a478:	ae040034 	sw	a0,52(s0)
  10a47c:	ae37001c 	sw	s7,28(s1)
  10a480:	ae130024 	sw	s3,36(s0)
  10a484:	ae1e0028 	sw	s8,40(s0)
  10a488:	ae12002c 	sw	s2,44(s0)
  10a48c:	ae100014 	sw	s0,20(s0)
  10a490:	14a00009 	bnez	a1,10a4b8 <SifCallRpc+0xd8>
  10a494:	ae11001c 	sw	s1,28(s0)
  10a498:	1a600003 	blez	s3,10a4a8 <SifCallRpc+0xc8>
  10a49c:	02c0202d 	move	a0,s6
  10a4a0:	0c0428cc 	jal	10a330 <SifWriteBackDCache>
  10a4a4:	0260282d 	move	a1,s3
  10a4a8:	1a400003 	blez	s2,10a4b8 <SifCallRpc+0xd8>
  10a4ac:	03c0202d 	move	a0,s8
  10a4b0:	0c0428cc 	jal	10a330 <SifWriteBackDCache>
  10a4b4:	0240282d 	move	a1,s2
  10a4b8:	32a20001 	andi	v0,s5,0x1
  10a4bc:	1040001c 	beqz	v0,10a530 <SifCallRpc+0x150>
  10a4c0:	24020001 	li	v0,1
  10a4c4:	52e00001 	beqzl	s7,10a4cc <SifCallRpc+0xec>
  10a4c8:	ae000030 	sw	zero,48(s0)
  10a4cc:	8e280014 	lw	t0,20(s1)
  10a4d0:	3c048000 	lui	a0,0x8000
  10a4d4:	0200282d 	move	a1,s0
  10a4d8:	02c0382d 	move	a3,s6
  10a4dc:	0260482d 	move	t1,s3
  10a4e0:	3484000a 	ori	a0,a0,0xa
  10a4e4:	0c042bc8 	jal	10af20 <SifSendCmd>
  10a4e8:	24060040 	li	a2,64
  10a4ec:	3c03ffff 	lui	v1,0xffff
  10a4f0:	346329ef 	ori	v1,v1,0x29ef
  10a4f4:	0002180b 	movn	v1,zero,v0
  10a4f8:	dfbf00b0 	ld	ra,176(sp)
  10a4fc:	0060102d 	move	v0,v1
  10a500:	dfbe00a0 	ld	s8,160(sp)
  10a504:	dfb70090 	ld	s7,144(sp)
  10a508:	dfb60080 	ld	s6,128(sp)
  10a50c:	dfb50070 	ld	s5,112(sp)
  10a510:	dfb40060 	ld	s4,96(sp)
  10a514:	dfb30050 	ld	s3,80(sp)
  10a518:	dfb20040 	ld	s2,64(sp)
  10a51c:	dfb10030 	ld	s1,48(sp)
  10a520:	dfb00020 	ld	s0,32(sp)
  10a524:	03e00008 	jr	ra
  10a528:	27bd00c0 	addiu	sp,sp,192
  10a52c:	00000000 	nop
  10a530:	03a0202d 	move	a0,sp
  10a534:	afa20004 	sw	v0,4(sp)
  10a538:	0c0428a4 	jal	10a290 <CreateSema>
  10a53c:	afa00008 	sw	zero,8(sp)
  10a540:	3c03ffff 	lui	v1,0xffff
  10a544:	ae220008 	sw	v0,8(s1)
  10a548:	0440ffeb 	bltz	v0,10a4f8 <SifCallRpc+0x118>
  10a54c:	346329fe 	ori	v1,v1,0x29fe
  10a550:	3c048000 	lui	a0,0x8000
  10a554:	8e280014 	lw	t0,20(s1)
  10a558:	0200282d 	move	a1,s0
  10a55c:	02c0382d 	move	a3,s6
  10a560:	0260482d 	move	t1,s3
  10a564:	3484000a 	ori	a0,a0,0xa
  10a568:	0c042bc8 	jal	10af20 <SifSendCmd>
  10a56c:	24060040 	li	a2,64
  10a570:	3c03ffff 	lui	v1,0xffff
  10a574:	1040ffe0 	beqz	v0,10a4f8 <SifCallRpc+0x118>
  10a578:	346329ef 	ori	v1,v1,0x29ef
  10a57c:	0c0428b4 	jal	10a2d0 <WaitSema>
  10a580:	8e240008 	lw	a0,8(s1)
  10a584:	0c0428a8 	jal	10a2a0 <DeleteSema>
  10a588:	8e240008 	lw	a0,8(s1)
  10a58c:	1000ffda 	b	10a4f8 <SifCallRpc+0x118>
  10a590:	0000182d 	move	v1,zero
  10a594:	00000000 	nop

0010a598 <rpc_packet_free>:
  10a598:	8c820010 	lw	v0,16(a0)
  10a59c:	2403fffe 	li	v1,-2
  10a5a0:	ac800018 	sw	zero,24(a0)
  10a5a4:	00431024 	and	v0,v0,v1
  10a5a8:	03e00008 	jr	ra
  10a5ac:	ac820010 	sw	v0,16(a0)

0010a5b0 <_request_end>:
  10a5b0:	27bdffe0 	addiu	sp,sp,-32
  10a5b4:	3c028000 	lui	v0,0x8000
  10a5b8:	ffbf0010 	sd	ra,16(sp)
  10a5bc:	3c058000 	lui	a1,0x8000
  10a5c0:	ffb00000 	sd	s0,0(sp)
  10a5c4:	3442000a 	ori	v0,v0,0xa
  10a5c8:	34a50009 	ori	a1,a1,0x9
  10a5cc:	8c830020 	lw	v1,32(a0)
  10a5d0:	10620015 	beq	v1,v0,10a628 <_request_end+0x78>
  10a5d4:	8c90001c 	lw	s0,28(a0)
  10a5d8:	5065000d 	beql	v1,a1,10a610 <_request_end+0x60>
  10a5dc:	8c820028 	lw	v0,40(a0)
  10a5e0:	8e020008 	lw	v0,8(s0)
  10a5e4:	04400003 	bltz	v0,10a5f4 <_request_end+0x44>
  10a5e8:	0040202d 	move	a0,v0
  10a5ec:	0c0428ac 	jal	10a2b0 <iSignalSema>
  10a5f0:	00000000 	nop
  10a5f4:	0c042966 	jal	10a598 <rpc_packet_free>
  10a5f8:	8e040000 	lw	a0,0(s0)
  10a5fc:	dfbf0010 	ld	ra,16(sp)
  10a600:	ae000000 	sw	zero,0(s0)
  10a604:	dfb00000 	ld	s0,0(sp)
  10a608:	03e00008 	jr	ra
  10a60c:	27bd0020 	addiu	sp,sp,32
  10a610:	8c830024 	lw	v1,36(a0)
  10a614:	ae020014 	sw	v0,20(s0)
  10a618:	ae030024 	sw	v1,36(s0)
  10a61c:	8c82002c 	lw	v0,44(a0)
  10a620:	1000ffef 	b	10a5e0 <_request_end+0x30>
  10a624:	ae020018 	sw	v0,24(s0)
  10a628:	8e02001c 	lw	v0,28(s0)
  10a62c:	5040ffed 	beqzl	v0,10a5e4 <_request_end+0x34>
  10a630:	8e020008 	lw	v0,8(s0)
  10a634:	0040f809 	jalr	v0
  10a638:	8e040020 	lw	a0,32(s0)
  10a63c:	1000ffe9 	b	10a5e4 <_request_end+0x34>
  10a640:	8e020008 	lw	v0,8(s0)
  10a644:	00000000 	nop

0010a648 <search_svdata>:
  10a648:	8ca60028 	lw	a2,40(a1)
  10a64c:	10c0000e 	beqz	a2,10a688 <search_svdata+0x40>
  10a650:	0000282d 	move	a1,zero
  10a654:	8cc30008 	lw	v1,8(a2)
  10a658:	50600008 	beqzl	v1,10a67c <search_svdata+0x34>
  10a65c:	8cc60014 	lw	a2,20(a2)
  10a660:	8c620000 	lw	v0,0(v1)
  10a664:	10440008 	beq	v0,a0,10a688 <search_svdata+0x40>
  10a668:	0060282d 	move	a1,v1
  10a66c:	8c630038 	lw	v1,56(v1)
  10a670:	5460fffc 	bnezl	v1,10a664 <search_svdata+0x1c>
  10a674:	8c620000 	lw	v0,0(v1)
  10a678:	8cc60014 	lw	a2,20(a2)
  10a67c:	54c0fff6 	bnezl	a2,10a658 <search_svdata+0x10>
  10a680:	8cc30008 	lw	v1,8(a2)
  10a684:	0000282d 	move	a1,zero
  10a688:	03e00008 	jr	ra
  10a68c:	00a0102d 	move	v0,a1

0010a690 <_request_bind>:
  10a690:	27bdffc0 	addiu	sp,sp,-64
  10a694:	ffb00000 	sd	s0,0(sp)
  10a698:	0080802d 	move	s0,a0
  10a69c:	00a0202d 	move	a0,a1
  10a6a0:	ffb20020 	sd	s2,32(sp)
  10a6a4:	ffb10010 	sd	s1,16(sp)
  10a6a8:	ffbf0030 	sd	ra,48(sp)
  10a6ac:	0c042aa8 	jal	10aaa0 <_rpc_get_fpacket>
  10a6b0:	00a0882d 	move	s1,a1
  10a6b4:	0040902d 	move	s2,v0
  10a6b8:	8e040014 	lw	a0,20(s0)
  10a6bc:	3c028000 	lui	v0,0x8000
  10a6c0:	8e03001c 	lw	v1,28(s0)
  10a6c4:	34420009 	ori	v0,v0,0x9
  10a6c8:	ae440014 	sw	a0,20(s2)
  10a6cc:	ae420020 	sw	v0,32(s2)
  10a6d0:	0220282d 	move	a1,s1
  10a6d4:	ae43001c 	sw	v1,28(s2)
  10a6d8:	0c042992 	jal	10a648 <search_svdata>
  10a6dc:	8e040020 	lw	a0,32(s0)
  10a6e0:	50400015 	beqzl	v0,10a738 <_request_bind+0xa8>
  10a6e4:	ae400024 	sw	zero,36(s2)
  10a6e8:	8c430008 	lw	v1,8(v0)
  10a6ec:	ae420024 	sw	v0,36(s2)
  10a6f0:	ae430028 	sw	v1,40(s2)
  10a6f4:	8c420014 	lw	v0,20(v0)
  10a6f8:	ae42002c 	sw	v0,44(s2)
  10a6fc:	3c048000 	lui	a0,0x8000
  10a700:	0240282d 	move	a1,s2
  10a704:	34840008 	ori	a0,a0,0x8
  10a708:	24060040 	li	a2,64
  10a70c:	0000382d 	move	a3,zero
  10a710:	0000402d 	move	t0,zero
  10a714:	0c042bd8 	jal	10af60 <iSifSendCmd>
  10a718:	0000482d 	move	t1,zero
  10a71c:	dfb00000 	ld	s0,0(sp)
  10a720:	dfbf0030 	ld	ra,48(sp)
  10a724:	dfb20020 	ld	s2,32(sp)
  10a728:	dfb10010 	ld	s1,16(sp)
  10a72c:	03e00008 	jr	ra
  10a730:	27bd0040 	addiu	sp,sp,64
  10a734:	00000000 	nop
  10a738:	ae400028 	sw	zero,40(s2)
  10a73c:	1000ffef 	b	10a6fc <_request_bind+0x6c>
  10a740:	ae40002c 	sw	zero,44(s2)
  10a744:	00000000 	nop

0010a748 <_request_call>:
  10a748:	27bdfff0 	addiu	sp,sp,-16
  10a74c:	ffbf0000 	sd	ra,0(sp)
  10a750:	8c860034 	lw	a2,52(a0)
  10a754:	8cc80040 	lw	t0,64(a2)
  10a758:	8d02000c 	lw	v0,12(t0)
  10a75c:	10400020 	beqz	v0,10a7e0 <_request_call+0x98>
  10a760:	0080382d 	move	a3,a0
  10a764:	8d020010 	lw	v0,16(t0)
  10a768:	ac460038 	sw	a2,56(v0)
  10a76c:	8ce20020 	lw	v0,32(a3)
  10a770:	8ce30014 	lw	v1,20(a3)
  10a774:	acc20024 	sw	v0,36(a2)
  10a778:	acc30020 	sw	v1,32(a2)
  10a77c:	8ce20024 	lw	v0,36(a3)
  10a780:	8ce40028 	lw	a0,40(a3)
  10a784:	acc2000c 	sw	v0,12(a2)
  10a788:	8ce5001c 	lw	a1,28(a3)
  10a78c:	8ce3002c 	lw	v1,44(a3)
  10a790:	acc40028 	sw	a0,40(a2)
  10a794:	acc3002c 	sw	v1,44(a2)
  10a798:	ad060010 	sw	a2,16(t0)
  10a79c:	8ce20030 	lw	v0,48(a3)
  10a7a0:	acc5001c 	sw	a1,28(a2)
  10a7a4:	acc20030 	sw	v0,48(a2)
  10a7a8:	8ce30010 	lw	v1,16(a3)
  10a7ac:	acc30034 	sw	v1,52(a2)
  10a7b0:	8d040000 	lw	a0,0(t0)
  10a7b4:	04800004 	bltz	a0,10a7c8 <_request_call+0x80>
  10a7b8:	dfbf0000 	ld	ra,0(sp)
  10a7bc:	8d020004 	lw	v0,4(t0)
  10a7c0:	10400003 	beqz	v0,10a7d0 <_request_call+0x88>
  10a7c4:	00000000 	nop
  10a7c8:	03e00008 	jr	ra
  10a7cc:	27bd0010 	addiu	sp,sp,16
  10a7d0:	0c042b46 	jal	10ad18 <iWakeupThread>
  10a7d4:	00000000 	nop
  10a7d8:	1000fffb 	b	10a7c8 <_request_call+0x80>
  10a7dc:	dfbf0000 	ld	ra,0(sp)
  10a7e0:	1000ffe2 	b	10a76c <_request_call+0x24>
  10a7e4:	ad06000c 	sw	a2,12(t0)

0010a7e8 <_request_rdata>:
  10a7e8:	27bdffe0 	addiu	sp,sp,-32
  10a7ec:	ffb00000 	sd	s0,0(sp)
  10a7f0:	0080802d 	move	s0,a0
  10a7f4:	ffbf0010 	sd	ra,16(sp)
  10a7f8:	0c042aa8 	jal	10aaa0 <_rpc_get_fpacket>
  10a7fc:	00a0202d 	move	a0,a1
  10a800:	8e07001c 	lw	a3,28(s0)
  10a804:	8e040014 	lw	a0,20(s0)
  10a808:	3c038000 	lui	v1,0x8000
  10a80c:	3463000c 	ori	v1,v1,0xc
  10a810:	ac47001c 	sw	a3,28(v0)
  10a814:	ac440014 	sw	a0,20(v0)
  10a818:	24060040 	li	a2,64
  10a81c:	ac430020 	sw	v1,32(v0)
  10a820:	3c048000 	lui	a0,0x8000
  10a824:	8e070020 	lw	a3,32(s0)
  10a828:	0040282d 	move	a1,v0
  10a82c:	8e090028 	lw	t1,40(s0)
  10a830:	34840008 	ori	a0,a0,0x8
  10a834:	0c042bd8 	jal	10af60 <iSifSendCmd>
  10a838:	8e080024 	lw	t0,36(s0)
  10a83c:	dfb00000 	ld	s0,0(sp)
  10a840:	dfbf0010 	ld	ra,16(sp)
  10a844:	03e00008 	jr	ra
  10a848:	27bd0020 	addiu	sp,sp,32
  10a84c:	00000000 	nop

0010a850 <SifInitRpc>:
  10a850:	27bdffd0 	addiu	sp,sp,-48
  10a854:	3c040011 	lui	a0,0x11
  10a858:	ffbf0020 	sd	ra,32(sp)
  10a85c:	3c020011 	lui	v0,0x11
  10a860:	ffb10010 	sd	s1,16(sp)
  10a864:	ffb00000 	sd	s0,0(sp)
  10a868:	8c422a08 	lw	v0,10760(v0)
  10a86c:	8c8329f0 	lw	v1,10736(a0)
  10a870:	10620005 	beq	v1,v0,10a888 <SifInitRpc+0x38>
  10a874:	3c030011 	lui	v1,0x11
  10a878:	0c042c98 	jal	10b260 <SifExitCmd>
  10a87c:	ac8229f0 	sw	v0,10736(a0)
  10a880:	3c030011 	lui	v1,0x11
  10a884:	ac6029ec 	sw	zero,10732(v1)
  10a888:	8c6229ec 	lw	v0,10732(v1)
  10a88c:	10400006 	beqz	v0,10a8a8 <SifInitRpc+0x58>
  10a890:	3c100011 	lui	s0,0x11
  10a894:	dfbf0020 	ld	ra,32(sp)
  10a898:	dfb10010 	ld	s1,16(sp)
  10a89c:	dfb00000 	ld	s0,0(sp)
  10a8a0:	03e00008 	jr	ra
  10a8a4:	27bd0030 	addiu	sp,sp,48
  10a8a8:	24110001 	li	s1,1
  10a8ac:	261029c0 	addiu	s0,s0,10688
  10a8b0:	0c042bf4 	jal	10afd0 <SifInitCmd>
  10a8b4:	ac7129ec 	sw	s1,10732(v1)
  10a8b8:	0c042b26 	jal	10ac98 <DIntr>
  10a8bc:	00000000 	nop
  10a8c0:	0200302d 	move	a2,s0
  10a8c4:	8e080004 	lw	t0,4(s0)
  10a8c8:	3c022000 	lui	v0,0x2000
  10a8cc:	8e070014 	lw	a3,20(s0)
  10a8d0:	3c048000 	lui	a0,0x8000
  10a8d4:	8e03001c 	lw	v1,28(s0)
  10a8d8:	01024025 	or	t0,t0,v0
  10a8dc:	00e23825 	or	a3,a3,v0
  10a8e0:	ae080004 	sw	t0,4(s0)
  10a8e4:	00621825 	or	v1,v1,v0
  10a8e8:	ae070014 	sw	a3,20(s0)
  10a8ec:	ae03001c 	sw	v1,28(s0)
  10a8f0:	3c050011 	lui	a1,0x11
  10a8f4:	24a5a5b0 	addiu	a1,a1,-23120
  10a8f8:	0c042cac 	jal	10b2b0 <SifAddCmdHandler>
  10a8fc:	34840008 	ori	a0,a0,0x8
  10a900:	0200302d 	move	a2,s0
  10a904:	3c048000 	lui	a0,0x8000
  10a908:	3c050011 	lui	a1,0x11
  10a90c:	34840009 	ori	a0,a0,0x9
  10a910:	0c042cac 	jal	10b2b0 <SifAddCmdHandler>
  10a914:	24a5a690 	addiu	a1,a1,-22896
  10a918:	3c050011 	lui	a1,0x11
  10a91c:	3c048000 	lui	a0,0x8000
  10a920:	0200302d 	move	a2,s0
  10a924:	3484000a 	ori	a0,a0,0xa
  10a928:	0c042cac 	jal	10b2b0 <SifAddCmdHandler>
  10a92c:	24a5a748 	addiu	a1,a1,-22712
  10a930:	3c050011 	lui	a1,0x11
  10a934:	3c048000 	lui	a0,0x8000
  10a938:	0200302d 	move	a2,s0
  10a93c:	3484000c 	ori	a0,a0,0xc
  10a940:	0c042cac 	jal	10b2b0 <SifAddCmdHandler>
  10a944:	24a5a7e8 	addiu	a1,a1,-22552
  10a948:	0c042b38 	jal	10ace0 <EIntr>
  10a94c:	00000000 	nop
  10a950:	3c048000 	lui	a0,0x8000
  10a954:	0c042b78 	jal	10ade0 <SifGetReg>
  10a958:	34840002 	ori	a0,a0,0x2
  10a95c:	1440ffce 	bnez	v0,10a898 <SifInitRpc+0x48>
  10a960:	dfbf0020 	ld	ra,32(sp)
  10a964:	3c020011 	lui	v0,0x11
  10a968:	3c048000 	lui	a0,0x8000
  10a96c:	24422fc0 	addiu	v0,v0,12224
  10a970:	34840002 	ori	a0,a0,0x2
  10a974:	ac51000c 	sw	s1,12(v0)
  10a978:	0040282d 	move	a1,v0
  10a97c:	24060010 	li	a2,16
  10a980:	0000382d 	move	a3,zero
  10a984:	0000402d 	move	t0,zero
  10a988:	0c042bc8 	jal	10af20 <SifSendCmd>
  10a98c:	0000482d 	move	t1,zero
  10a990:	0c042cbc 	jal	10b2f0 <SifGetSreg>
  10a994:	0000202d 	move	a0,zero
  10a998:	1040fffd 	beqz	v0,10a990 <SifInitRpc+0x140>
  10a99c:	3c048000 	lui	a0,0x8000
  10a9a0:	24050001 	li	a1,1
  10a9a4:	0c042b74 	jal	10add0 <SifSetReg>
  10a9a8:	34840002 	ori	a0,a0,0x2
  10a9ac:	1000ffba 	b	10a898 <SifInitRpc+0x48>
  10a9b0:	dfbf0020 	ld	ra,32(sp)
  10a9b4:	00000000 	nop

0010a9b8 <SifExitRpc>:
  10a9b8:	27bdfff0 	addiu	sp,sp,-16
  10a9bc:	ffbf0000 	sd	ra,0(sp)
  10a9c0:	0c042c98 	jal	10b260 <SifExitCmd>
  10a9c4:	00000000 	nop
  10a9c8:	dfbf0000 	ld	ra,0(sp)
  10a9cc:	3c020011 	lui	v0,0x11
  10a9d0:	ac4029ec 	sw	zero,10732(v0)
  10a9d4:	03e00008 	jr	ra
  10a9d8:	27bd0010 	addiu	sp,sp,16
  10a9dc:	00000000 	nop

0010a9e0 <_rpc_get_packet>:
  10a9e0:	27bdffc0 	addiu	sp,sp,-64
  10a9e4:	ffb20020 	sd	s2,32(sp)
  10a9e8:	0080902d 	move	s2,a0
  10a9ec:	ffb10010 	sd	s1,16(sp)
  10a9f0:	0000882d 	move	s1,zero
  10a9f4:	ffbf0030 	sd	ra,48(sp)
  10a9f8:	0c042b26 	jal	10ac98 <DIntr>
  10a9fc:	ffb00000 	sd	s0,0(sp)
  10aa00:	8e430008 	lw	v1,8(s2)
  10aa04:	18600021 	blez	v1,10aa8c <_rpc_get_packet+0xac>
  10aa08:	00000000 	nop
  10aa0c:	8e500004 	lw	s0,4(s2)
  10aa10:	8e020010 	lw	v0,16(s0)
  10aa14:	30420001 	andi	v0,v0,0x1
  10aa18:	10400005 	beqz	v0,10aa30 <_rpc_get_packet+0x50>
  10aa1c:	00000000 	nop
  10aa20:	26310001 	addiu	s1,s1,1
  10aa24:	0223102a 	slt	v0,s1,v1
  10aa28:	1440fff9 	bnez	v0,10aa10 <_rpc_get_packet+0x30>
  10aa2c:	26100040 	addiu	s0,s0,64
  10aa30:	12230016 	beq	s1,v1,10aa8c <_rpc_get_packet+0xac>
  10aa34:	00000000 	nop
  10aa38:	8e430000 	lw	v1,0(s2)
  10aa3c:	10600010 	beqz	v1,10aa80 <_rpc_get_packet+0xa0>
  10aa40:	24020002 	li	v0,2
  10aa44:	24630001 	addiu	v1,v1,1
  10aa48:	ae430000 	sw	v1,0(s2)
  10aa4c:	00111400 	sll	v0,s1,0x10
  10aa50:	ae030018 	sw	v1,24(s0)
  10aa54:	34420005 	ori	v0,v0,0x5
  10aa58:	ae100014 	sw	s0,20(s0)
  10aa5c:	0c042b38 	jal	10ace0 <EIntr>
  10aa60:	ae020010 	sw	v0,16(s0)
  10aa64:	0200102d 	move	v0,s0
  10aa68:	dfbf0030 	ld	ra,48(sp)
  10aa6c:	dfb20020 	ld	s2,32(sp)
  10aa70:	dfb10010 	ld	s1,16(sp)
  10aa74:	dfb00000 	ld	s0,0(sp)
  10aa78:	03e00008 	jr	ra
  10aa7c:	27bd0040 	addiu	sp,sp,64
  10aa80:	24030001 	li	v1,1
  10aa84:	1000fff1 	b	10aa4c <_rpc_get_packet+0x6c>
  10aa88:	ae420000 	sw	v0,0(s2)
  10aa8c:	0c042b38 	jal	10ace0 <EIntr>
  10aa90:	00000000 	nop
  10aa94:	1000fff4 	b	10aa68 <_rpc_get_packet+0x88>
  10aa98:	0000102d 	move	v0,zero
  10aa9c:	00000000 	nop

0010aaa0 <_rpc_get_fpacket>:
  10aaa0:	8c850024 	lw	a1,36(a0)
  10aaa4:	8c820018 	lw	v0,24(a0)
  10aaa8:	00a2001a 	div	zero,a1,v0
  10aaac:	50400001 	beqzl	v0,10aab4 <_rpc_get_fpacket+0x14>
  10aab0:	000001cd 	break	0x7
  10aab4:	8c820014 	lw	v0,20(a0)
  10aab8:	00001810 	mfhi	v1
  10aabc:	00032980 	sll	a1,v1,0x6
  10aac0:	24630001 	addiu	v1,v1,1
  10aac4:	00451021 	addu	v0,v0,a1
  10aac8:	03e00008 	jr	ra
  10aacc:	ac830024 	sw	v1,36(a0)

0010aad0 <fioInit>:
  10aad0:	27bdffc0 	addiu	sp,sp,-64
  10aad4:	3c040011 	lui	a0,0x11
  10aad8:	ffbf0030 	sd	ra,48(sp)
  10aadc:	3c020011 	lui	v0,0x11
  10aae0:	ffb00020 	sd	s0,32(sp)
  10aae4:	8c422a08 	lw	v0,10760(v0)
  10aae8:	8c832a04 	lw	v1,10756(a0)
  10aaec:	50620004 	beql	v1,v0,10ab00 <fioInit+0x30>
  10aaf0:	3c020011 	lui	v0,0x11
  10aaf4:	0c042b0a 	jal	10ac28 <fioExit>
  10aaf8:	ac822a04 	sw	v0,10756(a0)
  10aafc:	3c020011 	lui	v0,0x11
  10ab00:	8c4329f8 	lw	v1,10744(v0)
  10ab04:	10600006 	beqz	v1,10ab20 <fioInit+0x50>
  10ab08:	0000202d 	move	a0,zero
  10ab0c:	dfbf0030 	ld	ra,48(sp)
  10ab10:	0080102d 	move	v0,a0
  10ab14:	dfb00020 	ld	s0,32(sp)
  10ab18:	03e00008 	jr	ra
  10ab1c:	27bd0040 	addiu	sp,sp,64
  10ab20:	0c042a14 	jal	10a850 <SifInitRpc>
  10ab24:	0000202d 	move	a0,zero
  10ab28:	3c020011 	lui	v0,0x11
  10ab2c:	24504e00 	addiu	s0,v0,19968
  10ab30:	3c058000 	lui	a1,0x8000
  10ab34:	0200202d 	move	a0,s0
  10ab38:	34a50001 	ori	a1,a1,0x1
  10ab3c:	0c042cc2 	jal	10b308 <SifBindRpc>
  10ab40:	0000302d 	move	a2,zero
  10ab44:	0440fff1 	bltz	v0,10ab0c <fioInit+0x3c>
  10ab48:	0040202d 	move	a0,v0
  10ab4c:	8e020024 	lw	v0,36(s0)
  10ab50:	3c03000f 	lui	v1,0xf
  10ab54:	3463ffff 	ori	v1,v1,0xffff
  10ab58:	1440000f 	bnez	v0,10ab98 <fioInit+0xc8>
  10ab5c:	2404fffe 	li	a0,-2
	...
  10ab74:	2463ffff 	addiu	v1,v1,-1
	...
  10ab88:	1464fff5 	bne	v1,a0,10ab60 <fioInit+0x90>
  10ab8c:	3c058000 	lui	a1,0x8000
  10ab90:	1000ffe9 	b	10ab38 <fioInit+0x68>
  10ab94:	0200202d 	move	a0,s0
  10ab98:	24100001 	li	s0,1
  10ab9c:	03a0202d 	move	a0,sp
  10aba0:	afb00008 	sw	s0,8(sp)
  10aba4:	afb00004 	sw	s0,4(sp)
  10aba8:	0c0428a4 	jal	10a290 <CreateSema>
  10abac:	afa00014 	sw	zero,20(sp)
  10abb0:	3c04ffff 	lui	a0,0xffff
  10abb4:	3c030011 	lui	v1,0x11
  10abb8:	ac622a00 	sw	v0,10752(v1)
  10abbc:	0440ffd3 	bltz	v0,10ab0c <fioInit+0x3c>
  10abc0:	348429fe 	ori	a0,a0,0x29fe
  10abc4:	03a0202d 	move	a0,sp
  10abc8:	afb00008 	sw	s0,8(sp)
  10abcc:	afb00004 	sw	s0,4(sp)
  10abd0:	0c0428a4 	jal	10a290 <CreateSema>
  10abd4:	afa00014 	sw	zero,20(sp)
  10abd8:	3c04ffff 	lui	a0,0xffff
  10abdc:	3c030011 	lui	v1,0x11
  10abe0:	ac6229fc 	sw	v0,10748(v1)
  10abe4:	0440ffc9 	bltz	v0,10ab0c <fioInit+0x3c>
  10abe8:	348429fe 	ori	a0,a0,0x29fe
  10abec:	3c020011 	lui	v0,0x11
  10abf0:	0000202d 	move	a0,zero
  10abf4:	ac5029f8 	sw	s0,10744(v0)
  10abf8:	3c020011 	lui	v0,0x11
  10abfc:	1000ffc3 	b	10ab0c <fioInit+0x3c>
  10ac00:	ac402c90 	sw	zero,11408(v0)
  10ac04:	00000000 	nop

0010ac08 <_fio_intr>:
  10ac08:	27bdfff0 	addiu	sp,sp,-16
  10ac0c:	3c020011 	lui	v0,0x11
  10ac10:	ffbf0000 	sd	ra,0(sp)
  10ac14:	0c0428ac 	jal	10a2b0 <iSignalSema>
  10ac18:	8c442a00 	lw	a0,10752(v0)
  10ac1c:	dfbf0000 	ld	ra,0(sp)
  10ac20:	03e00008 	jr	ra
  10ac24:	27bd0010 	addiu	sp,sp,16

0010ac28 <fioExit>:
  10ac28:	27bdfff0 	addiu	sp,sp,-16
  10ac2c:	3c030011 	lui	v1,0x11
  10ac30:	ffbf0000 	sd	ra,0(sp)
  10ac34:	3c040011 	lui	a0,0x11
  10ac38:	0000282d 	move	a1,zero
  10ac3c:	24060028 	li	a2,40
  10ac40:	8c6229f8 	lw	v0,10744(v1)
  10ac44:	14400004 	bnez	v0,10ac58 <fioExit+0x30>
  10ac48:	24844e00 	addiu	a0,a0,19968
  10ac4c:	dfbf0000 	ld	ra,0(sp)
  10ac50:	03e00008 	jr	ra
  10ac54:	27bd0010 	addiu	sp,sp,16
  10ac58:	0c04182d 	jal	1060b4 <memset>
  10ac5c:	ac6029f8 	sw	zero,10744(v1)
  10ac60:	3c030011 	lui	v1,0x11
  10ac64:	8c622a00 	lw	v0,10752(v1)
  10ac68:	04400003 	bltz	v0,10ac78 <fioExit+0x50>
  10ac6c:	0040202d 	move	a0,v0
  10ac70:	0c0428a8 	jal	10a2a0 <DeleteSema>
  10ac74:	00000000 	nop
  10ac78:	3c020011 	lui	v0,0x11
  10ac7c:	8c4329fc 	lw	v1,10748(v0)
  10ac80:	0460fff2 	bltz	v1,10ac4c <fioExit+0x24>
  10ac84:	0060202d 	move	a0,v1
  10ac88:	0c0428a8 	jal	10a2a0 <DeleteSema>
  10ac8c:	00000000 	nop
  10ac90:	1000ffef 	b	10ac50 <fioExit+0x28>
  10ac94:	dfbf0000 	ld	ra,0(sp)

0010ac98 <DIntr>:
  10ac98:	40036000 	mfc0	v1,$12
  10ac9c:	3c020001 	lui	v0,0x1
  10aca0:	00621824 	and	v1,v1,v0
  10aca4:	0000202d 	move	a0,zero
  10aca8:	1060000b 	beqz	v1,10acd8 <DIntr+0x40>
  10acac:	0003282b 	sltu	a1,zero,v1
  10acb0:	3c020001 	lui	v0,0x1
  10acb4:	00000000 	nop
  10acb8:	42000039 	di
  10acbc:	0000040f 	sync.p
  10acc0:	40036000 	mfc0	v1,$12
  10acc4:	00000000 	nop
  10acc8:	00621824 	and	v1,v1,v0
  10accc:	1460fffa 	bnez	v1,10acb8 <DIntr+0x20>
  10acd0:	00000000 	nop
  10acd4:	00a0202d 	move	a0,a1
  10acd8:	03e00008 	jr	ra
  10acdc:	0080102d 	move	v0,a0

0010ace0 <EIntr>:
  10ace0:	40026000 	mfc0	v0,$12
  10ace4:	3c030001 	lui	v1,0x1
  10ace8:	00431024 	and	v0,v0,v1
  10acec:	42000038 	ei
  10acf0:	03e00008 	jr	ra
  10acf4:	0002102b 	sltu	v0,zero,v0

0010acf8 <TerminateLibrary>:
  10acf8:	27bdfff0 	addiu	sp,sp,-16
  10acfc:	ffbf0000 	sd	ra,0(sp)
  10ad00:	0c0427a6 	jal	109e98 <InitTLB>
  10ad04:	00000000 	nop
  10ad08:	dfbf0000 	ld	ra,0(sp)
  10ad0c:	03e00008 	jr	ra
  10ad10:	27bd0010 	addiu	sp,sp,16
  10ad14:	00000000 	nop

0010ad18 <iWakeupThread>:
  10ad18:	27bdffe0 	addiu	sp,sp,-32
  10ad1c:	ffb00000 	sd	s0,0(sp)
  10ad20:	ffbf0010 	sd	ra,16(sp)
  10ad24:	0c042b6c 	jal	10adb0 <_iGetThreadId>
  10ad28:	0080802d 	move	s0,a0
  10ad2c:	0200202d 	move	a0,s0
  10ad30:	10500009 	beq	v0,s0,10ad58 <iWakeupThread+0x40>
  10ad34:	2a030100 	slti	v1,s0,256
  10ad38:	0c042b70 	jal	10adc0 <_iWakeupThread>
  10ad3c:	00000000 	nop
  10ad40:	0040202d 	move	a0,v0
  10ad44:	dfbf0010 	ld	ra,16(sp)
  10ad48:	0080102d 	move	v0,a0
  10ad4c:	dfb00000 	ld	s0,0(sp)
  10ad50:	03e00008 	jr	ra
  10ad54:	27bd0020 	addiu	sp,sp,32
  10ad58:	1060fffa 	beqz	v1,10ad44 <iWakeupThread+0x2c>
  10ad5c:	2404ffff 	li	a0,-1
  10ad60:	3c020011 	lui	v0,0x11
  10ad64:	3c030011 	lui	v1,0x11
  10ad68:	24451238 	addiu	a1,v0,4664
  10ad6c:	8c621230 	lw	v0,4656(v1)
  10ad70:	1040fff5 	beqz	v0,10ad48 <iWakeupThread+0x30>
  10ad74:	dfbf0010 	ld	ra,16(sp)
  10ad78:	8ca20004 	lw	v0,4(a1)
  10ad7c:	3c030011 	lui	v1,0x11
  10ad80:	8c641234 	lw	a0,4660(v1)
  10ad84:	304201ff 	andi	v0,v0,0x1ff
  10ad88:	00021840 	sll	v1,v0,0x1
  10ad8c:	24420001 	addiu	v0,v0,1
  10ad90:	00651821 	addu	v1,v1,a1
  10ad94:	aca20004 	sw	v0,4(a1)
  10ad98:	a0700009 	sb	s0,9(v1)
  10ad9c:	0c0428ac 	jal	10a2b0 <iSignalSema>
  10ada0:	a0600008 	sb	zero,8(v1)
  10ada4:	1000ffe7 	b	10ad44 <iWakeupThread+0x2c>
  10ada8:	0000202d 	move	a0,zero
  10adac:	00000000 	nop

0010adb0 <_iGetThreadId>:
  10adb0:	2403ffd1 	li	v1,-47
  10adb4:	0000000c 	syscall
  10adb8:	03e00008 	jr	ra
  10adbc:	00000000 	nop

0010adc0 <_iWakeupThread>:
  10adc0:	2403ffcc 	li	v1,-52
  10adc4:	0000000c 	syscall
  10adc8:	03e00008 	jr	ra
  10adcc:	00000000 	nop

0010add0 <SifSetReg>:
  10add0:	24030079 	li	v1,121
  10add4:	0000000c 	syscall
  10add8:	03e00008 	jr	ra
  10addc:	00000000 	nop

0010ade0 <SifGetReg>:
  10ade0:	2403007a 	li	v1,122
  10ade4:	0000000c 	syscall
  10ade8:	03e00008 	jr	ra
  10adec:	00000000 	nop

0010adf0 <_SifSendCmd>:
  10adf0:	27bdff60 	addiu	sp,sp,-160
  10adf4:	0000182d 	move	v1,zero
  10adf8:	ffb10030 	sd	s1,48(sp)
  10adfc:	30f100ff 	andi	s1,a3,0xff
  10ae00:	2a220071 	slti	v0,s1,113
  10ae04:	ffb60080 	sd	s6,128(sp)
  10ae08:	ffb50070 	sd	s5,112(sp)
  10ae0c:	00a0b02d 	move	s6,a1
  10ae10:	ffb40060 	sd	s4,96(sp)
  10ae14:	0100a82d 	move	s5,t0
  10ae18:	ffb30050 	sd	s3,80(sp)
  10ae1c:	0120a02d 	move	s4,t1
  10ae20:	ffb20040 	sd	s2,64(sp)
  10ae24:	0000982d 	move	s3,zero
  10ae28:	ffb00020 	sd	s0,32(sp)
  10ae2c:	0140902d 	move	s2,t2
  10ae30:	ffbf0090 	sd	ra,144(sp)
  10ae34:	10400027 	beqz	v0,10aed4 <_SifSendCmd+0xe4>
  10ae38:	00c0802d 	move	s0,a2
  10ae3c:	000a1a00 	sll	v1,t2,0x8
  10ae40:	30a60004 	andi	a2,a1,0x4
  10ae44:	ae040008 	sw	a0,8(s0)
  10ae48:	a2110000 	sb	s1,0(s0)
  10ae4c:	1940000d 	blez	t2,10ae84 <_SifSendCmd+0x94>
  10ae50:	ae000004 	sw	zero,4(s0)
  10ae54:	322200ff 	andi	v0,s1,0xff
  10ae58:	0100202d 	move	a0,t0
  10ae5c:	00431025 	or	v0,v0,v1
  10ae60:	0140282d 	move	a1,t2
  10ae64:	ae090004 	sw	t1,4(s0)
  10ae68:	24130001 	li	s3,1
  10ae6c:	14c00028 	bnez	a2,10af10 <_SifSendCmd+0x120>
  10ae70:	ae020000 	sw	v0,0(s0)
  10ae74:	afb50000 	sw	s5,0(sp)
  10ae78:	afb40004 	sw	s4,4(sp)
  10ae7c:	afb20008 	sw	s2,8(sp)
  10ae80:	afa0000c 	sw	zero,12(sp)
  10ae84:	00131900 	sll	v1,s3,0x4
  10ae88:	24020044 	li	v0,68
  10ae8c:	007d1821 	addu	v1,v1,sp
  10ae90:	0200202d 	move	a0,s0
  10ae94:	ac700000 	sw	s0,0(v1)
  10ae98:	0220282d 	move	a1,s1
  10ae9c:	ac62000c 	sw	v0,12(v1)
  10aea0:	26730001 	addiu	s3,s3,1
  10aea4:	3c020011 	lui	v0,0x11
  10aea8:	ac710008 	sw	s1,8(v1)
  10aeac:	8c4656c8 	lw	a2,22216(v0)
  10aeb0:	0c0428cc 	jal	10a330 <SifWriteBackDCache>
  10aeb4:	ac660004 	sw	a2,4(v1)
  10aeb8:	32c20001 	andi	v0,s6,0x1
  10aebc:	0260282d 	move	a1,s3
  10aec0:	1040000f 	beqz	v0,10af00 <_SifSendCmd+0x110>
  10aec4:	03a0202d 	move	a0,sp
  10aec8:	0c042d5c 	jal	10b570 <iSifSetDma>
  10aecc:	00000000 	nop
  10aed0:	0040182d 	move	v1,v0
  10aed4:	dfbf0090 	ld	ra,144(sp)
  10aed8:	0060102d 	move	v0,v1
  10aedc:	dfb60080 	ld	s6,128(sp)
  10aee0:	dfb50070 	ld	s5,112(sp)
  10aee4:	dfb40060 	ld	s4,96(sp)
  10aee8:	dfb30050 	ld	s3,80(sp)
  10aeec:	dfb20040 	ld	s2,64(sp)
  10aef0:	dfb10030 	ld	s1,48(sp)
  10aef4:	dfb00020 	ld	s0,32(sp)
  10aef8:	03e00008 	jr	ra
  10aefc:	27bd00a0 	addiu	sp,sp,160
  10af00:	0c042d58 	jal	10b560 <SifSetDma>
  10af04:	03a0202d 	move	a0,sp
  10af08:	1000fff2 	b	10aed4 <_SifSendCmd+0xe4>
  10af0c:	0040182d 	move	v1,v0
  10af10:	0c0428cc 	jal	10a330 <SifWriteBackDCache>
  10af14:	00000000 	nop
  10af18:	1000ffd7 	b	10ae78 <_SifSendCmd+0x88>
  10af1c:	afb50000 	sw	s5,0(sp)

0010af20 <SifSendCmd>:
  10af20:	00e0182d 	move	v1,a3
  10af24:	0100582d 	move	t3,t0
  10af28:	00c0102d 	move	v0,a2
  10af2c:	27bdfff0 	addiu	sp,sp,-16
  10af30:	0120502d 	move	t2,t1
  10af34:	00a0302d 	move	a2,a1
  10af38:	0040382d 	move	a3,v0
  10af3c:	0060402d 	move	t0,v1
  10af40:	0160482d 	move	t1,t3
  10af44:	ffbf0000 	sd	ra,0(sp)
  10af48:	0c042b7c 	jal	10adf0 <_SifSendCmd>
  10af4c:	0000282d 	move	a1,zero
  10af50:	dfbf0000 	ld	ra,0(sp)
  10af54:	03e00008 	jr	ra
  10af58:	27bd0010 	addiu	sp,sp,16
  10af5c:	00000000 	nop

0010af60 <iSifSendCmd>:
  10af60:	00e0182d 	move	v1,a3
  10af64:	0100582d 	move	t3,t0
  10af68:	00c0102d 	move	v0,a2
  10af6c:	27bdfff0 	addiu	sp,sp,-16
  10af70:	0120502d 	move	t2,t1
  10af74:	00a0302d 	move	a2,a1
  10af78:	0040382d 	move	a3,v0
  10af7c:	0060402d 	move	t0,v1
  10af80:	0160482d 	move	t1,t3
  10af84:	ffbf0000 	sd	ra,0(sp)
  10af88:	0c042b7c 	jal	10adf0 <_SifSendCmd>
  10af8c:	24050001 	li	a1,1
  10af90:	dfbf0000 	ld	ra,0(sp)
  10af94:	03e00008 	jr	ra
  10af98:	27bd0010 	addiu	sp,sp,16
  10af9c:	00000000 	nop

0010afa0 <change_addr>:
  10afa0:	8c820010 	lw	v0,16(a0)
  10afa4:	03e00008 	jr	ra
  10afa8:	aca20008 	sw	v0,8(a1)
  10afac:	00000000 	nop

0010afb0 <set_sreg>:
  10afb0:	8c820010 	lw	v0,16(a0)
  10afb4:	8ca6001c 	lw	a2,28(a1)
  10afb8:	00021080 	sll	v0,v0,0x2
  10afbc:	8c830014 	lw	v1,20(a0)
  10afc0:	00461021 	addu	v0,v0,a2
  10afc4:	03e00008 	jr	ra
  10afc8:	ac430000 	sw	v1,0(v0)
  10afcc:	00000000 	nop

0010afd0 <SifInitCmd>:
  10afd0:	27bdffc0 	addiu	sp,sp,-64
  10afd4:	3c040011 	lui	a0,0x11
  10afd8:	ffbf0030 	sd	ra,48(sp)
  10afdc:	3c020011 	lui	v0,0x11
  10afe0:	ffb20020 	sd	s2,32(sp)
  10afe4:	ffb10010 	sd	s1,16(sp)
  10afe8:	ffb00000 	sd	s0,0(sp)
  10afec:	8c422a08 	lw	v0,10760(v0)
  10aff0:	8c832a14 	lw	v1,10772(a0)
  10aff4:	1062000d 	beq	v1,v0,10b02c <SifInitCmd+0x5c>
  10aff8:	3c110011 	lui	s1,0x11
  10affc:	3c100011 	lui	s0,0x11
  10b000:	ac822a14 	sw	v0,10772(a0)
  10b004:	8e022a10 	lw	v0,10768(s0)
  10b008:	04420008 	bltzl	v0,10b02c <SifInitCmd+0x5c>
  10b00c:	ae202a0c 	sw	zero,10764(s1)
  10b010:	0c042d2a 	jal	10b4a8 <DisableDmac>
  10b014:	24040005 	li	a0,5
  10b018:	24040005 	li	a0,5
  10b01c:	0c042d4c 	jal	10b530 <RemoveDmacHandler>
  10b020:	8e052a10 	lw	a1,10768(s0)
  10b024:	3c110011 	lui	s1,0x11
  10b028:	ae202a0c 	sw	zero,10764(s1)
  10b02c:	8e222a0c 	lw	v0,10764(s1)
  10b030:	10400006 	beqz	v0,10b04c <SifInitCmd+0x7c>
  10b034:	dfbf0030 	ld	ra,48(sp)
  10b038:	dfb20020 	ld	s2,32(sp)
  10b03c:	dfb10010 	ld	s1,16(sp)
  10b040:	dfb00000 	ld	s0,0(sp)
  10b044:	03e00008 	jr	ra
  10b048:	27bd0040 	addiu	sp,sp,64
  10b04c:	0c042b26 	jal	10ac98 <DIntr>
  10b050:	00000000 	nop
  10b054:	3c020011 	lui	v0,0x11
  10b058:	3c062000 	lui	a2,0x2000
  10b05c:	244247c0 	addiu	v0,v0,18368
  10b060:	00461025 	or	v0,v0,a2
  10b064:	3c070011 	lui	a3,0x11
  10b068:	3c040011 	lui	a0,0x11
  10b06c:	ace256c0 	sw	v0,22208(a3)
  10b070:	3c020011 	lui	v0,0x11
  10b074:	24e356c0 	addiu	v1,a3,22208
  10b078:	24424980 	addiu	v0,v0,18816
  10b07c:	24844840 	addiu	a0,a0,18496
  10b080:	3c050011 	lui	a1,0x11
  10b084:	00862025 	or	a0,a0,a2
  10b088:	24a54880 	addiu	a1,a1,18560
  10b08c:	ac62001c 	sw	v0,28(v1)
  10b090:	24020020 	li	v0,32
  10b094:	ac640004 	sw	a0,4(v1)
  10b098:	ac620010 	sw	v0,16(v1)
  10b09c:	2408001f 	li	t0,31
  10b0a0:	ac65000c 	sw	a1,12(v1)
  10b0a4:	00a0302d 	move	a2,a1
  10b0a8:	ac600014 	sw	zero,20(v1)
  10b0ac:	ac600018 	sw	zero,24(v1)
  10b0b0:	2508ffff 	addiu	t0,t0,-1
  10b0b4:	acc00000 	sw	zero,0(a2)
  10b0b8:	acc00004 	sw	zero,4(a2)
  10b0bc:	24c60008 	addiu	a2,a2,8
  10b0c0:	0501fffb 	bgez	t0,10b0b0 <SifInitCmd+0xe0>
  10b0c4:	00000000 	nop
  10b0c8:	3c020011 	lui	v0,0x11
  10b0cc:	2408001f 	li	t0,31
  10b0d0:	8c4256dc 	lw	v0,22236(v0)
  10b0d4:	00000000 	nop
  10b0d8:	2508ffff 	addiu	t0,t0,-1
  10b0dc:	ac400000 	sw	zero,0(v0)
  10b0e0:	24420004 	addiu	v0,v0,4
  10b0e4:	0501fffc 	bgez	t0,10b0d8 <SifInitCmd+0x108>
  10b0e8:	00000000 	nop
  10b0ec:	3c120011 	lui	s2,0x11
  10b0f0:	3c020011 	lui	v0,0x11
  10b0f4:	265056c0 	addiu	s0,s2,22208
  10b0f8:	3c030011 	lui	v1,0x11
  10b0fc:	8e04000c 	lw	a0,12(s0)
  10b100:	2463afb0 	addiu	v1,v1,-20560
  10b104:	2442afa0 	addiu	v0,v0,-20576
  10b108:	ac830008 	sw	v1,8(a0)
  10b10c:	ac820000 	sw	v0,0(a0)
  10b110:	ac90000c 	sw	s0,12(a0)
  10b114:	0c042b38 	jal	10ace0 <EIntr>
  10b118:	ac900004 	sw	s0,4(a0)
  10b11c:	0c04233c 	jal	108cf0 <FlushCache>
  10b120:	0000202d 	move	a0,zero
  10b124:	3c031000 	lui	v1,0x1000
  10b128:	3463e010 	ori	v1,v1,0xe010
  10b12c:	8c620000 	lw	v0,0(v1)
  10b130:	30420020 	andi	v0,v0,0x20
  10b134:	10400005 	beqz	v0,10b14c <SifInitCmd+0x17c>
  10b138:	3c031000 	lui	v1,0x1000
  10b13c:	24020020 	li	v0,32
  10b140:	3c011001 	lui	at,0x1001
  10b144:	ac22e010 	sw	v0,-8176(at)
  10b148:	3c031000 	lui	v1,0x1000
  10b14c:	3463c000 	ori	v1,v1,0xc000
  10b150:	8c620000 	lw	v0,0(v1)
  10b154:	30420100 	andi	v0,v0,0x100
  10b158:	1040003c 	beqz	v0,10b24c <SifInitCmd+0x27c>
  10b15c:	00000000 	nop
  10b160:	3c050011 	lui	a1,0x11
  10b164:	0000302d 	move	a2,zero
  10b168:	24a5b590 	addiu	a1,a1,-19056
  10b16c:	0c042d48 	jal	10b520 <AddDmacHandler>
  10b170:	24040005 	li	a0,5
  10b174:	3c030011 	lui	v1,0x11
  10b178:	24040005 	li	a0,5
  10b17c:	0c042d0c 	jal	10b430 <EnableDmac>
  10b180:	ac622a10 	sw	v0,10768(v1)
  10b184:	24020001 	li	v0,1
  10b188:	3c048000 	lui	a0,0x8000
  10b18c:	0c042b78 	jal	10ade0 <SifGetReg>
  10b190:	ae222a0c 	sw	v0,10764(s1)
  10b194:	14400022 	bnez	v0,10b220 <SifInitCmd+0x250>
  10b198:	ae020008 	sw	v0,8(s0)
  10b19c:	3c100002 	lui	s0,0x2
  10b1a0:	0c042b78 	jal	10ade0 <SifGetReg>
  10b1a4:	24040004 	li	a0,4
  10b1a8:	00501024 	and	v0,v0,s0
  10b1ac:	1040fffc 	beqz	v0,10b1a0 <SifInitCmd+0x1d0>
  10b1b0:	24040002 	li	a0,2
  10b1b4:	0c042b78 	jal	10ade0 <SifGetReg>
  10b1b8:	3c110011 	lui	s1,0x11
  10b1bc:	263056c0 	addiu	s0,s1,22208
  10b1c0:	ae020008 	sw	v0,8(s0)
  10b1c4:	0040282d 	move	a1,v0
  10b1c8:	0c042b74 	jal	10add0 <SifSetReg>
  10b1cc:	3c048000 	lui	a0,0x8000
  10b1d0:	0200282d 	move	a1,s0
  10b1d4:	3c048000 	lui	a0,0x8000
  10b1d8:	0c042b74 	jal	10add0 <SifSetReg>
  10b1dc:	34840001 	ori	a0,a0,0x1
  10b1e0:	0000402d 	move	t0,zero
  10b1e4:	8e2356c0 	lw	v1,22208(s1)
  10b1e8:	3c020011 	lui	v0,0x11
  10b1ec:	24424780 	addiu	v0,v0,18304
  10b1f0:	3c048000 	lui	a0,0x8000
  10b1f4:	ac430010 	sw	v1,16(v0)
  10b1f8:	0000482d 	move	t1,zero
  10b1fc:	ac40000c 	sw	zero,12(v0)
  10b200:	0040282d 	move	a1,v0
  10b204:	34840002 	ori	a0,a0,0x2
  10b208:	24060014 	li	a2,20
  10b20c:	0000382d 	move	a3,zero
  10b210:	0c042bc8 	jal	10af20 <SifSendCmd>
  10b214:	00000000 	nop
  10b218:	1000ff87 	b	10b038 <SifInitCmd+0x68>
  10b21c:	dfbf0030 	ld	ra,48(sp)
  10b220:	3c020011 	lui	v0,0x11
  10b224:	8e4356c0 	lw	v1,22208(s2)
  10b228:	24424780 	addiu	v0,v0,18304
  10b22c:	3c048000 	lui	a0,0x8000
  10b230:	0040282d 	move	a1,v0
  10b234:	24060014 	li	a2,20
  10b238:	0000382d 	move	a3,zero
  10b23c:	0000402d 	move	t0,zero
  10b240:	0000482d 	move	t1,zero
  10b244:	1000fff2 	b	10b210 <SifInitCmd+0x240>
  10b248:	ac430010 	sw	v1,16(v0)
  10b24c:	0c042d60 	jal	10b580 <SifSetDChain>
  10b250:	00000000 	nop
  10b254:	1000ffc3 	b	10b164 <SifInitCmd+0x194>
  10b258:	3c050011 	lui	a1,0x11
  10b25c:	00000000 	nop

0010b260 <SifExitCmd>:
  10b260:	27bdfff0 	addiu	sp,sp,-16
  10b264:	ffbf0000 	sd	ra,0(sp)
  10b268:	0c042d2a 	jal	10b4a8 <DisableDmac>
  10b26c:	24040005 	li	a0,5
  10b270:	3c020011 	lui	v0,0x11
  10b274:	24040005 	li	a0,5
  10b278:	0c042d4c 	jal	10b530 <RemoveDmacHandler>
  10b27c:	8c452a10 	lw	a1,10768(v0)
  10b280:	dfbf0000 	ld	ra,0(sp)
  10b284:	3c030011 	lui	v1,0x11
  10b288:	ac602a0c 	sw	zero,10764(v1)
  10b28c:	03e00008 	jr	ra
  10b290:	27bd0010 	addiu	sp,sp,16
  10b294:	00000000 	nop

0010b298 <SifSetCmdBuffer>:
  10b298:	3c030011 	lui	v1,0x11
  10b29c:	246356c0 	addiu	v1,v1,22208
  10b2a0:	8c620014 	lw	v0,20(v1)
  10b2a4:	ac650018 	sw	a1,24(v1)
  10b2a8:	03e00008 	jr	ra
  10b2ac:	ac640014 	sw	a0,20(v1)

0010b2b0 <SifAddCmdHandler>:
  10b2b0:	3c027fff 	lui	v0,0x7fff
  10b2b4:	3442ffff 	ori	v0,v0,0xffff
  10b2b8:	04810009 	bgez	a0,10b2e0 <SifAddCmdHandler+0x30>
  10b2bc:	00821824 	and	v1,a0,v0
  10b2c0:	3c020011 	lui	v0,0x11
  10b2c4:	8c4456cc 	lw	a0,22220(v0)
  10b2c8:	000310c0 	sll	v0,v1,0x3
  10b2cc:	00441021 	addu	v0,v0,a0
  10b2d0:	ac460004 	sw	a2,4(v0)
  10b2d4:	03e00008 	jr	ra
  10b2d8:	ac450000 	sw	a1,0(v0)
  10b2dc:	00000000 	nop
  10b2e0:	3c020011 	lui	v0,0x11
  10b2e4:	1000fff8 	b	10b2c8 <SifAddCmdHandler+0x18>
  10b2e8:	8c4456d4 	lw	a0,22228(v0)
  10b2ec:	00000000 	nop

0010b2f0 <SifGetSreg>:
  10b2f0:	3c020011 	lui	v0,0x11
  10b2f4:	00042080 	sll	a0,a0,0x2
  10b2f8:	8c4356dc 	lw	v1,22236(v0)
  10b2fc:	00832021 	addu	a0,a0,v1
  10b300:	03e00008 	jr	ra
  10b304:	8c820000 	lw	v0,0(a0)

0010b308 <SifBindRpc>:
  10b308:	27bdff90 	addiu	sp,sp,-112
  10b30c:	ffb10030 	sd	s1,48(sp)
  10b310:	0080882d 	move	s1,a0
  10b314:	3c040011 	lui	a0,0x11
  10b318:	ffb30050 	sd	s3,80(sp)
  10b31c:	248429c0 	addiu	a0,a0,10688
  10b320:	ffb20040 	sd	s2,64(sp)
  10b324:	ffb00020 	sd	s0,32(sp)
  10b328:	00a0982d 	move	s3,a1
  10b32c:	ffbf0060 	sd	ra,96(sp)
  10b330:	0c042a78 	jal	10a9e0 <_rpc_get_packet>
  10b334:	00c0902d 	move	s2,a2
  10b338:	3c03ffff 	lui	v1,0xffff
  10b33c:	0040802d 	move	s0,v0
  10b340:	10400019 	beqz	v0,10b3a8 <SifBindRpc+0xa0>
  10b344:	346329f0 	ori	v1,v1,0x29f0
  10b348:	ae200010 	sw	zero,16(s1)
  10b34c:	0040282d 	move	a1,v0
  10b350:	3c048000 	lui	a0,0x8000
  10b354:	2403ffff 	li	v1,-1
  10b358:	8c420018 	lw	v0,24(v0)
  10b35c:	324a0001 	andi	t2,s2,0x1
  10b360:	ae230008 	sw	v1,8(s1)
  10b364:	34840009 	ori	a0,a0,0x9
  10b368:	ae220004 	sw	v0,4(s1)
  10b36c:	24060040 	li	a2,64
  10b370:	ae300000 	sw	s0,0(s1)
  10b374:	0000382d 	move	a3,zero
  10b378:	0000402d 	move	t0,zero
  10b37c:	0000482d 	move	t1,zero
  10b380:	ae130020 	sw	s3,32(s0)
  10b384:	ae200024 	sw	zero,36(s1)
  10b388:	ae100014 	sw	s0,20(s0)
  10b38c:	1140000e 	beqz	t2,10b3c8 <SifBindRpc+0xc0>
  10b390:	ae11001c 	sw	s1,28(s0)
  10b394:	0c042bc8 	jal	10af20 <SifSendCmd>
  10b398:	00000000 	nop
  10b39c:	3c03ffff 	lui	v1,0xffff
  10b3a0:	346329ef 	ori	v1,v1,0x29ef
  10b3a4:	0002180b 	movn	v1,zero,v0
  10b3a8:	dfbf0060 	ld	ra,96(sp)
  10b3ac:	0060102d 	move	v0,v1
  10b3b0:	dfb30050 	ld	s3,80(sp)
  10b3b4:	dfb20040 	ld	s2,64(sp)
  10b3b8:	dfb10030 	ld	s1,48(sp)
  10b3bc:	dfb00020 	ld	s0,32(sp)
  10b3c0:	03e00008 	jr	ra
  10b3c4:	27bd0070 	addiu	sp,sp,112
  10b3c8:	24020001 	li	v0,1
  10b3cc:	03a0202d 	move	a0,sp
  10b3d0:	afa20004 	sw	v0,4(sp)
  10b3d4:	0c0428a4 	jal	10a290 <CreateSema>
  10b3d8:	afa00008 	sw	zero,8(sp)
  10b3dc:	3c03ffff 	lui	v1,0xffff
  10b3e0:	ae220008 	sw	v0,8(s1)
  10b3e4:	0440fff0 	bltz	v0,10b3a8 <SifBindRpc+0xa0>
  10b3e8:	346329fe 	ori	v1,v1,0x29fe
  10b3ec:	3c048000 	lui	a0,0x8000
  10b3f0:	0200282d 	move	a1,s0
  10b3f4:	34840009 	ori	a0,a0,0x9
  10b3f8:	24060040 	li	a2,64
  10b3fc:	0000382d 	move	a3,zero
  10b400:	0000402d 	move	t0,zero
  10b404:	0c042bc8 	jal	10af20 <SifSendCmd>
  10b408:	0000482d 	move	t1,zero
  10b40c:	3c03ffff 	lui	v1,0xffff
  10b410:	1040ffe5 	beqz	v0,10b3a8 <SifBindRpc+0xa0>
  10b414:	346329ef 	ori	v1,v1,0x29ef
  10b418:	0c0428b4 	jal	10a2d0 <WaitSema>
  10b41c:	8e240008 	lw	a0,8(s1)
  10b420:	0c0428a8 	jal	10a2a0 <DeleteSema>
  10b424:	8e240008 	lw	a0,8(s1)
  10b428:	1000ffdf 	b	10b3a8 <SifBindRpc+0xa0>
  10b42c:	0000182d 	move	v1,zero

0010b430 <EnableDmac>:
  10b430:	27bdffd0 	addiu	sp,sp,-48
  10b434:	ffb10010 	sd	s1,16(sp)
  10b438:	0080882d 	move	s1,a0
  10b43c:	ffbf0020 	sd	ra,32(sp)
  10b440:	ffb00000 	sd	s0,0(sp)
  10b444:	40106000 	mfc0	s0,$12
  10b448:	3c020001 	lui	v0,0x1
  10b44c:	02028024 	and	s0,s0,v0
  10b450:	16000011 	bnez	s0,10b498 <EnableDmac+0x68>
  10b454:	00000000 	nop
  10b458:	0c042d50 	jal	10b540 <_EnableDmac>
  10b45c:	0220202d 	move	a0,s1
  10b460:	0040882d 	move	s1,v0
  10b464:	0000000f 	sync
  10b468:	16000007 	bnez	s0,10b488 <EnableDmac+0x58>
  10b46c:	00000000 	nop
  10b470:	0220102d 	move	v0,s1
  10b474:	dfbf0020 	ld	ra,32(sp)
  10b478:	dfb10010 	ld	s1,16(sp)
  10b47c:	dfb00000 	ld	s0,0(sp)
  10b480:	03e00008 	jr	ra
  10b484:	27bd0030 	addiu	sp,sp,48
  10b488:	0c042b38 	jal	10ace0 <EIntr>
  10b48c:	00000000 	nop
  10b490:	1000fff8 	b	10b474 <EnableDmac+0x44>
  10b494:	0220102d 	move	v0,s1
  10b498:	0c042b26 	jal	10ac98 <DIntr>
  10b49c:	00000000 	nop
  10b4a0:	1000ffed 	b	10b458 <EnableDmac+0x28>
  10b4a4:	00000000 	nop

0010b4a8 <DisableDmac>:
  10b4a8:	27bdffd0 	addiu	sp,sp,-48
  10b4ac:	ffb10010 	sd	s1,16(sp)
  10b4b0:	0080882d 	move	s1,a0
  10b4b4:	ffbf0020 	sd	ra,32(sp)
  10b4b8:	ffb00000 	sd	s0,0(sp)
  10b4bc:	40106000 	mfc0	s0,$12
  10b4c0:	3c020001 	lui	v0,0x1
  10b4c4:	02028024 	and	s0,s0,v0
  10b4c8:	16000011 	bnez	s0,10b510 <DisableDmac+0x68>
  10b4cc:	00000000 	nop
  10b4d0:	0c042d54 	jal	10b550 <_DisableDmac>
  10b4d4:	0220202d 	move	a0,s1
  10b4d8:	0040882d 	move	s1,v0
  10b4dc:	0000000f 	sync
  10b4e0:	16000007 	bnez	s0,10b500 <DisableDmac+0x58>
  10b4e4:	00000000 	nop
  10b4e8:	0220102d 	move	v0,s1
  10b4ec:	dfbf0020 	ld	ra,32(sp)
  10b4f0:	dfb10010 	ld	s1,16(sp)
  10b4f4:	dfb00000 	ld	s0,0(sp)
  10b4f8:	03e00008 	jr	ra
  10b4fc:	27bd0030 	addiu	sp,sp,48
  10b500:	0c042b38 	jal	10ace0 <EIntr>
  10b504:	00000000 	nop
  10b508:	1000fff8 	b	10b4ec <DisableDmac+0x44>
  10b50c:	0220102d 	move	v0,s1
  10b510:	0c042b26 	jal	10ac98 <DIntr>
  10b514:	00000000 	nop
  10b518:	1000ffed 	b	10b4d0 <DisableDmac+0x28>
  10b51c:	00000000 	nop

0010b520 <AddDmacHandler>:
  10b520:	24030012 	li	v1,18
  10b524:	0000000c 	syscall
  10b528:	03e00008 	jr	ra
  10b52c:	00000000 	nop

0010b530 <RemoveDmacHandler>:
  10b530:	24030013 	li	v1,19
  10b534:	0000000c 	syscall
  10b538:	03e00008 	jr	ra
  10b53c:	00000000 	nop

0010b540 <_EnableDmac>:
  10b540:	24030016 	li	v1,22
  10b544:	0000000c 	syscall
  10b548:	03e00008 	jr	ra
  10b54c:	00000000 	nop

0010b550 <_DisableDmac>:
  10b550:	24030017 	li	v1,23
  10b554:	0000000c 	syscall
  10b558:	03e00008 	jr	ra
  10b55c:	00000000 	nop

0010b560 <SifSetDma>:
  10b560:	24030077 	li	v1,119
  10b564:	0000000c 	syscall
  10b568:	03e00008 	jr	ra
  10b56c:	00000000 	nop

0010b570 <iSifSetDma>:
  10b570:	2403ff89 	li	v1,-119
  10b574:	0000000c 	syscall
  10b578:	03e00008 	jr	ra
  10b57c:	00000000 	nop

0010b580 <SifSetDChain>:
  10b580:	24030078 	li	v1,120
  10b584:	0000000c 	syscall
  10b588:	03e00008 	jr	ra
  10b58c:	00000000 	nop

0010b590 <_SifCmdIntHandler>:
  10b590:	27bdff50 	addiu	sp,sp,-176
  10b594:	ffb00080 	sd	s0,128(sp)
  10b598:	3c100011 	lui	s0,0x11
  10b59c:	ffb10090 	sd	s1,144(sp)
  10b5a0:	ffbf00a0 	sd	ra,160(sp)
  10b5a4:	0c042b38 	jal	10ace0 <EIntr>
  10b5a8:	261156c0 	addiu	s1,s0,22208
  10b5ac:	8e0356c0 	lw	v1,22208(s0)
  10b5b0:	90620000 	lbu	v0,0(v1)
  10b5b4:	10400023 	beqz	v0,10b644 <_SifCmdIntHandler+0xb4>
  10b5b8:	0000302d 	move	a2,zero
  10b5bc:	2442001e 	addiu	v0,v0,30
  10b5c0:	00022903 	sra	a1,v0,0x4
  10b5c4:	10a0000e 	beqz	a1,10b600 <_SifCmdIntHandler+0x70>
  10b5c8:	a0600000 	sb	zero,0(v1)
  10b5cc:	24a5ffff 	addiu	a1,a1,-1
  10b5d0:	2402ffff 	li	v0,-1
  10b5d4:	10a2000a 	beq	a1,v0,10b600 <_SifCmdIntHandler+0x70>
  10b5d8:	8e0756c0 	lw	a3,22208(s0)
  10b5dc:	2408ffff 	li	t0,-1
  10b5e0:	00061100 	sll	v0,a2,0x4
  10b5e4:	24a5ffff 	addiu	a1,a1,-1
  10b5e8:	00472021 	addu	a0,v0,a3
  10b5ec:	24c60001 	addiu	a2,a2,1
  10b5f0:	78830000 	lq	v1,0(a0)
  10b5f4:	005d1021 	addu	v0,v0,sp
  10b5f8:	14a8fff9 	bne	a1,t0,10b5e0 <_SifCmdIntHandler+0x50>
  10b5fc:	7c430000 	sq	v1,0(v0)
  10b600:	0c042da4 	jal	10b690 <iSifSetDChain>
  10b604:	00000000 	nop
  10b608:	8fa30008 	lw	v1,8(sp)
  10b60c:	3c027fff 	lui	v0,0x7fff
  10b610:	3442ffff 	ori	v0,v0,0xffff
  10b614:	04610018 	bgez	v1,10b678 <_SifCmdIntHandler+0xe8>
  10b618:	00622024 	and	a0,v1,v0
  10b61c:	8e220010 	lw	v0,16(s1)
  10b620:	0082102b 	sltu	v0,a0,v0
  10b624:	10400007 	beqz	v0,10b644 <_SifCmdIntHandler+0xb4>
  10b628:	00000000 	nop
  10b62c:	8e23000c 	lw	v1,12(s1)
  10b630:	000410c0 	sll	v0,a0,0x3
  10b634:	00431021 	addu	v0,v0,v1
  10b638:	8c430000 	lw	v1,0(v0)
  10b63c:	54600009 	bnezl	v1,10b664 <_SifCmdIntHandler+0xd4>
  10b640:	8c450004 	lw	a1,4(v0)
  10b644:	0000000f 	sync
  10b648:	42000038 	ei
  10b64c:	0000102d 	move	v0,zero
  10b650:	dfbf00a0 	ld	ra,160(sp)
  10b654:	dfb10090 	ld	s1,144(sp)
  10b658:	dfb00080 	ld	s0,128(sp)
  10b65c:	03e00008 	jr	ra
  10b660:	27bd00b0 	addiu	sp,sp,176
  10b664:	0060f809 	jalr	v1
  10b668:	03a0202d 	move	a0,sp
  10b66c:	1000fff5 	b	10b644 <_SifCmdIntHandler+0xb4>
  10b670:	00000000 	nop
  10b674:	00000000 	nop
  10b678:	8e220018 	lw	v0,24(s1)
  10b67c:	0082102b 	sltu	v0,a0,v0
  10b680:	1040fff0 	beqz	v0,10b644 <_SifCmdIntHandler+0xb4>
  10b684:	00000000 	nop
  10b688:	1000ffe9 	b	10b630 <_SifCmdIntHandler+0xa0>
  10b68c:	8e230014 	lw	v1,20(s1)

0010b690 <iSifSetDChain>:
  10b690:	2403ff88 	li	v1,-120
  10b694:	0000000c 	syscall
  10b698:	03e00008 	jr	ra
  10b69c:	00000000 	nop

0010b6a0 <malloc>:
  10b6a0:	27bdfff0 	addiu	sp,sp,-16
  10b6a4:	3c020011 	lui	v0,0x11
  10b6a8:	ffbf0000 	sd	ra,0(sp)
  10b6ac:	0080282d 	move	a1,a0
  10b6b0:	0c0415c6 	jal	105718 <_malloc_r>
  10b6b4:	8c440c80 	lw	a0,3200(v0)
  10b6b8:	dfbf0000 	ld	ra,0(sp)
  10b6bc:	03e00008 	jr	ra
  10b6c0:	27bd0010 	addiu	sp,sp,16
  10b6c4:	00000000 	nop

0010b6c8 <free>:
  10b6c8:	3c020011 	lui	v0,0x11
  10b6cc:	0080282d 	move	a1,a0
  10b6d0:	8c440c80 	lw	a0,3200(v0)
  10b6d4:	27bdfff0 	addiu	sp,sp,-16
  10b6d8:	ffbf0000 	sd	ra,0(sp)
  10b6dc:	0c0411f6 	jal	1047d8 <_free_r>
  10b6e0:	00000000 	nop
  10b6e4:	dfbf0000 	ld	ra,0(sp)
  10b6e8:	03e00008 	jr	ra
  10b6ec:	27bd0010 	addiu	sp,sp,16

0010b6f0 <validate_structure>:
  10b6f0:	27bdffb0 	addiu	sp,sp,-80
  10b6f4:	ffb10030 	sd	s1,48(sp)
  10b6f8:	ffb00020 	sd	s0,32(sp)
  10b6fc:	0080802d 	move	s0,a0
  10b700:	ffbf0040 	sd	ra,64(sp)
  10b704:	8c840000 	lw	a0,0(a0)
  10b708:	2c82003c 	sltiu	v0,a0,60
  10b70c:	104000d2 	beqz	v0,10ba58 <validate_structure+0x368>
  10b710:	2411001c 	li	s1,28
  10b714:	8e040004 	lw	a0,4(s0)
  10b718:	2c82003c 	sltiu	v0,a0,60
  10b71c:	104000b9 	beqz	v0,10ba04 <validate_structure+0x314>
  10b720:	00000000 	nop
  10b724:	8e040008 	lw	a0,8(s0)
  10b728:	2c820018 	sltiu	v0,a0,24
  10b72c:	104000a0 	beqz	v0,10b9b0 <validate_structure+0x2c0>
  10b730:	00000000 	nop
  10b734:	8e050010 	lw	a1,16(s0)
  10b738:	28a2000c 	slti	v0,a1,12
  10b73c:	10400084 	beqz	v0,10b950 <validate_structure+0x260>
  10b740:	00a0202d 	move	a0,a1
  10b744:	8e040014 	lw	a0,20(s0)
  10b748:	30820003 	andi	v0,a0,0x3
  10b74c:	54400012 	bnezl	v0,10b798 <validate_structure+0xa8>
  10b750:	8e06000c 	lw	a2,12(s0)
  10b754:	24020064 	li	v0,100
  10b758:	0082001a 	div	zero,a0,v0
  10b75c:	50400001 	beqzl	v0,10b764 <validate_structure+0x74>
  10b760:	000001cd 	break	0x7
  10b764:	00001810 	mfhi	v1
  10b768:	5460000a 	bnezl	v1,10b794 <validate_structure+0xa4>
  10b76c:	2411001d 	li	s1,29
  10b770:	2483076c 	addiu	v1,a0,1900
  10b774:	24020190 	li	v0,400
  10b778:	0062001a 	div	zero,v1,v0
  10b77c:	50400001 	beqzl	v0,10b784 <validate_structure+0x94>
  10b780:	000001cd 	break	0x7
  10b784:	00002010 	mfhi	a0
  10b788:	54800003 	bnezl	a0,10b798 <validate_structure+0xa8>
  10b78c:	8e06000c 	lw	a2,12(s0)
  10b790:	2411001d 	li	s1,29
  10b794:	8e06000c 	lw	a2,12(s0)
  10b798:	18c00042 	blez	a2,10b8a4 <validate_structure+0x1b4>
  10b79c:	3c020011 	lui	v0,0x11
  10b7a0:	24090001 	li	t1,1
  10b7a4:	244afc98 	addiu	t2,v0,-872
  10b7a8:	24080001 	li	t0,1
  10b7ac:	0140582d 	move	t3,t2
  10b7b0:	2407000c 	li	a3,12
  10b7b4:	240c0064 	li	t4,100
  10b7b8:	240d0190 	li	t5,400
  10b7bc:	00000000 	nop
  10b7c0:	10a90033 	beq	a1,t1,10b890 <validate_structure+0x1a0>
  10b7c4:	00051080 	sll	v0,a1,0x2
  10b7c8:	004a1021 	addu	v0,v0,t2
  10b7cc:	8c430000 	lw	v1,0(v0)
  10b7d0:	0066182a 	slt	v1,v1,a2
  10b7d4:	1060002a 	beqz	v1,10b880 <validate_structure+0x190>
  10b7d8:	dfbf0040 	ld	ra,64(sp)
  10b7dc:	10a80026 	beq	a1,t0,10b878 <validate_structure+0x188>
  10b7e0:	00051080 	sll	v0,a1,0x2
  10b7e4:	004b1021 	addu	v0,v0,t3
  10b7e8:	8c430000 	lw	v1,0(v0)
  10b7ec:	00c32023 	subu	a0,a2,v1
  10b7f0:	24a30001 	addiu	v1,a1,1
  10b7f4:	ae04000c 	sw	a0,12(s0)
  10b7f8:	10670004 	beq	v1,a3,10b80c <validate_structure+0x11c>
  10b7fc:	ae030010 	sw	v1,16(s0)
  10b800:	0080302d 	move	a2,a0
  10b804:	1000ffee 	b	10b7c0 <validate_structure+0xd0>
  10b808:	0060282d 	move	a1,v1
  10b80c:	8e050014 	lw	a1,20(s0)
  10b810:	ae000010 	sw	zero,16(s0)
  10b814:	24a30001 	addiu	v1,a1,1
  10b818:	30620003 	andi	v0,v1,0x3
  10b81c:	1440000d 	bnez	v0,10b854 <validate_structure+0x164>
  10b820:	ae030014 	sw	v1,20(s0)
  10b824:	006c001a 	div	zero,v1,t4
  10b828:	51800001 	beqzl	t4,10b830 <validate_structure+0x140>
  10b82c:	000001cd 	break	0x7
  10b830:	00001010 	mfhi	v0
  10b834:	1440000b 	bnez	v0,10b864 <validate_structure+0x174>
  10b838:	24a2076d 	addiu	v0,a1,1901
  10b83c:	51a00001 	beqzl	t5,10b844 <validate_structure+0x154>
  10b840:	000001cd 	break	0x7
  10b844:	004d001a 	div	zero,v0,t5
  10b848:	00001810 	mfhi	v1
  10b84c:	50600006 	beqzl	v1,10b868 <validate_structure+0x178>
  10b850:	0080302d 	move	a2,a0
  10b854:	8e06000c 	lw	a2,12(s0)
  10b858:	2411001c 	li	s1,28
  10b85c:	1000ffd8 	b	10b7c0 <validate_structure+0xd0>
  10b860:	8e050010 	lw	a1,16(s0)
  10b864:	0080302d 	move	a2,a0
  10b868:	2411001d 	li	s1,29
  10b86c:	1000ffd4 	b	10b7c0 <validate_structure+0xd0>
  10b870:	0000282d 	move	a1,zero
  10b874:	00000000 	nop
  10b878:	1000ffdd 	b	10b7f0 <validate_structure+0x100>
  10b87c:	00d12023 	subu	a0,a2,s1
  10b880:	dfb10030 	ld	s1,48(sp)
  10b884:	dfb00020 	ld	s0,32(sp)
  10b888:	03e00008 	jr	ra
  10b88c:	27bd0050 	addiu	sp,sp,80
  10b890:	0226102a 	slt	v0,s1,a2
  10b894:	1440ffd1 	bnez	v0,10b7dc <validate_structure+0xec>
  10b898:	dfbf0040 	ld	ra,64(sp)
  10b89c:	1000fff9 	b	10b884 <validate_structure+0x194>
  10b8a0:	dfb10030 	ld	s1,48(sp)
  10b8a4:	2408ffff 	li	t0,-1
  10b8a8:	244afc98 	addiu	t2,v0,-872
  10b8ac:	240c000b 	li	t4,11
  10b8b0:	24090064 	li	t1,100
  10b8b4:	240b0190 	li	t3,400
  10b8b8:	24070001 	li	a3,1
  10b8bc:	24a2ffff 	addiu	v0,a1,-1
  10b8c0:	1048000d 	beq	v0,t0,10b8f8 <validate_structure+0x208>
  10b8c4:	ae020010 	sw	v0,16(s0)
  10b8c8:	8e050010 	lw	a1,16(s0)
  10b8cc:	00d11821 	addu	v1,a2,s1
  10b8d0:	00051080 	sll	v0,a1,0x2
  10b8d4:	10a70003 	beq	a1,a3,10b8e4 <validate_structure+0x1f4>
  10b8d8:	004a1021 	addu	v0,v0,t2
  10b8dc:	8c420000 	lw	v0,0(v0)
  10b8e0:	00c21821 	addu	v1,a2,v0
  10b8e4:	ae03000c 	sw	v1,12(s0)
  10b8e8:	1860fff4 	blez	v1,10b8bc <validate_structure+0x1cc>
  10b8ec:	0060302d 	move	a2,v1
  10b8f0:	1000ffe3 	b	10b880 <validate_structure+0x190>
  10b8f4:	dfbf0040 	ld	ra,64(sp)
  10b8f8:	8e040014 	lw	a0,20(s0)
  10b8fc:	2411001c 	li	s1,28
  10b900:	ae0c0010 	sw	t4,16(s0)
  10b904:	2483ffff 	addiu	v1,a0,-1
  10b908:	30620003 	andi	v0,v1,0x3
  10b90c:	1440ffee 	bnez	v0,10b8c8 <validate_structure+0x1d8>
  10b910:	ae030014 	sw	v1,20(s0)
  10b914:	0069001a 	div	zero,v1,t1
  10b918:	2484076b 	addiu	a0,a0,1899
  10b91c:	51200001 	beqzl	t1,10b924 <validate_structure+0x234>
  10b920:	000001cd 	break	0x7
  10b924:	00001010 	mfhi	v0
  10b928:	5440ffe7 	bnezl	v0,10b8c8 <validate_structure+0x1d8>
  10b92c:	2411001d 	li	s1,29
  10b930:	008b001a 	div	zero,a0,t3
  10b934:	51600001 	beqzl	t3,10b93c <validate_structure+0x24c>
  10b938:	000001cd 	break	0x7
  10b93c:	00001010 	mfhi	v0
  10b940:	5440ffe2 	bnezl	v0,10b8cc <validate_structure+0x1dc>
  10b944:	8e050010 	lw	a1,16(s0)
  10b948:	1000ffdf 	b	10b8c8 <validate_structure+0x1d8>
  10b94c:	2411001d 	li	s1,29
  10b950:	0c043278 	jal	10c9e0 <div>
  10b954:	2405000c 	li	a1,12
  10b958:	8e040014 	lw	a0,20(s0)
  10b95c:	0002183c 	dsll32	v1,v0,0x0
  10b960:	0002103e 	dsrl32	v0,v0,0x0
  10b964:	0003183e 	dsrl32	v1,v1,0x0
  10b968:	afa30010 	sw	v1,16(sp)
  10b96c:	afa20014 	sw	v0,20(sp)
  10b970:	dfa20010 	ld	v0,16(sp)
  10b974:	ffa20000 	sd	v0,0(sp)
  10b978:	8fa20000 	lw	v0,0(sp)
  10b97c:	8fa30004 	lw	v1,4(sp)
  10b980:	00821021 	addu	v0,a0,v0
  10b984:	ae020014 	sw	v0,20(s0)
  10b988:	04600003 	bltz	v1,10b998 <validate_structure+0x2a8>
  10b98c:	ae030010 	sw	v1,16(s0)
  10b990:	1000ff6c 	b	10b744 <validate_structure+0x54>
  10b994:	0060282d 	move	a1,v1
  10b998:	2463000c 	addiu	v1,v1,12
  10b99c:	2442ffff 	addiu	v0,v0,-1
  10b9a0:	0060282d 	move	a1,v1
  10b9a4:	ae020014 	sw	v0,20(s0)
  10b9a8:	1000ff66 	b	10b744 <validate_structure+0x54>
  10b9ac:	ae030010 	sw	v1,16(s0)
  10b9b0:	0c043278 	jal	10c9e0 <div>
  10b9b4:	24050018 	li	a1,24
  10b9b8:	8e04000c 	lw	a0,12(s0)
  10b9bc:	0002183c 	dsll32	v1,v0,0x0
  10b9c0:	0002103e 	dsrl32	v0,v0,0x0
  10b9c4:	0003183e 	dsrl32	v1,v1,0x0
  10b9c8:	afa30010 	sw	v1,16(sp)
  10b9cc:	afa20014 	sw	v0,20(sp)
  10b9d0:	dfa20010 	ld	v0,16(sp)
  10b9d4:	ffa20000 	sd	v0,0(sp)
  10b9d8:	8fa20000 	lw	v0,0(sp)
  10b9dc:	8fa50004 	lw	a1,4(sp)
  10b9e0:	00821821 	addu	v1,a0,v0
  10b9e4:	ae03000c 	sw	v1,12(s0)
  10b9e8:	04a1ff52 	bgez	a1,10b734 <validate_structure+0x44>
  10b9ec:	ae050008 	sw	a1,8(s0)
  10b9f0:	24a20018 	addiu	v0,a1,24
  10b9f4:	2463ffff 	addiu	v1,v1,-1
  10b9f8:	ae020008 	sw	v0,8(s0)
  10b9fc:	1000ff4d 	b	10b734 <validate_structure+0x44>
  10ba00:	ae03000c 	sw	v1,12(s0)
  10ba04:	0c043278 	jal	10c9e0 <div>
  10ba08:	2405003c 	li	a1,60
  10ba0c:	8e040008 	lw	a0,8(s0)
  10ba10:	0002183c 	dsll32	v1,v0,0x0
  10ba14:	0002103e 	dsrl32	v0,v0,0x0
  10ba18:	0003183e 	dsrl32	v1,v1,0x0
  10ba1c:	afa30010 	sw	v1,16(sp)
  10ba20:	afa20014 	sw	v0,20(sp)
  10ba24:	dfa20010 	ld	v0,16(sp)
  10ba28:	ffa20000 	sd	v0,0(sp)
  10ba2c:	8fa20000 	lw	v0,0(sp)
  10ba30:	8fa50004 	lw	a1,4(sp)
  10ba34:	00821821 	addu	v1,a0,v0
  10ba38:	ae030008 	sw	v1,8(s0)
  10ba3c:	04a1ff39 	bgez	a1,10b724 <validate_structure+0x34>
  10ba40:	ae050004 	sw	a1,4(s0)
  10ba44:	24a2003c 	addiu	v0,a1,60
  10ba48:	2463ffff 	addiu	v1,v1,-1
  10ba4c:	ae020004 	sw	v0,4(s0)
  10ba50:	1000ff34 	b	10b724 <validate_structure+0x34>
  10ba54:	ae030008 	sw	v1,8(s0)
  10ba58:	0c043278 	jal	10c9e0 <div>
  10ba5c:	2405003c 	li	a1,60
  10ba60:	8e040004 	lw	a0,4(s0)
  10ba64:	0002183c 	dsll32	v1,v0,0x0
  10ba68:	0002103e 	dsrl32	v0,v0,0x0
  10ba6c:	0003183e 	dsrl32	v1,v1,0x0
  10ba70:	afa30010 	sw	v1,16(sp)
  10ba74:	afa20014 	sw	v0,20(sp)
  10ba78:	dfa20010 	ld	v0,16(sp)
  10ba7c:	ffa20000 	sd	v0,0(sp)
  10ba80:	8fa20000 	lw	v0,0(sp)
  10ba84:	8fa50004 	lw	a1,4(sp)
  10ba88:	00821821 	addu	v1,a0,v0
  10ba8c:	ae030004 	sw	v1,4(s0)
  10ba90:	04a1ff20 	bgez	a1,10b714 <validate_structure+0x24>
  10ba94:	ae050000 	sw	a1,0(s0)
  10ba98:	24a2003c 	addiu	v0,a1,60
  10ba9c:	2463ffff 	addiu	v1,v1,-1
  10baa0:	ae020000 	sw	v0,0(s0)
  10baa4:	1000ff1b 	b	10b714 <validate_structure+0x24>
  10baa8:	ae030004 	sw	v1,4(s0)
  10baac:	00000000 	nop

0010bab0 <mktime>:
  10bab0:	27bdffa0 	addiu	sp,sp,-96
  10bab4:	ffb10010 	sd	s1,16(sp)
  10bab8:	0080882d 	move	s1,a0
  10babc:	ffbf0050 	sd	ra,80(sp)
  10bac0:	ffb40040 	sd	s4,64(sp)
  10bac4:	ffb30030 	sd	s3,48(sp)
  10bac8:	ffb00000 	sd	s0,0(sp)
  10bacc:	0c043294 	jal	10ca50 <__gettzinfo>
  10bad0:	ffb20020 	sd	s2,32(sp)
  10bad4:	0220202d 	move	a0,s1
  10bad8:	0c042dbc 	jal	10b6f0 <validate_structure>
  10badc:	0040a02d 	move	s4,v0
  10bae0:	8e28000c 	lw	t0,12(s1)
  10bae4:	8e250004 	lw	a1,4(s1)
  10bae8:	2402003c 	li	v0,60
  10baec:	8e260008 	lw	a2,8(s1)
  10baf0:	2510ffff 	addiu	s0,t0,-1
  10baf4:	00a20018 	mult	a1,v0
  10baf8:	8e270010 	lw	a3,16(s1)
  10bafc:	00072080 	sll	a0,a3,0x2
  10bb00:	28e70002 	slti	a3,a3,2
  10bb04:	00001812 	mflo	v1
  10bb08:	00002810 	mfhi	a1
  10bb0c:	0003183c 	dsll32	v1,v1,0x0
  10bb10:	0005283c 	dsll32	a1,a1,0x0
  10bb14:	0003183e 	dsrl32	v1,v1,0x0
  10bb18:	00a32825 	or	a1,a1,v1
  10bb1c:	24030e10 	li	v1,3600
  10bb20:	00c30018 	mult	a2,v1
  10bb24:	8e230000 	lw	v1,0(s1)
  10bb28:	00001012 	mflo	v0
  10bb2c:	00003010 	mfhi	a2
  10bb30:	0002103c 	dsll32	v0,v0,0x0
  10bb34:	0006303c 	dsll32	a2,a2,0x0
  10bb38:	0002103e 	dsrl32	v0,v0,0x0
  10bb3c:	00c23025 	or	a2,a2,v0
  10bb40:	3c020011 	lui	v0,0x11
  10bb44:	2442fcc8 	addiu	v0,v0,-824
  10bb48:	00a6282d 	daddu	a1,a1,a2
  10bb4c:	00822021 	addu	a0,a0,v0
  10bb50:	00a3982d 	daddu	s3,a1,v1
  10bb54:	8c820000 	lw	v0,0(a0)
  10bb58:	14e000c1 	bnez	a3,10be60 <mktime+0x3b0>
  10bb5c:	0202802d 	daddu	s0,s0,v0
  10bb60:	8e320014 	lw	s2,20(s1)
  10bb64:	32420003 	andi	v0,s2,0x3
  10bb68:	14400012 	bnez	v0,10bbb4 <mktime+0x104>
  10bb6c:	26422710 	addiu	v0,s2,10000
  10bb70:	24020064 	li	v0,100
  10bb74:	0242001a 	div	zero,s2,v0
  10bb78:	50400001 	beqzl	v0,10bb80 <mktime+0xd0>
  10bb7c:	000001cd 	break	0x7
  10bb80:	00001810 	mfhi	v1
  10bb84:	5460000a 	bnezl	v1,10bbb0 <mktime+0x100>
  10bb88:	66100001 	daddiu	s0,s0,1
  10bb8c:	24030190 	li	v1,400
  10bb90:	2642076c 	addiu	v0,s2,1900
  10bb94:	0043001a 	div	zero,v0,v1
  10bb98:	50600001 	beqzl	v1,10bba0 <mktime+0xf0>
  10bb9c:	000001cd 	break	0x7
  10bba0:	00002010 	mfhi	a0
  10bba4:	14800003 	bnez	a0,10bbb4 <mktime+0x104>
  10bba8:	26422710 	addiu	v0,s2,10000
  10bbac:	66100001 	daddiu	s0,s0,1
  10bbb0:	26422710 	addiu	v0,s2,10000
  10bbb4:	0010183c 	dsll32	v1,s0,0x0
  10bbb8:	0003183f 	dsra32	v1,v1,0x0
  10bbbc:	2c424e21 	sltiu	v0,v0,20001
  10bbc0:	ae23001c 	sw	v1,28(s1)
  10bbc4:	10400059 	beqz	v0,10bd2c <mktime+0x27c>
  10bbc8:	2403ffff 	li	v1,-1
  10bbcc:	2a420047 	slti	v0,s2,71
  10bbd0:	14400073 	bnez	v0,10bda0 <mktime+0x2f0>
  10bbd4:	2a420046 	slti	v0,s2,70
  10bbd8:	24040046 	li	a0,70
  10bbdc:	0092102a 	slt	v0,a0,s2
  10bbe0:	10400017 	beqz	v0,10bc40 <mktime+0x190>
  10bbe4:	24050064 	li	a1,100
  10bbe8:	24060190 	li	a2,400
  10bbec:	30820003 	andi	v0,a0,0x3
  10bbf0:	5440000f 	bnezl	v0,10bc30 <mktime+0x180>
  10bbf4:	6610016d 	daddiu	s0,s0,365
  10bbf8:	0085001a 	div	zero,a0,a1
  10bbfc:	2483076c 	addiu	v1,a0,1900
  10bc00:	50a00001 	beqzl	a1,10bc08 <mktime+0x158>
  10bc04:	000001cd 	break	0x7
  10bc08:	00001010 	mfhi	v0
  10bc0c:	54400008 	bnezl	v0,10bc30 <mktime+0x180>
  10bc10:	6610016e 	daddiu	s0,s0,366
  10bc14:	0066001a 	div	zero,v1,a2
  10bc18:	50c00001 	beqzl	a2,10bc20 <mktime+0x170>
  10bc1c:	000001cd 	break	0x7
  10bc20:	00001010 	mfhi	v0
  10bc24:	54400002 	bnezl	v0,10bc30 <mktime+0x180>
  10bc28:	6610016d 	daddiu	s0,s0,365
  10bc2c:	6610016e 	daddiu	s0,s0,366
  10bc30:	24840001 	addiu	a0,a0,1
  10bc34:	0092102a 	slt	v0,a0,s2
  10bc38:	1440ffed 	bnez	v0,10bbf0 <mktime+0x140>
  10bc3c:	30820003 	andi	v0,a0,0x3
  10bc40:	66040004 	daddiu	a0,s0,4
  10bc44:	0c0434b4 	jal	10d2d0 <__moddi3>
  10bc48:	24050007 	li	a1,7
  10bc4c:	0002103c 	dsll32	v0,v0,0x0
  10bc50:	0002103f 	dsra32	v0,v0,0x0
  10bc54:	0440004e 	bltz	v0,10bd90 <mktime+0x2e0>
  10bc58:	ae220018 	sw	v0,24(s1)
  10bc5c:	00102078 	dsll	a0,s0,0x1
  10bc60:	3c020011 	lui	v0,0x11
  10bc64:	0090202d 	daddu	a0,a0,s0
  10bc68:	8c452a28 	lw	a1,10792(v0)
  10bc6c:	00041938 	dsll	v1,a0,0x4
  10bc70:	8e300020 	lw	s0,32(s1)
  10bc74:	0064182f 	dsubu	v1,v1,a0
  10bc78:	00031138 	dsll	v0,v1,0x4
  10bc7c:	0043102f 	dsubu	v0,v0,v1
  10bc80:	000211f8 	dsll	v0,v0,0x7
  10bc84:	10a00022 	beqz	a1,10bd10 <mktime+0x260>
  10bc88:	0262982d 	daddu	s3,s3,v0
  10bc8c:	8e820004 	lw	v0,4(s4)
  10bc90:	2644076c 	addiu	a0,s2,1900
  10bc94:	50820006 	beql	a0,v0,10bcb0 <mktime+0x200>
  10bc98:	de820048 	ld	v0,72(s4)
  10bc9c:	0c043110 	jal	10c440 <__tzcalc_limits>
  10bca0:	00000000 	nop
  10bca4:	1040001b 	beqz	v0,10bd14 <mktime+0x264>
  10bca8:	24020001 	li	v0,1
  10bcac:	de820048 	ld	v0,72(s4)
  10bcb0:	de860028 	ld	a2,40(s4)
  10bcb4:	de850050 	ld	a1,80(s4)
  10bcb8:	0046182f 	dsubu	v1,v0,a2
  10bcbc:	de840020 	ld	a0,32(s4)
  10bcc0:	0263182a 	slt	v1,s3,v1
  10bcc4:	0045102f 	dsubu	v0,v0,a1
  10bcc8:	14600004 	bnez	v1,10bcdc <mktime+0x22c>
  10bccc:	0085202f 	dsubu	a0,a0,a1
  10bcd0:	0262102a 	slt	v0,s3,v0
  10bcd4:	1440000f 	bnez	v0,10bd14 <mktime+0x264>
  10bcd8:	24020001 	li	v0,1
  10bcdc:	8e820000 	lw	v0,0(s4)
  10bce0:	10400027 	beqz	v0,10bd80 <mktime+0x2d0>
  10bce4:	0264102a 	slt	v0,s3,a0
  10bce8:	14400004 	bnez	v0,10bcfc <mktime+0x24c>
  10bcec:	0000802d 	move	s0,zero
  10bcf0:	50600003 	beqzl	v1,10bd00 <mktime+0x250>
  10bcf4:	8e220020 	lw	v0,32(s1)
  10bcf8:	24100001 	li	s0,1
  10bcfc:	8e220020 	lw	v0,32(s1)
  10bd00:	24030001 	li	v1,1
  10bd04:	02021026 	xor	v0,s0,v0
  10bd08:	10430011 	beq	v0,v1,10bd50 <mktime+0x2a0>
  10bd0c:	00c5102f 	dsubu	v0,a2,a1
  10bd10:	24020001 	li	v0,1
  10bd14:	52020002 	beql	s0,v0,10bd20 <mktime+0x270>
  10bd18:	de820050 	ld	v0,80(s4)
  10bd1c:	de820028 	ld	v0,40(s4)
  10bd20:	0262982d 	daddu	s3,s3,v0
  10bd24:	ae300020 	sw	s0,32(s1)
  10bd28:	0260182d 	move	v1,s3
  10bd2c:	dfbf0050 	ld	ra,80(sp)
  10bd30:	0060102d 	move	v0,v1
  10bd34:	dfb40040 	ld	s4,64(sp)
  10bd38:	dfb30030 	ld	s3,48(sp)
  10bd3c:	dfb20020 	ld	s2,32(sp)
  10bd40:	dfb10010 	ld	s1,16(sp)
  10bd44:	dfb00000 	ld	s0,0(sp)
  10bd48:	03e00008 	jr	ra
  10bd4c:	27bd0060 	addiu	sp,sp,96
  10bd50:	0220202d 	move	a0,s1
  10bd54:	0002103c 	dsll32	v0,v0,0x0
  10bd58:	0002103f 	dsra32	v0,v0,0x0
  10bd5c:	8e250000 	lw	a1,0(s1)
  10bd60:	00021823 	negu	v1,v0
  10bd64:	0070100a 	movz	v0,v1,s0
  10bd68:	00a22821 	addu	a1,a1,v0
  10bd6c:	0053982d 	daddu	s3,v0,s3
  10bd70:	0c042dbc 	jal	10b6f0 <validate_structure>
  10bd74:	ae250000 	sw	a1,0(s1)
  10bd78:	1000ffe6 	b	10bd14 <mktime+0x264>
  10bd7c:	24020001 	li	v0,1
  10bd80:	1040ffdd 	beqz	v0,10bcf8 <mktime+0x248>
  10bd84:	0000802d 	move	s0,zero
  10bd88:	1000ffd9 	b	10bcf0 <mktime+0x240>
  10bd8c:	00000000 	nop
  10bd90:	24420007 	addiu	v0,v0,7
  10bd94:	1000ffb1 	b	10bc5c <mktime+0x1ac>
  10bd98:	ae220018 	sw	v0,24(s1)
  10bd9c:	00000000 	nop
  10bda0:	1040ffa8 	beqz	v0,10bc44 <mktime+0x194>
  10bda4:	66040004 	daddiu	a0,s0,4
  10bda8:	2a420045 	slti	v0,s2,69
  10bdac:	10400018 	beqz	v0,10be10 <mktime+0x360>
  10bdb0:	24040045 	li	a0,69
  10bdb4:	24050064 	li	a1,100
  10bdb8:	24060190 	li	a2,400
  10bdbc:	30820003 	andi	v0,a0,0x3
  10bdc0:	5440000f 	bnezl	v0,10be00 <mktime+0x350>
  10bdc4:	6610fe93 	daddiu	s0,s0,-365
  10bdc8:	0085001a 	div	zero,a0,a1
  10bdcc:	2483076c 	addiu	v1,a0,1900
  10bdd0:	50a00001 	beqzl	a1,10bdd8 <mktime+0x328>
  10bdd4:	000001cd 	break	0x7
  10bdd8:	00001010 	mfhi	v0
  10bddc:	54400008 	bnezl	v0,10be00 <mktime+0x350>
  10bde0:	6610fe92 	daddiu	s0,s0,-366
  10bde4:	0066001a 	div	zero,v1,a2
  10bde8:	50c00001 	beqzl	a2,10bdf0 <mktime+0x340>
  10bdec:	000001cd 	break	0x7
  10bdf0:	00001010 	mfhi	v0
  10bdf4:	54400002 	bnezl	v0,10be00 <mktime+0x350>
  10bdf8:	6610fe93 	daddiu	s0,s0,-365
  10bdfc:	6610fe92 	daddiu	s0,s0,-366
  10be00:	2484ffff 	addiu	a0,a0,-1
  10be04:	0244102a 	slt	v0,s2,a0
  10be08:	1440ffed 	bnez	v0,10bdc0 <mktime+0x310>
  10be0c:	30820003 	andi	v0,a0,0x3
  10be10:	30820003 	andi	v0,a0,0x3
  10be14:	5440ff8a 	bnezl	v0,10bc40 <mktime+0x190>
  10be18:	6610fe93 	daddiu	s0,s0,-365
  10be1c:	24020064 	li	v0,100
  10be20:	0082001a 	div	zero,a0,v0
  10be24:	50400001 	beqzl	v0,10be2c <mktime+0x37c>
  10be28:	000001cd 	break	0x7
  10be2c:	00001810 	mfhi	v1
  10be30:	5460ff83 	bnezl	v1,10bc40 <mktime+0x190>
  10be34:	6610fe92 	daddiu	s0,s0,-366
  10be38:	2483076c 	addiu	v1,a0,1900
  10be3c:	24020190 	li	v0,400
  10be40:	0062001a 	div	zero,v1,v0
  10be44:	50400001 	beqzl	v0,10be4c <mktime+0x39c>
  10be48:	000001cd 	break	0x7
  10be4c:	00002010 	mfhi	a0
  10be50:	5480ff7b 	bnezl	a0,10bc40 <mktime+0x190>
  10be54:	6610fe93 	daddiu	s0,s0,-365
  10be58:	1000ff79 	b	10bc40 <mktime+0x190>
  10be5c:	6610fe92 	daddiu	s0,s0,-366
  10be60:	1000ff53 	b	10bbb0 <mktime+0x100>
  10be64:	8e320014 	lw	s2,20(s1)

0010be68 <_mktm_r>:
  10be68:	27bdff80 	addiu	sp,sp,-128
  10be6c:	ffb50050 	sd	s5,80(sp)
  10be70:	0080a82d 	move	s5,a0
  10be74:	ffbf0070 	sd	ra,112(sp)
  10be78:	ffb60060 	sd	s6,96(sp)
  10be7c:	00c0b02d 	move	s6,a2
  10be80:	ffb30030 	sd	s3,48(sp)
  10be84:	ffb20020 	sd	s2,32(sp)
  10be88:	00a0902d 	move	s2,a1
  10be8c:	ffb10010 	sd	s1,16(sp)
  10be90:	ffb00000 	sd	s0,0(sp)
  10be94:	0c043294 	jal	10ca50 <__gettzinfo>
  10be98:	ffb40040 	sd	s4,64(sp)
  10be9c:	deb00000 	ld	s0,0(s5)
  10bea0:	3c050001 	lui	a1,0x1
  10bea4:	34a55180 	ori	a1,a1,0x5180
  10bea8:	0040982d 	move	s3,v0
  10beac:	0c0432b6 	jal	10cad8 <__divdi3>
  10beb0:	0200202d 	move	a0,s0
  10beb4:	3c050001 	lui	a1,0x1
  10beb8:	34a55180 	ori	a1,a1,0x5180
  10bebc:	0200202d 	move	a0,s0
  10bec0:	0c0434b4 	jal	10d2d0 <__moddi3>
  10bec4:	0040882d 	move	s1,v0
  10bec8:	04400155 	bltz	v0,10c420 <_mktm_r+0x5b8>
  10becc:	0040802d 	move	s0,v0
  10bed0:	3c020001 	lui	v0,0x1
  10bed4:	3442517f 	ori	v0,v0,0x517f
  10bed8:	0050102a 	slt	v0,v0,s0
  10bedc:	1040000c 	beqz	v0,10bf10 <_mktm_r+0xa8>
  10bee0:	0200202d 	move	a0,s0
  10bee4:	3c04fffe 	lui	a0,0xfffe
  10bee8:	3484ae80 	ori	a0,a0,0xae80
  10beec:	3c030001 	lui	v1,0x1
  10bef0:	3463517f 	ori	v1,v1,0x517f
  10bef4:	00000000 	nop
  10bef8:	0204802d 	daddu	s0,s0,a0
  10befc:	66310001 	daddiu	s1,s1,1
  10bf00:	0070102a 	slt	v0,v1,s0
  10bf04:	1440fffc 	bnez	v0,10bef8 <_mktm_r+0x90>
  10bf08:	00000000 	nop
  10bf0c:	0200202d 	move	a0,s0
  10bf10:	0c0432b6 	jal	10cad8 <__divdi3>
  10bf14:	24050e10 	li	a1,3600
  10bf18:	0200202d 	move	a0,s0
  10bf1c:	0002103c 	dsll32	v0,v0,0x0
  10bf20:	0002103f 	dsra32	v0,v0,0x0
  10bf24:	24050e10 	li	a1,3600
  10bf28:	0c0434b4 	jal	10d2d0 <__moddi3>
  10bf2c:	ae420008 	sw	v0,8(s2)
  10bf30:	2405003c 	li	a1,60
  10bf34:	0040202d 	move	a0,v0
  10bf38:	0c0432b6 	jal	10cad8 <__divdi3>
  10bf3c:	0040802d 	move	s0,v0
  10bf40:	0200202d 	move	a0,s0
  10bf44:	0002103c 	dsll32	v0,v0,0x0
  10bf48:	0002103f 	dsra32	v0,v0,0x0
  10bf4c:	2405003c 	li	a1,60
  10bf50:	0c0434b4 	jal	10d2d0 <__moddi3>
  10bf54:	ae420004 	sw	v0,4(s2)
  10bf58:	66240004 	daddiu	a0,s1,4
  10bf5c:	0002103c 	dsll32	v0,v0,0x0
  10bf60:	0002103f 	dsra32	v0,v0,0x0
  10bf64:	24050007 	li	a1,7
  10bf68:	0c0434b4 	jal	10d2d0 <__moddi3>
  10bf6c:	ae420000 	sw	v0,0(s2)
  10bf70:	0002103c 	dsll32	v0,v0,0x0
  10bf74:	0002103f 	dsra32	v0,v0,0x0
  10bf78:	04400126 	bltz	v0,10c414 <_mktm_r+0x5ac>
  10bf7c:	ae420018 	sw	v0,24(s2)
  10bf80:	06200107 	bltz	s1,10c3a0 <_mktm_r+0x538>
  10bf84:	241007b2 	li	s0,1970
  10bf88:	3c020011 	lui	v0,0x11
  10bf8c:	24050064 	li	a1,100
  10bf90:	2447fd58 	addiu	a3,v0,-680
  10bf94:	24040190 	li	a0,400
  10bf98:	32020003 	andi	v0,s0,0x3
  10bf9c:	14400007 	bnez	v0,10bfbc <_mktm_r+0x154>
  10bfa0:	0000302d 	move	a2,zero
  10bfa4:	0205001a 	div	zero,s0,a1
  10bfa8:	50a00001 	beqzl	a1,10bfb0 <_mktm_r+0x148>
  10bfac:	000001cd 	break	0x7
  10bfb0:	00001010 	mfhi	v0
  10bfb4:	54400008 	bnezl	v0,10bfd8 <_mktm_r+0x170>
  10bfb8:	24060001 	li	a2,1
  10bfbc:	0204001a 	div	zero,s0,a0
  10bfc0:	50800001 	beqzl	a0,10bfc8 <_mktm_r+0x160>
  10bfc4:	000001cd 	break	0x7
  10bfc8:	00001010 	mfhi	v0
  10bfcc:	14400003 	bnez	v0,10bfdc <_mktm_r+0x174>
  10bfd0:	00061080 	sll	v0,a2,0x2
  10bfd4:	24060001 	li	a2,1
  10bfd8:	00061080 	sll	v0,a2,0x2
  10bfdc:	00471021 	addu	v0,v0,a3
  10bfe0:	8c420000 	lw	v0,0(v0)
  10bfe4:	0222182a 	slt	v1,s1,v0
  10bfe8:	54600005 	bnezl	v1,10c000 <_mktm_r+0x198>
  10bfec:	24040030 	li	a0,48
  10bff0:	0222882f 	dsubu	s1,s1,v0
  10bff4:	1000ffe8 	b	10bf98 <_mktm_r+0x130>
  10bff8:	26100001 	addiu	s0,s0,1
  10bffc:	00000000 	nop
  10c000:	3c020011 	lui	v0,0x11
  10c004:	00c41818 	mult	v1,a2,a0
  10c008:	2442fcf8 	addiu	v0,v0,-776
  10c00c:	2605f894 	addiu	a1,s0,-1900
  10c010:	ae400010 	sw	zero,16(s2)
  10c014:	ae450014 	sw	a1,20(s2)
  10c018:	0062a021 	addu	s4,v1,v0
  10c01c:	0011183c 	dsll32	v1,s1,0x0
  10c020:	0003183f 	dsra32	v1,v1,0x0
  10c024:	ae43001c 	sw	v1,28(s2)
  10c028:	8e820000 	lw	v0,0(s4)
  10c02c:	0222102a 	slt	v0,s1,v0
  10c030:	1440000f 	bnez	v0,10c070 <_mktm_r+0x208>
  10c034:	66220001 	daddiu	v0,s1,1
  10c038:	8e430010 	lw	v1,16(s2)
  10c03c:	00031080 	sll	v0,v1,0x2
  10c040:	24630001 	addiu	v1,v1,1
  10c044:	00541021 	addu	v0,v0,s4
  10c048:	00032080 	sll	a0,v1,0x2
  10c04c:	8c450000 	lw	a1,0(v0)
  10c050:	00942021 	addu	a0,a0,s4
  10c054:	ae430010 	sw	v1,16(s2)
  10c058:	0225882f 	dsubu	s1,s1,a1
  10c05c:	8c820000 	lw	v0,0(a0)
  10c060:	0222102a 	slt	v0,s1,v0
  10c064:	5040fff5 	beqzl	v0,10c03c <_mktm_r+0x1d4>
  10c068:	8e430010 	lw	v1,16(s2)
  10c06c:	66220001 	daddiu	v0,s1,1
  10c070:	0002103c 	dsll32	v0,v0,0x0
  10c074:	0002103f 	dsra32	v0,v0,0x0
  10c078:	12c0000d 	beqz	s6,10c0b0 <_mktm_r+0x248>
  10c07c:	ae42000c 	sw	v0,12(s2)
  10c080:	ae400020 	sw	zero,32(s2)
  10c084:	0240102d 	move	v0,s2
  10c088:	dfbf0070 	ld	ra,112(sp)
  10c08c:	dfb60060 	ld	s6,96(sp)
  10c090:	dfb50050 	ld	s5,80(sp)
  10c094:	dfb40040 	ld	s4,64(sp)
  10c098:	dfb30030 	ld	s3,48(sp)
  10c09c:	dfb20020 	ld	s2,32(sp)
  10c0a0:	dfb10010 	ld	s1,16(sp)
  10c0a4:	dfb00000 	ld	s0,0(sp)
  10c0a8:	03e00008 	jr	ra
  10c0ac:	27bd0080 	addiu	sp,sp,128
  10c0b0:	0c043274 	jal	10c9d0 <__tz_lock>
  10c0b4:	00000000 	nop
  10c0b8:	3c020011 	lui	v0,0x11
  10c0bc:	8c432a28 	lw	v1,10792(v0)
  10c0c0:	50600015 	beqzl	v1,10c118 <_mktm_r+0x2b0>
  10c0c4:	ae400020 	sw	zero,32(s2)
  10c0c8:	8e620004 	lw	v0,4(s3)
  10c0cc:	52020006 	beql	s0,v0,10c0e8 <_mktm_r+0x280>
  10c0d0:	8e620000 	lw	v0,0(s3)
  10c0d4:	0c043110 	jal	10c440 <__tzcalc_limits>
  10c0d8:	0200202d 	move	a0,s0
  10c0dc:	104000ae 	beqz	v0,10c398 <_mktm_r+0x530>
  10c0e0:	2402ffff 	li	v0,-1
  10c0e4:	8e620000 	lw	v0,0(s3)
  10c0e8:	104000a5 	beqz	v0,10c380 <_mktm_r+0x518>
  10c0ec:	dea40000 	ld	a0,0(s5)
  10c0f0:	de620020 	ld	v0,32(s3)
  10c0f4:	0082102a 	slt	v0,a0,v0
  10c0f8:	14400006 	bnez	v0,10c114 <_mktm_r+0x2ac>
  10c0fc:	0000182d 	move	v1,zero
  10c100:	de620048 	ld	v0,72(s3)
  10c104:	0082102a 	slt	v0,a0,v0
  10c108:	50400003 	beqzl	v0,10c118 <_mktm_r+0x2b0>
  10c10c:	ae430020 	sw	v1,32(s2)
  10c110:	24030001 	li	v1,1
  10c114:	ae430020 	sw	v1,32(s2)
  10c118:	8e430020 	lw	v1,32(s2)
  10c11c:	24020001 	li	v0,1
  10c120:	50620002 	beql	v1,v0,10c12c <_mktm_r+0x2c4>
  10c124:	de730050 	ld	s3,80(s3)
  10c128:	de730028 	ld	s3,40(s3)
  10c12c:	0260202d 	move	a0,s3
  10c130:	0c0432b6 	jal	10cad8 <__divdi3>
  10c134:	24050e10 	li	a1,3600
  10c138:	0260202d 	move	a0,s3
  10c13c:	0002883c 	dsll32	s1,v0,0x0
  10c140:	0011883f 	dsra32	s1,s1,0x0
  10c144:	0c0434b4 	jal	10d2d0 <__moddi3>
  10c148:	24050e10 	li	a1,3600
  10c14c:	2405003c 	li	a1,60
  10c150:	0040982d 	move	s3,v0
  10c154:	0c0432b6 	jal	10cad8 <__divdi3>
  10c158:	0040202d 	move	a0,v0
  10c15c:	0260202d 	move	a0,s3
  10c160:	0002803c 	dsll32	s0,v0,0x0
  10c164:	0010803f 	dsra32	s0,s0,0x0
  10c168:	0c0434b4 	jal	10d2d0 <__moddi3>
  10c16c:	2405003c 	li	a1,60
  10c170:	8e450004 	lw	a1,4(s2)
  10c174:	8e440000 	lw	a0,0(s2)
  10c178:	0002103c 	dsll32	v0,v0,0x0
  10c17c:	0002103f 	dsra32	v0,v0,0x0
  10c180:	8e430008 	lw	v1,8(s2)
  10c184:	00b02823 	subu	a1,a1,s0
  10c188:	00822023 	subu	a0,a0,v0
  10c18c:	ae450004 	sw	a1,4(s2)
  10c190:	00711823 	subu	v1,v1,s1
  10c194:	2882003c 	slti	v0,a0,60
  10c198:	ae430008 	sw	v1,8(s2)
  10c19c:	14400073 	bnez	v0,10c36c <_mktm_r+0x504>
  10c1a0:	ae440000 	sw	a0,0(s2)
  10c1a4:	24a20001 	addiu	v0,a1,1
  10c1a8:	2483ffc4 	addiu	v1,a0,-60
  10c1ac:	ae420004 	sw	v0,4(s2)
  10c1b0:	ae430000 	sw	v1,0(s2)
  10c1b4:	8e430004 	lw	v1,4(s2)
  10c1b8:	2862003c 	slti	v0,v1,60
  10c1bc:	14400064 	bnez	v0,10c350 <_mktm_r+0x4e8>
  10c1c0:	00000000 	nop
  10c1c4:	8e420008 	lw	v0,8(s2)
  10c1c8:	2463ffc4 	addiu	v1,v1,-60
  10c1cc:	ae430004 	sw	v1,4(s2)
  10c1d0:	24420001 	addiu	v0,v0,1
  10c1d4:	ae420008 	sw	v0,8(s2)
  10c1d8:	8e450008 	lw	a1,8(s2)
  10c1dc:	28a20018 	slti	v0,a1,24
  10c1e0:	14400025 	bnez	v0,10c278 <_mktm_r+0x410>
  10c1e4:	00000000 	nop
  10c1e8:	8e420018 	lw	v0,24(s2)
  10c1ec:	8e43001c 	lw	v1,28(s2)
  10c1f0:	24420001 	addiu	v0,v0,1
  10c1f4:	24630001 	addiu	v1,v1,1
  10c1f8:	28440007 	slti	a0,v0,7
  10c1fc:	ae43001c 	sw	v1,28(s2)
  10c200:	14800002 	bnez	a0,10c20c <_mktm_r+0x3a4>
  10c204:	ae420018 	sw	v0,24(s2)
  10c208:	ae400018 	sw	zero,24(s2)
  10c20c:	8e42000c 	lw	v0,12(s2)
  10c210:	24a3ffe8 	addiu	v1,a1,-24
  10c214:	8e450010 	lw	a1,16(s2)
  10c218:	24440001 	addiu	a0,v0,1
  10c21c:	ae430008 	sw	v1,8(s2)
  10c220:	ae44000c 	sw	a0,12(s2)
  10c224:	00051080 	sll	v0,a1,0x2
  10c228:	00541021 	addu	v0,v0,s4
  10c22c:	8c420000 	lw	v0,0(v0)
  10c230:	0044182a 	slt	v1,v0,a0
  10c234:	10600006 	beqz	v1,10c250 <_mktm_r+0x3e8>
  10c238:	24a30001 	addiu	v1,a1,1
  10c23c:	00821023 	subu	v0,a0,v0
  10c240:	ae42000c 	sw	v0,12(s2)
  10c244:	2402000c 	li	v0,12
  10c248:	10620005 	beq	v1,v0,10c260 <_mktm_r+0x3f8>
  10c24c:	ae430010 	sw	v1,16(s2)
  10c250:	0c043276 	jal	10c9d8 <__tz_unlock>
  10c254:	00000000 	nop
  10c258:	1000ff8b 	b	10c088 <_mktm_r+0x220>
  10c25c:	0240102d 	move	v0,s2
  10c260:	8e420014 	lw	v0,20(s2)
  10c264:	ae400010 	sw	zero,16(s2)
  10c268:	24420001 	addiu	v0,v0,1
  10c26c:	ae40001c 	sw	zero,28(s2)
  10c270:	1000fff7 	b	10c250 <_mktm_r+0x3e8>
  10c274:	ae420014 	sw	v0,20(s2)
  10c278:	04a1fff5 	bgez	a1,10c250 <_mktm_r+0x3e8>
  10c27c:	00000000 	nop
  10c280:	8e42001c 	lw	v0,28(s2)
  10c284:	8e430018 	lw	v1,24(s2)
  10c288:	2442ffff 	addiu	v0,v0,-1
  10c28c:	2463ffff 	addiu	v1,v1,-1
  10c290:	ae42001c 	sw	v0,28(s2)
  10c294:	0460002b 	bltz	v1,10c344 <_mktm_r+0x4dc>
  10c298:	ae430018 	sw	v1,24(s2)
  10c29c:	8e42000c 	lw	v0,12(s2)
  10c2a0:	24a30018 	addiu	v1,a1,24
  10c2a4:	ae430008 	sw	v1,8(s2)
  10c2a8:	2442ffff 	addiu	v0,v0,-1
  10c2ac:	1440ffe8 	bnez	v0,10c250 <_mktm_r+0x3e8>
  10c2b0:	ae42000c 	sw	v0,12(s2)
  10c2b4:	8e420010 	lw	v0,16(s2)
  10c2b8:	2442ffff 	addiu	v0,v0,-1
  10c2bc:	04400007 	bltz	v0,10c2dc <_mktm_r+0x474>
  10c2c0:	ae420010 	sw	v0,16(s2)
  10c2c4:	8e420010 	lw	v0,16(s2)
  10c2c8:	00021080 	sll	v0,v0,0x2
  10c2cc:	00541021 	addu	v0,v0,s4
  10c2d0:	8c430000 	lw	v1,0(v0)
  10c2d4:	1000ffde 	b	10c250 <_mktm_r+0x3e8>
  10c2d8:	ae43000c 	sw	v1,12(s2)
  10c2dc:	8e420014 	lw	v0,20(s2)
  10c2e0:	2403000b 	li	v1,11
  10c2e4:	ae430010 	sw	v1,16(s2)
  10c2e8:	0000282d 	move	a1,zero
  10c2ec:	2444ffff 	addiu	a0,v0,-1
  10c2f0:	30830003 	andi	v1,a0,0x3
  10c2f4:	14600008 	bnez	v1,10c318 <_mktm_r+0x4b0>
  10c2f8:	ae440014 	sw	a0,20(s2)
  10c2fc:	24020064 	li	v0,100
  10c300:	0082001a 	div	zero,a0,v0
  10c304:	50400001 	beqzl	v0,10c30c <_mktm_r+0x4a4>
  10c308:	000001cd 	break	0x7
  10c30c:	00001810 	mfhi	v1
  10c310:	54600009 	bnezl	v1,10c338 <_mktm_r+0x4d0>
  10c314:	24050001 	li	a1,1
  10c318:	24020190 	li	v0,400
  10c31c:	0082001a 	div	zero,a0,v0
  10c320:	50400001 	beqzl	v0,10c328 <_mktm_r+0x4c0>
  10c324:	000001cd 	break	0x7
  10c328:	00001810 	mfhi	v1
  10c32c:	54600003 	bnezl	v1,10c33c <_mktm_r+0x4d4>
  10c330:	24a2016d 	addiu	v0,a1,365
  10c334:	24050001 	li	a1,1
  10c338:	24a2016d 	addiu	v0,a1,365
  10c33c:	1000ffe1 	b	10c2c4 <_mktm_r+0x45c>
  10c340:	ae42001c 	sw	v0,28(s2)
  10c344:	24020006 	li	v0,6
  10c348:	1000ffd4 	b	10c29c <_mktm_r+0x434>
  10c34c:	ae420018 	sw	v0,24(s2)
  10c350:	0463ffa2 	bgezl	v1,10c1dc <_mktm_r+0x374>
  10c354:	8e450008 	lw	a1,8(s2)
  10c358:	8e420008 	lw	v0,8(s2)
  10c35c:	2463003c 	addiu	v1,v1,60
  10c360:	ae430004 	sw	v1,4(s2)
  10c364:	1000ff9b 	b	10c1d4 <_mktm_r+0x36c>
  10c368:	2442ffff 	addiu	v0,v0,-1
  10c36c:	0483ff92 	bgezl	a0,10c1b8 <_mktm_r+0x350>
  10c370:	8e430004 	lw	v1,4(s2)
  10c374:	24a2ffff 	addiu	v0,a1,-1
  10c378:	1000ff8c 	b	10c1ac <_mktm_r+0x344>
  10c37c:	2483003c 	addiu	v1,a0,60
  10c380:	de620020 	ld	v0,32(s3)
  10c384:	0082102a 	slt	v0,a0,v0
  10c388:	1040ff61 	beqz	v0,10c110 <_mktm_r+0x2a8>
  10c38c:	0000182d 	move	v1,zero
  10c390:	1000ff5c 	b	10c104 <_mktm_r+0x29c>
  10c394:	de620048 	ld	v0,72(s3)
  10c398:	1000ff5f 	b	10c118 <_mktm_r+0x2b0>
  10c39c:	ae420020 	sw	v0,32(s2)
  10c3a0:	3c020011 	lui	v0,0x11
  10c3a4:	24050064 	li	a1,100
  10c3a8:	2447fd58 	addiu	a3,v0,-680
  10c3ac:	24040190 	li	a0,400
  10c3b0:	2610ffff 	addiu	s0,s0,-1
  10c3b4:	32020003 	andi	v0,s0,0x3
  10c3b8:	14400007 	bnez	v0,10c3d8 <_mktm_r+0x570>
  10c3bc:	0000302d 	move	a2,zero
  10c3c0:	0205001a 	div	zero,s0,a1
  10c3c4:	50a00001 	beqzl	a1,10c3cc <_mktm_r+0x564>
  10c3c8:	000001cd 	break	0x7
  10c3cc:	00001010 	mfhi	v0
  10c3d0:	54400008 	bnezl	v0,10c3f4 <_mktm_r+0x58c>
  10c3d4:	24060001 	li	a2,1
  10c3d8:	0204001a 	div	zero,s0,a0
  10c3dc:	50800001 	beqzl	a0,10c3e4 <_mktm_r+0x57c>
  10c3e0:	000001cd 	break	0x7
  10c3e4:	00001010 	mfhi	v0
  10c3e8:	14400003 	bnez	v0,10c3f8 <_mktm_r+0x590>
  10c3ec:	00061080 	sll	v0,a2,0x2
  10c3f0:	24060001 	li	a2,1
  10c3f4:	00061080 	sll	v0,a2,0x2
  10c3f8:	00471021 	addu	v0,v0,a3
  10c3fc:	8c430000 	lw	v1,0(v0)
  10c400:	0223882d 	daddu	s1,s1,v1
  10c404:	0622ffeb 	bltzl	s1,10c3b4 <_mktm_r+0x54c>
  10c408:	2610ffff 	addiu	s0,s0,-1
  10c40c:	1000fefc 	b	10c000 <_mktm_r+0x198>
  10c410:	24040030 	li	a0,48
  10c414:	24420007 	addiu	v0,v0,7
  10c418:	1000fed9 	b	10bf80 <_mktm_r+0x118>
  10c41c:	ae420018 	sw	v0,24(s2)
  10c420:	3c020001 	lui	v0,0x1
  10c424:	34425180 	ori	v0,v0,0x5180
  10c428:	0202802d 	daddu	s0,s0,v0
  10c42c:	6631ffff 	daddiu	s1,s1,-1
  10c430:	0600fffd 	bltz	s0,10c428 <_mktm_r+0x5c0>
  10c434:	00000000 	nop
  10c438:	1000fea5 	b	10bed0 <_mktm_r+0x68>
  10c43c:	00000000 	nop

0010c440 <__tzcalc_limits>:
  10c440:	27bdff60 	addiu	sp,sp,-160
  10c444:	ffb00000 	sd	s0,0(sp)
  10c448:	0080802d 	move	s0,a0
  10c44c:	ffbf0090 	sd	ra,144(sp)
  10c450:	ffbe0080 	sd	s8,128(sp)
  10c454:	ffb70070 	sd	s7,112(sp)
  10c458:	ffb60060 	sd	s6,96(sp)
  10c45c:	ffb50050 	sd	s5,80(sp)
  10c460:	ffb40040 	sd	s4,64(sp)
  10c464:	ffb30030 	sd	s3,48(sp)
  10c468:	ffb20020 	sd	s2,32(sp)
  10c46c:	0c043294 	jal	10ca50 <__gettzinfo>
  10c470:	ffb10010 	sd	s1,16(sp)
  10c474:	0040602d 	move	t4,v0
  10c478:	2a0207b2 	slti	v0,s0,1970
  10c47c:	1440007d 	bnez	v0,10c674 <__tzcalc_limits+0x234>
  10c480:	0000202d 	move	a0,zero
  10c484:	24050064 	li	a1,100
  10c488:	2609f893 	addiu	t1,s0,-1901
  10c48c:	0125001a 	div	zero,t1,a1
  10c490:	24040190 	li	a0,400
  10c494:	2608f9bf 	addiu	t0,s0,-1601
  10c498:	2607f84f 	addiu	a3,s0,-1969
  10c49c:	2603f852 	addiu	v1,s0,-1966
  10c4a0:	28e20000 	slti	v0,a3,0
  10c4a4:	0062380b 	movn	a3,v1,v0
  10c4a8:	2606f84e 	addiu	a2,s0,-1970
  10c4ac:	3c020011 	lui	v0,0x11
  10c4b0:	00073883 	sra	a3,a3,0x2
  10c4b4:	245efcf8 	addiu	s8,v0,-776
  10c4b8:	32110003 	andi	s1,s0,0x3
  10c4bc:	2402016d 	li	v0,365
  10c4c0:	3c0f0001 	lui	t7,0x1
  10c4c4:	ad900004 	sw	s0,4(t4)
  10c4c8:	0000682d 	move	t5,zero
  10c4cc:	50a00001 	beqzl	a1,10c4d4 <__tzcalc_limits+0x94>
  10c4d0:	000001cd 	break	0x7
  10c4d4:	2415004a 	li	s5,74
  10c4d8:	24140064 	li	s4,100
  10c4dc:	24120190 	li	s2,400
  10c4e0:	24190064 	li	t9,100
  10c4e4:	24180190 	li	t8,400
  10c4e8:	240e0007 	li	t6,7
  10c4ec:	0180582d 	move	t3,t4
  10c4f0:	24160044 	li	s6,68
  10c4f4:	0220982d 	move	s3,s1
  10c4f8:	24170030 	li	s7,48
  10c4fc:	35ef5180 	ori	t7,t7,0x5180
  10c500:	0180502d 	move	t2,t4
  10c504:	00004812 	mflo	t1
  10c508:	0104001a 	div	zero,t0,a0
  10c50c:	00004012 	mflo	t0
  10c510:	00c21818 	mult	v1,a2,v0
  10c514:	00673021 	addu	a2,v1,a3
  10c518:	00c93023 	subu	a2,a2,t1
  10c51c:	00c84821 	addu	t1,a2,t0
  10c520:	81620008 	lb	v0,8(t3)
  10c524:	50550062 	beql	v0,s5,10c6b0 <__tzcalc_limits+0x270>
  10c528:	8d620014 	lw	v0,20(t3)
  10c52c:	5056005e 	beql	v0,s6,10c6a8 <__tzcalc_limits+0x268>
  10c530:	8d620014 	lw	v0,20(t3)
  10c534:	16600007 	bnez	s3,10c554 <__tzcalc_limits+0x114>
  10c538:	0000282d 	move	a1,zero
  10c53c:	0219001a 	div	zero,s0,t9
  10c540:	53200001 	beqzl	t9,10c548 <__tzcalc_limits+0x108>
  10c544:	000001cd 	break	0x7
  10c548:	00001010 	mfhi	v0
  10c54c:	54400008 	bnezl	v0,10c570 <__tzcalc_limits+0x130>
  10c550:	24050001 	li	a1,1
  10c554:	0218001a 	div	zero,s0,t8
  10c558:	53000001 	beqzl	t8,10c560 <__tzcalc_limits+0x120>
  10c55c:	000001cd 	break	0x7
  10c560:	00001010 	mfhi	v0
  10c564:	14400003 	bnez	v0,10c574 <__tzcalc_limits+0x134>
  10c568:	00b71018 	mult	v0,a1,s7
  10c56c:	24050001 	li	a1,1
  10c570:	00b71018 	mult	v0,a1,s7
  10c574:	8d43000c 	lw	v1,12(t2)
  10c578:	24040001 	li	a0,1
  10c57c:	005e4021 	addu	t0,v0,s8
  10c580:	0083102a 	slt	v0,a0,v1
  10c584:	1040000b 	beqz	v0,10c5b4 <__tzcalc_limits+0x174>
  10c588:	0120382d 	move	a3,t1
  10c58c:	0060282d 	move	a1,v1
  10c590:	0100182d 	move	v1,t0
  10c594:	24a4ffff 	addiu	a0,a1,-1
  10c598:	8c620000 	lw	v0,0(v1)
  10c59c:	2484ffff 	addiu	a0,a0,-1
  10c5a0:	24630004 	addiu	v1,v1,4
  10c5a4:	00e23821 	addu	a3,a3,v0
  10c5a8:	1480fffb 	bnez	a0,10c598 <__tzcalc_limits+0x158>
  10c5ac:	00000000 	nop
  10c5b0:	00a0202d 	move	a0,a1
  10c5b4:	24e20004 	addiu	v0,a3,4
  10c5b8:	51c00001 	beqzl	t6,10c5c0 <__tzcalc_limits+0x180>
  10c5bc:	000001cd 	break	0x7
  10c5c0:	004e001a 	div	zero,v0,t6
  10c5c4:	8d450010 	lw	a1,16(t2)
  10c5c8:	8d430014 	lw	v1,20(t2)
  10c5cc:	00041080 	sll	v0,a0,0x2
  10c5d0:	01021021 	addu	v0,t0,v0
  10c5d4:	000520c0 	sll	a0,a1,0x3
  10c5d8:	8c48fffc 	lw	t0,-4(v0)
  10c5dc:	00852023 	subu	a0,a0,a1
  10c5e0:	00003010 	mfhi	a2
  10c5e4:	00661823 	subu	v1,v1,a2
  10c5e8:	28620000 	slti	v0,v1,0
  10c5ec:	24650007 	addiu	a1,v1,7
  10c5f0:	00a2180b 	movn	v1,a1,v0
  10c5f4:	00832021 	addu	a0,a0,v1
  10c5f8:	2484fff9 	addiu	a0,a0,-7
  10c5fc:	0088102a 	slt	v0,a0,t0
  10c600:	54400006 	bnezl	v0,10c61c <__tzcalc_limits+0x1dc>
  10c604:	00e43821 	addu	a3,a3,a0
  10c608:	2484fff9 	addiu	a0,a0,-7
  10c60c:	0088102a 	slt	v0,a0,t0
  10c610:	1040fffd 	beqz	v0,10c608 <__tzcalc_limits+0x1c8>
  10c614:	00000000 	nop
  10c618:	00e43821 	addu	a3,a3,a0
  10c61c:	00ef0018 	mult	a3,t7
  10c620:	dd440028 	ld	a0,40(t2)
  10c624:	25ad0001 	addiu	t5,t5,1
  10c628:	256b0028 	addiu	t3,t3,40
  10c62c:	29a50002 	slti	a1,t5,2
  10c630:	00001812 	mflo	v1
  10c634:	00001010 	mfhi	v0
  10c638:	0003183c 	dsll32	v1,v1,0x0
  10c63c:	0002103c 	dsll32	v0,v0,0x0
  10c640:	0003183e 	dsrl32	v1,v1,0x0
  10c644:	00431025 	or	v0,v0,v1
  10c648:	8d430018 	lw	v1,24(t2)
  10c64c:	0043102d 	daddu	v0,v0,v1
  10c650:	0044102d 	daddu	v0,v0,a0
  10c654:	fd420020 	sd	v0,32(t2)
  10c658:	14a0ffb1 	bnez	a1,10c520 <__tzcalc_limits+0xe0>
  10c65c:	254a0028 	addiu	t2,t2,40
  10c660:	dd820020 	ld	v0,32(t4)
  10c664:	24040001 	li	a0,1
  10c668:	dd830048 	ld	v1,72(t4)
  10c66c:	0043102a 	slt	v0,v0,v1
  10c670:	ad820000 	sw	v0,0(t4)
  10c674:	dfbf0090 	ld	ra,144(sp)
  10c678:	0080102d 	move	v0,a0
  10c67c:	dfbe0080 	ld	s8,128(sp)
  10c680:	dfb70070 	ld	s7,112(sp)
  10c684:	dfb60060 	ld	s6,96(sp)
  10c688:	dfb50050 	ld	s5,80(sp)
  10c68c:	dfb40040 	ld	s4,64(sp)
  10c690:	dfb30030 	ld	s3,48(sp)
  10c694:	dfb20020 	ld	s2,32(sp)
  10c698:	dfb10010 	ld	s1,16(sp)
  10c69c:	dfb00000 	ld	s0,0(sp)
  10c6a0:	03e00008 	jr	ra
  10c6a4:	27bd00a0 	addiu	sp,sp,160
  10c6a8:	1000ffdc 	b	10c61c <__tzcalc_limits+0x1dc>
  10c6ac:	01223821 	addu	a3,t1,v0
  10c6b0:	0000202d 	move	a0,zero
  10c6b4:	16200007 	bnez	s1,10c6d4 <__tzcalc_limits+0x294>
  10c6b8:	01221821 	addu	v1,t1,v0
  10c6bc:	0214001a 	div	zero,s0,s4
  10c6c0:	52800001 	beqzl	s4,10c6c8 <__tzcalc_limits+0x288>
  10c6c4:	000001cd 	break	0x7
  10c6c8:	00001010 	mfhi	v0
  10c6cc:	54400008 	bnezl	v0,10c6f0 <__tzcalc_limits+0x2b0>
  10c6d0:	8d420014 	lw	v0,20(t2)
  10c6d4:	0212001a 	div	zero,s0,s2
  10c6d8:	52400001 	beqzl	s2,10c6e0 <__tzcalc_limits+0x2a0>
  10c6dc:	000001cd 	break	0x7
  10c6e0:	00001010 	mfhi	v0
  10c6e4:	5440ffcd 	bnezl	v0,10c61c <__tzcalc_limits+0x1dc>
  10c6e8:	00643821 	addu	a3,v1,a0
  10c6ec:	8d420014 	lw	v0,20(t2)
  10c6f0:	2842003c 	slti	v0,v0,60
  10c6f4:	2c440001 	sltiu	a0,v0,1
  10c6f8:	1000ffc8 	b	10c61c <__tzcalc_limits+0x1dc>
  10c6fc:	00643821 	addu	a3,v1,a0

0010c700 <_puts_r>:
  10c700:	27bdffb0 	addiu	sp,sp,-80
  10c704:	ffb00020 	sd	s0,32(sp)
  10c708:	0080802d 	move	s0,a0
  10c70c:	00a0202d 	move	a0,a1
  10c710:	ffbf0040 	sd	ra,64(sp)
  10c714:	ffb10030 	sd	s1,48(sp)
  10c718:	0c041ebd 	jal	107af4 <strlen>
  10c71c:	00a0882d 	move	s1,a1
  10c720:	24060001 	li	a2,1
  10c724:	3c030011 	lui	v1,0x11
  10c728:	8e040008 	lw	a0,8(s0)
  10c72c:	2463fd60 	addiu	v1,v1,-672
  10c730:	24470001 	addiu	a3,v0,1
  10c734:	afa30018 	sw	v1,24(sp)
  10c738:	03a0282d 	move	a1,sp
  10c73c:	27a30010 	addiu	v1,sp,16
  10c740:	afa6001c 	sw	a2,28(sp)
  10c744:	24060002 	li	a2,2
  10c748:	afb10010 	sw	s1,16(sp)
  10c74c:	afa30000 	sw	v1,0(sp)
  10c750:	afa70008 	sw	a3,8(sp)
  10c754:	afa60004 	sw	a2,4(sp)
  10c758:	0c041306 	jal	104c18 <__sfvwrite>
  10c75c:	afa20014 	sw	v0,20(sp)
  10c760:	0040202d 	move	a0,v0
  10c764:	2403000a 	li	v1,10
  10c768:	2402ffff 	li	v0,-1
  10c76c:	dfbf0040 	ld	ra,64(sp)
  10c770:	dfb10030 	ld	s1,48(sp)
  10c774:	0064100a 	movz	v0,v1,a0
  10c778:	dfb00020 	ld	s0,32(sp)
  10c77c:	03e00008 	jr	ra
  10c780:	27bd0050 	addiu	sp,sp,80
  10c784:	00000000 	nop

0010c788 <puts>:
  10c788:	27bdfff0 	addiu	sp,sp,-16
  10c78c:	3c020011 	lui	v0,0x11
  10c790:	ffbf0000 	sd	ra,0(sp)
  10c794:	0080282d 	move	a1,a0
  10c798:	0c0431c0 	jal	10c700 <_puts_r>
  10c79c:	8c440c80 	lw	a0,3200(v0)
  10c7a0:	dfbf0000 	ld	ra,0(sp)
  10c7a4:	03e00008 	jr	ra
  10c7a8:	27bd0010 	addiu	sp,sp,16
  10c7ac:	00000000 	nop

0010c7b0 <srand>:
  10c7b0:	3c020011 	lui	v0,0x11
  10c7b4:	0004203c 	dsll32	a0,a0,0x0
  10c7b8:	8c430c80 	lw	v1,3200(v0)
  10c7bc:	0004203e 	dsrl32	a0,a0,0x0
  10c7c0:	03e00008 	jr	ra
  10c7c4:	fc6400a8 	sd	a0,168(v1)

0010c7c8 <rand>:
  10c7c8:	27bdffe0 	addiu	sp,sp,-32
  10c7cc:	3c020011 	lui	v0,0x11
  10c7d0:	ffbf0010 	sd	ra,16(sp)
  10c7d4:	3c055851 	lui	a1,0x5851
  10c7d8:	34a5f42d 	ori	a1,a1,0xf42d
  10c7dc:	00052c38 	dsll	a1,a1,0x10
  10c7e0:	34a54c95 	ori	a1,a1,0x4c95
  10c7e4:	00052c38 	dsll	a1,a1,0x10
  10c7e8:	34a57f2d 	ori	a1,a1,0x7f2d
  10c7ec:	ffb00000 	sd	s0,0(sp)
  10c7f0:	8c500c80 	lw	s0,3200(v0)
  10c7f4:	0c043298 	jal	10ca60 <__muldi3>
  10c7f8:	de0400a8 	ld	a0,168(s0)
  10c7fc:	dfbf0010 	ld	ra,16(sp)
  10c800:	64420001 	daddiu	v0,v0,1
  10c804:	fe0200a8 	sd	v0,168(s0)
  10c808:	0002183e 	dsrl32	v1,v0,0x0
  10c80c:	3c027fff 	lui	v0,0x7fff
  10c810:	3442ffff 	ori	v0,v0,0xffff
  10c814:	dfb00000 	ld	s0,0(sp)
  10c818:	00621824 	and	v1,v1,v0
  10c81c:	0003183c 	dsll32	v1,v1,0x0
  10c820:	0003183f 	dsra32	v1,v1,0x0
  10c824:	0060102d 	move	v0,v1
  10c828:	03e00008 	jr	ra
  10c82c:	27bd0020 	addiu	sp,sp,32

0010c830 <strcpy>:
  10c830:	0080382d 	move	a3,a0
  10c834:	00a74025 	or	t0,a1,a3
  10c838:	31020007 	andi	v0,t0,0x7
  10c83c:	14400038 	bnez	v0,10c920 <strcpy+0xf0>
  10c840:	00e0182d 	move	v1,a3
  10c844:	3102000f 	andi	v0,t0,0xf
  10c848:	3c090101 	lui	t1,0x101
  10c84c:	35290101 	ori	t1,t1,0x101
  10c850:	00094c38 	dsll	t1,t1,0x10
  10c854:	35290101 	ori	t1,t1,0x101
  10c858:	00094c38 	dsll	t1,t1,0x10
  10c85c:	35290101 	ori	t1,t1,0x101
  10c860:	3c048080 	lui	a0,0x8080
  10c864:	34848080 	ori	a0,a0,0x8080
  10c868:	00042438 	dsll	a0,a0,0x10
  10c86c:	34848080 	ori	a0,a0,0x8080
  10c870:	00042438 	dsll	a0,a0,0x10
  10c874:	34848080 	ori	a0,a0,0x8080
  10c878:	54400019 	bnezl	v0,10c8e0 <strcpy+0xb0>
  10c87c:	dcaa0000 	ld	t2,0(a1)
  10c880:	71295389 	pcpyld	t2,t1,t1
  10c884:	78a90000 	lq	t1,0(a1)
  10c888:	70844389 	pcpyld	t0,a0,a0
  10c88c:	712a1248 	psubb	v0,t1,t2
  10c890:	70091ce9 	pnor	v1,zero,t1
  10c894:	70431489 	pand	v0,v0,v1
  10c898:	70481489 	pand	v0,v0,t0
  10c89c:	704923a9 	pcpyud	a0,v0,t1
  10c8a0:	00441825 	or	v1,v0,a0
  10c8a4:	1460001d 	bnez	v1,10c91c <strcpy+0xec>
  10c8a8:	00e0302d 	move	a2,a3
  10c8ac:	7cc90000 	sq	t1,0(a2)
  10c8b0:	24a50010 	addiu	a1,a1,16
  10c8b4:	78a90000 	lq	t1,0(a1)
  10c8b8:	712a1248 	psubb	v0,t1,t2
  10c8bc:	70091ce9 	pnor	v1,zero,t1
  10c8c0:	70431489 	pand	v0,v0,v1
  10c8c4:	70481489 	pand	v0,v0,t0
  10c8c8:	704923a9 	pcpyud	a0,v0,t1
  10c8cc:	00441825 	or	v1,v0,a0
  10c8d0:	1060fff6 	beqz	v1,10c8ac <strcpy+0x7c>
  10c8d4:	24c60010 	addiu	a2,a2,16
  10c8d8:	10000011 	b	10c920 <strcpy+0xf0>
  10c8dc:	00c0182d 	move	v1,a2
  10c8e0:	0149102f 	dsubu	v0,t2,t1
  10c8e4:	000a1827 	nor	v1,zero,t2
  10c8e8:	00431024 	and	v0,v0,v1
  10c8ec:	00441024 	and	v0,v0,a0
  10c8f0:	1440000a 	bnez	v0,10c91c <strcpy+0xec>
  10c8f4:	00e0302d 	move	a2,a3
  10c8f8:	fcca0000 	sd	t2,0(a2)
  10c8fc:	24a50008 	addiu	a1,a1,8
  10c900:	dcaa0000 	ld	t2,0(a1)
  10c904:	000a1027 	nor	v0,zero,t2
  10c908:	0149182f 	dsubu	v1,t2,t1
  10c90c:	00621824 	and	v1,v1,v0
  10c910:	00641824 	and	v1,v1,a0
  10c914:	1060fff8 	beqz	v1,10c8f8 <strcpy+0xc8>
  10c918:	24c60008 	addiu	a2,a2,8
  10c91c:	00c0182d 	move	v1,a2
  10c920:	90a20000 	lbu	v0,0(a1)
  10c924:	24a50001 	addiu	a1,a1,1
  10c928:	a0620000 	sb	v0,0(v1)
  10c92c:	00021600 	sll	v0,v0,0x18
  10c930:	00000000 	nop
  10c934:	1440fffa 	bnez	v0,10c920 <strcpy+0xf0>
  10c938:	24630001 	addiu	v1,v1,1
  10c93c:	03e00008 	jr	ra
  10c940:	00e0102d 	move	v0,a3
  10c944:	00000000 	nop

0010c948 <close>:
  10c948:	27bdfff0 	addiu	sp,sp,-16
  10c94c:	ffbf0000 	sd	ra,0(sp)
  10c950:	0c04217e 	jal	1085f8 <_close>
  10c954:	00000000 	nop
  10c958:	dfbf0000 	ld	ra,0(sp)
  10c95c:	03e00008 	jr	ra
  10c960:	27bd0010 	addiu	sp,sp,16
  10c964:	00000000 	nop

0010c968 <open>:
  10c968:	27bdffa0 	addiu	sp,sp,-96
  10c96c:	ffa60030 	sd	a2,48(sp)
  10c970:	ffbf0000 	sd	ra,0(sp)
  10c974:	8fa60030 	lw	a2,48(sp)
  10c978:	ffa70038 	sd	a3,56(sp)
  10c97c:	ffa80040 	sd	t0,64(sp)
  10c980:	ffa90048 	sd	t1,72(sp)
  10c984:	ffaa0050 	sd	t2,80(sp)
  10c988:	ffab0058 	sd	t3,88(sp)
  10c98c:	e7ac0020 	swc1	$f12,32(sp)
  10c990:	e7ae0024 	swc1	$f14,36(sp)
  10c994:	e7b00028 	swc1	$f16,40(sp)
  10c998:	0c042150 	jal	108540 <_open>
  10c99c:	e7b2002c 	swc1	$f18,44(sp)
  10c9a0:	dfbf0000 	ld	ra,0(sp)
  10c9a4:	03e00008 	jr	ra
  10c9a8:	27bd0060 	addiu	sp,sp,96
  10c9ac:	00000000 	nop

0010c9b0 <read>:
  10c9b0:	27bdfff0 	addiu	sp,sp,-16
  10c9b4:	ffbf0000 	sd	ra,0(sp)
  10c9b8:	0c042188 	jal	108620 <_read>
  10c9bc:	00000000 	nop
  10c9c0:	dfbf0000 	ld	ra,0(sp)
  10c9c4:	03e00008 	jr	ra
  10c9c8:	27bd0010 	addiu	sp,sp,16
  10c9cc:	00000000 	nop

0010c9d0 <__tz_lock>:
  10c9d0:	03e00008 	jr	ra
  10c9d4:	00000000 	nop

0010c9d8 <__tz_unlock>:
  10c9d8:	03e00008 	jr	ra
  10c9dc:	00000000 	nop

0010c9e0 <div>:
  10c9e0:	0085001a 	div	zero,a0,a1
  10c9e4:	27bdfff0 	addiu	sp,sp,-16
  10c9e8:	50a00001 	beqzl	a1,10c9f0 <div+0x10>
  10c9ec:	000001cd 	break	0x7
  10c9f0:	00001010 	mfhi	v0
  10c9f4:	00001812 	mflo	v1
  10c9f8:	afa30000 	sw	v1,0(sp)
  10c9fc:	0480000e 	bltz	a0,10ca38 <div+0x58>
  10ca00:	afa20004 	sw	v0,4(sp)
  10ca04:	00452823 	subu	a1,v0,a1
  10ca08:	04400007 	bltz	v0,10ca28 <div+0x48>
  10ca0c:	24640001 	addiu	a0,v1,1
  10ca10:	9fa30004 	lwu	v1,4(sp)
  10ca14:	9fa20000 	lwu	v0,0(sp)
  10ca18:	0003183c 	dsll32	v1,v1,0x0
  10ca1c:	00431025 	or	v0,v0,v1
  10ca20:	03e00008 	jr	ra
  10ca24:	27bd0010 	addiu	sp,sp,16
  10ca28:	afa40000 	sw	a0,0(sp)
  10ca2c:	1000fff8 	b	10ca10 <div+0x30>
  10ca30:	afa50004 	sw	a1,4(sp)
  10ca34:	00000000 	nop
  10ca38:	00452821 	addu	a1,v0,a1
  10ca3c:	1c40fffa 	bgtz	v0,10ca28 <div+0x48>
  10ca40:	2464ffff 	addiu	a0,v1,-1
  10ca44:	1000fff3 	b	10ca14 <div+0x34>
  10ca48:	9fa30004 	lwu	v1,4(sp)
  10ca4c:	00000000 	nop

0010ca50 <__gettzinfo>:
  10ca50:	3c020011 	lui	v0,0x11
  10ca54:	03e00008 	jr	ra
  10ca58:	24422a38 	addiu	v0,v0,10808
  10ca5c:	00000000 	nop

0010ca60 <__muldi3>:
  10ca60:	0005103c 	dsll32	v0,a1,0x0
  10ca64:	0002103f 	dsra32	v0,v0,0x0

0010ca68 <$LBE3>:
  10ca68:	0004303f 	dsra32	a2,a0,0x0
  10ca6c:	00c23018 	mult	a2,a2,v0

0010ca70 <$LBB4>:
  10ca70:	0004203c 	dsll32	a0,a0,0x0
  10ca74:	0004203f 	dsra32	a0,a0,0x0
  10ca78:	00820019 	multu	a0,v0
  10ca7c:	2403ffff 	li	v1,-1
  10ca80:	0003183c 	dsll32	v1,v1,0x0
  10ca84:	00001012 	mflo	v0

0010ca88 <$LBE4>:
  10ca88:	0005283f 	dsra32	a1,a1,0x0

0010ca8c <$LBB5>:
  10ca8c:	0002103c 	dsll32	v0,v0,0x0
  10ca90:	00003810 	mfhi	a3
  10ca94:	01034024 	and	t0,t0,v1
  10ca98:	0002103e 	dsrl32	v0,v0,0x0

0010ca9c <$LBE5>:
  10ca9c:	00851818 	mult	v1,a0,a1

0010caa0 <$LBB6>:
  10caa0:	01024025 	or	t0,t0,v0
  10caa4:	3c02ffff 	lui	v0,0xffff
  10caa8:	0002103e 	dsrl32	v0,v0,0x0
  10caac:	0007383c 	dsll32	a3,a3,0x0
  10cab0:	01024024 	and	t0,t0,v0
  10cab4:	01074025 	or	t0,t0,a3

0010cab8 <$LBE6>:
  10cab8:	00662021 	addu	a0,v1,a2
  10cabc:	01021024 	and	v0,t0,v0
  10cac0:	0008183f 	dsra32	v1,t0,0x0
  10cac4:	00641821 	addu	v1,v1,a0
  10cac8:	0003183c 	dsll32	v1,v1,0x0

0010cacc <$LM10>:
  10cacc:	03e00008 	jr	ra
  10cad0:	00431025 	or	v0,v0,v1

0010cad4 <$LFE1>:
  10cad4:	00000000 	nop

0010cad8 <__divdi3>:
  10cad8:	2402ffff 	li	v0,-1
  10cadc:	0002103c 	dsll32	v0,v0,0x0
  10cae0:	2403ffff 	li	v1,-1
  10cae4:	0003183c 	dsll32	v1,v1,0x0
  10cae8:	01024024 	and	t0,t0,v0
  10caec:	01234824 	and	t1,t1,v1

0010caf0 <$LM2>:
  10caf0:	0004103c 	dsll32	v0,a0,0x0
  10caf4:	0002103f 	dsra32	v0,v0,0x0

0010caf8 <$LM3>:
  10caf8:	0004383f 	dsra32	a3,a0,0x0

0010cafc <$LM4>:
  10cafc:	00021023 	negu	v0,v0
  10cb00:	0080502d 	move	t2,a0

0010cb04 <$LM5>:
  10cb04:	0002103c 	dsll32	v0,v0,0x0

0010cb08 <$LM6>:
  10cb08:	00072023 	negu	a0,a3
  10cb0c:	0002103e 	dsrl32	v0,v0,0x0

0010cb10 <$LM7>:
  10cb10:	0005583f 	dsra32	t3,a1,0x0

0010cb14 <$LM8>:
  10cb14:	01024025 	or	t0,t0,v0

0010cb18 <$LM9>:
  10cb18:	27bdffd0 	addiu	sp,sp,-48

0010cb1c <$LM10>:
  10cb1c:	0005103c 	dsll32	v0,a1,0x0
  10cb20:	0002103f 	dsra32	v0,v0,0x0
  10cb24:	0008183c 	dsll32	v1,t0,0x0
  10cb28:	0003183f 	dsra32	v1,v1,0x0
  10cb2c:	00021023 	negu	v0,v0
  10cb30:	0003182b 	sltu	v1,zero,v1
  10cb34:	0002103c 	dsll32	v0,v0,0x0
  10cb38:	00832023 	subu	a0,a0,v1
  10cb3c:	0002103e 	dsrl32	v0,v0,0x0
  10cb40:	0004603c 	dsll32	t4,a0,0x0
  10cb44:	01224825 	or	t1,t1,v0
  10cb48:	000b2023 	negu	a0,t3
  10cb4c:	0009103c 	dsll32	v0,t1,0x0
  10cb50:	0002103f 	dsra32	v0,v0,0x0
  10cb54:	3c03ffff 	lui	v1,0xffff
  10cb58:	0003183e 	dsrl32	v1,v1,0x0
  10cb5c:	0002102b 	sltu	v0,zero,v0

0010cb60 <$LM11>:
  10cb60:	ffb00000 	sd	s0,0(sp)

0010cb64 <$LM12>:
  10cb64:	00822023 	subu	a0,a0,v0

0010cb68 <$LM13>:
  10cb68:	ffbf0020 	sd	ra,32(sp)
  10cb6c:	ffb10010 	sd	s1,16(sp)
  10cb70:	0000302d 	move	a2,zero

0010cb74 <$LBB47>:
  10cb74:	01034024 	and	t0,t0,v1

0010cb78 <$LBB49>:
  10cb78:	01234824 	and	t1,t1,v1
  10cb7c:	0004103c 	dsll32	v0,a0,0x0

0010cb80 <$LBE49>:
  10cb80:	04e00025 	bltz	a3,10cc18 <$L106>
  10cb84:	0000802d 	move	s0,zero

0010cb88 <$L100>:
  10cb88:	0560001f 	bltz	t3,10cc08 <$L107>
  10cb8c:	0140202d 	move	a0,t2

0010cb90 <$L102>:
  10cb90:	0c04330a 	jal	10cc28 <__udivmoddi4>
  10cb94:	00000000 	nop

0010cb98 <$LM19>:
  10cb98:	12000015 	beqz	s0,10cbf0 <$L104>
  10cb9c:	0040202d 	move	a0,v0

0010cba0 <$LBB51>:
  10cba0:	0002103c 	dsll32	v0,v0,0x0
  10cba4:	0002103f 	dsra32	v0,v0,0x0
  10cba8:	2403ffff 	li	v1,-1
  10cbac:	0003183c 	dsll32	v1,v1,0x0
  10cbb0:	00021023 	negu	v0,v0
  10cbb4:	02238824 	and	s1,s1,v1
  10cbb8:	0002103c 	dsll32	v0,v0,0x0

0010cbbc <$LM21>:
  10cbbc:	0004203f 	dsra32	a0,a0,0x0

0010cbc0 <$LM22>:
  10cbc0:	0002103e 	dsrl32	v0,v0,0x0

0010cbc4 <$LM23>:
  10cbc4:	00042023 	negu	a0,a0

0010cbc8 <$LM24>:
  10cbc8:	02228825 	or	s1,s1,v0

0010cbcc <$LM25>:
  10cbcc:	3c02ffff 	lui	v0,0xffff
  10cbd0:	0002103e 	dsrl32	v0,v0,0x0
  10cbd4:	0011183c 	dsll32	v1,s1,0x0
  10cbd8:	0003183f 	dsra32	v1,v1,0x0
  10cbdc:	02228824 	and	s1,s1,v0
  10cbe0:	0003182b 	sltu	v1,zero,v1
  10cbe4:	00832023 	subu	a0,a0,v1
  10cbe8:	0004203c 	dsll32	a0,a0,0x0
  10cbec:	02242025 	or	a0,s1,a0

0010cbf0 <$L104>:
  10cbf0:	dfbf0020 	ld	ra,32(sp)
  10cbf4:	0080102d 	move	v0,a0
  10cbf8:	dfb10010 	ld	s1,16(sp)
  10cbfc:	dfb00000 	ld	s0,0(sp)
  10cc00:	03e00008 	jr	ra
  10cc04:	27bd0030 	addiu	sp,sp,48

0010cc08 <$L107>:
  10cc08:	01222825 	or	a1,t1,v0

0010cc0c <$LM29>:
  10cc0c:	1000ffe0 	b	10cb90 <$L102>
  10cc10:	00108027 	nor	s0,zero,s0
  10cc14:	00000000 	nop

0010cc18 <$L106>:
  10cc18:	010c5025 	or	t2,t0,t4

0010cc1c <$LM32>:
  10cc1c:	1000ffda 	b	10cb88 <$L100>
  10cc20:	2410ffff 	li	s0,-1

0010cc24 <$LFE1>:
  10cc24:	00000000 	nop

0010cc28 <__udivmoddi4>:
  10cc28:	27bdfff0 	addiu	sp,sp,-16

0010cc2c <$LM35>:
  10cc2c:	0005383f 	dsra32	a3,a1,0x0

0010cc30 <$LM36>:
  10cc30:	0004403f 	dsra32	t0,a0,0x0

0010cc34 <$LM38>:
  10cc34:	0005483c 	dsll32	t1,a1,0x0
  10cc38:	0009483f 	dsra32	t1,t1,0x0

0010cc3c <$LM39>:
  10cc3c:	0004683c 	dsll32	t5,a0,0x0
  10cc40:	000d683f 	dsra32	t5,t5,0x0

0010cc44 <$LM40>:
  10cc44:	14e00108 	bnez	a3,10d068 <$L2>
  10cc48:	ffb00000 	sd	s0,0(sp)

0010cc4c <$LM41>:
  10cc4c:	0109102b 	sltu	v0,t0,t1
  10cc50:	10400071 	beqz	v0,10ce18 <$L3>
  10cc54:	3402ffff 	li	v0,0xffff

0010cc58 <$LBB59>:
  10cc58:	0049102b 	sltu	v0,v0,t1
  10cc5c:	14400066 	bnez	v0,10cdf8 <$L6>
  10cc60:	3c0200ff 	lui	v0,0xff
  10cc64:	24020008 	li	v0,8
  10cc68:	2d230100 	sltiu	v1,t1,256
  10cc6c:	0040282d 	move	a1,v0
  10cc70:	0003280b 	movn	a1,zero,v1

0010cc74 <$L7>:
  10cc74:	3c030011 	lui	v1,0x11
  10cc78:	00a91006 	srlv	v0,t1,a1
  10cc7c:	2463fd88 	addiu	v1,v1,-632
  10cc80:	24070020 	li	a3,32
  10cc84:	00431021 	addu	v0,v0,v1
  10cc88:	90440000 	lbu	a0,0(v0)
  10cc8c:	00852021 	addu	a0,a0,a1
  10cc90:	00e47823 	subu	t7,a3,a0

0010cc94 <$LBE59>:
  10cc94:	51e00008 	beqzl	t7,10ccb8 <$L112>
  10cc98:	00093c02 	srl	a3,t1,0x10

0010cc9c <$LM44>:
  10cc9c:	00ef1023 	subu	v0,a3,t7
  10cca0:	01e81804 	sllv	v1,t0,t7
  10cca4:	004d1006 	srlv	v0,t5,v0

0010cca8 <$LM45>:
  10cca8:	01e94804 	sllv	t1,t1,t7

0010ccac <$LM46>:
  10ccac:	00624025 	or	t0,v1,v0

0010ccb0 <$LM47>:
  10ccb0:	01ed6804 	sllv	t5,t5,t7

0010ccb4 <$LBB60>:
  10ccb4:	00093c02 	srl	a3,t1,0x10

0010ccb8 <$L112>:
  10ccb8:	312affff 	andi	t2,t1,0xffff
  10ccbc:	0107001b 	divu	zero,t0,a3
  10ccc0:	000d2402 	srl	a0,t5,0x10
  10ccc4:	50e00001 	beqzl	a3,10cccc <$L112+0x14>
  10ccc8:	000001cd 	break	0x7
  10cccc:	00001012 	mflo	v0
  10ccd0:	00001810 	mfhi	v1
  10ccd4:	00031c00 	sll	v1,v1,0x10
  10ccd8:	00641825 	or	v1,v1,a0
  10ccdc:	00002812 	mflo	a1
  10cce0:	004a4018 	mult	t0,v0,t2
  10cce4:	0068102b 	sltu	v0,v1,t0
  10cce8:	5040000c 	beqzl	v0,10cd1c <$L113>
  10ccec:	00681823 	subu	v1,v1,t0
  10ccf0:	00691821 	addu	v1,v1,t1
  10ccf4:	0069102b 	sltu	v0,v1,t1
  10ccf8:	14400007 	bnez	v0,10cd18 <$L21>
  10ccfc:	24a5ffff 	addiu	a1,a1,-1
  10cd00:	0068102b 	sltu	v0,v1,t0
  10cd04:	50400005 	beqzl	v0,10cd1c <$L113>
  10cd08:	00681823 	subu	v1,v1,t0
  10cd0c:	24a5ffff 	addiu	a1,a1,-1
  10cd10:	00691821 	addu	v1,v1,t1
  10cd14:	00000000 	nop

0010cd18 <$L21>:
  10cd18:	00681823 	subu	v1,v1,t0

0010cd1c <$L113>:
  10cd1c:	50e00001 	beqzl	a3,10cd24 <$L113+0x8>
  10cd20:	000001cd 	break	0x7
  10cd24:	0067001b 	divu	zero,v1,a3
  10cd28:	31a4ffff 	andi	a0,t5,0xffff
  10cd2c:	00001012 	mflo	v0
  10cd30:	00001810 	mfhi	v1
  10cd34:	00031c00 	sll	v1,v1,0x10
  10cd38:	00641825 	or	v1,v1,a0
  10cd3c:	00003812 	mflo	a3
  10cd40:	004a4018 	mult	t0,v0,t2
  10cd44:	0068102b 	sltu	v0,v1,t0
  10cd48:	1040000c 	beqz	v0,10cd7c <$L114>
  10cd4c:	00051400 	sll	v0,a1,0x10
  10cd50:	00691821 	addu	v1,v1,t1
  10cd54:	0069102b 	sltu	v0,v1,t1
  10cd58:	14400007 	bnez	v0,10cd78 <$L24>
  10cd5c:	24e7ffff 	addiu	a3,a3,-1
  10cd60:	0068102b 	sltu	v0,v1,t0
  10cd64:	10400005 	beqz	v0,10cd7c <$L114>
  10cd68:	00051400 	sll	v0,a1,0x10
  10cd6c:	00691821 	addu	v1,v1,t1
  10cd70:	24e7ffff 	addiu	a3,a3,-1
  10cd74:	00000000 	nop

0010cd78 <$L24>:
  10cd78:	00051400 	sll	v0,a1,0x10

0010cd7c <$L114>:
  10cd7c:	00686823 	subu	t5,v1,t0
  10cd80:	00475025 	or	t2,v0,a3

0010cd84 <$LBE60>:
  10cd84:	0000802d 	move	s0,zero

0010cd88 <$L27>:
  10cd88:	10c0000b 	beqz	a2,10cdb8 <$L61>
  10cd8c:	01ed1006 	srlv	v0,t5,t7

0010cd90 <$LM51>:
  10cd90:	2403ffff 	li	v1,-1
  10cd94:	0003183c 	dsll32	v1,v1,0x0
  10cd98:	0002103c 	dsll32	v0,v0,0x0
  10cd9c:	01836024 	and	t4,t4,v1
  10cda0:	0002103e 	dsrl32	v0,v0,0x0

0010cda4 <$LM52>:
  10cda4:	3c03ffff 	lui	v1,0xffff
  10cda8:	0003183e 	dsrl32	v1,v1,0x0

0010cdac <$LM53>:
  10cdac:	01826025 	or	t4,t4,v0

0010cdb0 <$LM54>:
  10cdb0:	01836024 	and	t4,t4,v1

0010cdb4 <$L109>:
  10cdb4:	fccc0000 	sd	t4,0(a2)

0010cdb8 <$L61>:
  10cdb8:	000a103c 	dsll32	v0,t2,0x0
  10cdbc:	2403ffff 	li	v1,-1
  10cdc0:	0003183c 	dsll32	v1,v1,0x0
  10cdc4:	0002103e 	dsrl32	v0,v0,0x0
  10cdc8:	01c37024 	and	t6,t6,v1
  10cdcc:	01c27025 	or	t6,t6,v0

0010cdd0 <$LM57>:
  10cdd0:	0010183c 	dsll32	v1,s0,0x0
  10cdd4:	3c02ffff 	lui	v0,0xffff
  10cdd8:	0002103e 	dsrl32	v0,v0,0x0

0010cddc <$LM58>:
  10cddc:	dfb00000 	ld	s0,0(sp)

0010cde0 <$LM59>:
  10cde0:	01c27024 	and	t6,t6,v0
  10cde4:	01c37025 	or	t6,t6,v1

0010cde8 <$LM60>:
  10cde8:	01c0102d 	move	v0,t6
  10cdec:	03e00008 	jr	ra
  10cdf0:	27bd0010 	addiu	sp,sp,16
  10cdf4:	00000000 	nop

0010cdf8 <$L6>:
  10cdf8:	24030010 	li	v1,16
  10cdfc:	3442ffff 	ori	v0,v0,0xffff
  10ce00:	24040018 	li	a0,24
  10ce04:	0049102b 	sltu	v0,v0,t1
  10ce08:	0060282d 	move	a1,v1
  10ce0c:	1000ff99 	b	10cc74 <$L7>
  10ce10:	0082280b 	movn	a1,a0,v0
  10ce14:	00000000 	nop

0010ce18 <$L3>:
  10ce18:	15200008 	bnez	t1,10ce3c <$L125>
  10ce1c:	0049102b 	sltu	v0,v0,t1

0010ce20 <$LM62>:
  10ce20:	24020001 	li	v0,1
  10ce24:	51200001 	beqzl	t1,10ce2c <$LM62+0xc>
  10ce28:	000001cd 	break	0x7
  10ce2c:	0047001b 	divu	zero,v0,a3
  10ce30:	00004812 	mflo	t1

0010ce34 <$LBB65>:
  10ce34:	3402ffff 	li	v0,0xffff
  10ce38:	0049102b 	sltu	v0,v0,t1

0010ce3c <$L125>:
  10ce3c:	14400082 	bnez	v0,10d048 <$L31>
  10ce40:	3c0200ff 	lui	v0,0xff
  10ce44:	24020008 	li	v0,8
  10ce48:	2d230100 	sltiu	v1,t1,256
  10ce4c:	0040282d 	move	a1,v0
  10ce50:	0003280b 	movn	a1,zero,v1

0010ce54 <$L32>:
  10ce54:	3c030011 	lui	v1,0x11
  10ce58:	00a91006 	srlv	v0,t1,a1
  10ce5c:	2463fd88 	addiu	v1,v1,-632
  10ce60:	24070020 	li	a3,32
  10ce64:	00431021 	addu	v0,v0,v1
  10ce68:	90440000 	lbu	a0,0(v0)
  10ce6c:	00852021 	addu	a0,a0,a1
  10ce70:	00e47823 	subu	t7,a3,a0

0010ce74 <$LBE65>:
  10ce74:	15e00038 	bnez	t7,10cf58 <$L44>
  10ce78:	00efc023 	subu	t8,a3,t7

0010ce7c <$LM65>:
  10ce7c:	01094023 	subu	t0,t0,t1

0010ce80 <$LM66>:
  10ce80:	24100001 	li	s0,1
  10ce84:	00095402 	srl	t2,t1,0x10
  10ce88:	3139ffff 	andi	t9,t1,0xffff

0010ce8c <$L45>:
  10ce8c:	010a001b 	divu	zero,t0,t2
  10ce90:	000d2c02 	srl	a1,t5,0x10
  10ce94:	51400001 	beqzl	t2,10ce9c <$L45+0x10>
  10ce98:	000001cd 	break	0x7
  10ce9c:	00002012 	mflo	a0
  10cea0:	00001810 	mfhi	v1
  10cea4:	00031c00 	sll	v1,v1,0x10
  10cea8:	00651825 	or	v1,v1,a1
  10ceac:	00005812 	mflo	t3
  10ceb0:	00993818 	mult	a3,a0,t9
  10ceb4:	0067102b 	sltu	v0,v1,a3
  10ceb8:	5040000c 	beqzl	v0,10ceec <$L116>
  10cebc:	00671823 	subu	v1,v1,a3
  10cec0:	00691821 	addu	v1,v1,t1
  10cec4:	0069102b 	sltu	v0,v1,t1
  10cec8:	14400007 	bnez	v0,10cee8 <$L54>
  10cecc:	248bffff 	addiu	t3,a0,-1
  10ced0:	0067102b 	sltu	v0,v1,a3
  10ced4:	50400005 	beqzl	v0,10ceec <$L116>
  10ced8:	00671823 	subu	v1,v1,a3
  10cedc:	256bffff 	addiu	t3,t3,-1
  10cee0:	00691821 	addu	v1,v1,t1
  10cee4:	00000000 	nop

0010cee8 <$L54>:
  10cee8:	00671823 	subu	v1,v1,a3

0010ceec <$L116>:
  10ceec:	31a4ffff 	andi	a0,t5,0xffff
  10cef0:	006a001b 	divu	zero,v1,t2
  10cef4:	51400001 	beqzl	t2,10cefc <$L116+0x10>
  10cef8:	000001cd 	break	0x7
  10cefc:	00001012 	mflo	v0
  10cf00:	00001810 	mfhi	v1
  10cf04:	00031c00 	sll	v1,v1,0x10
  10cf08:	00641825 	or	v1,v1,a0
  10cf0c:	00004012 	mflo	t0
  10cf10:	00593818 	mult	a3,v0,t9
  10cf14:	0067102b 	sltu	v0,v1,a3
  10cf18:	1040000c 	beqz	v0,10cf4c <$L117>
  10cf1c:	000b1400 	sll	v0,t3,0x10
  10cf20:	00691821 	addu	v1,v1,t1
  10cf24:	0069102b 	sltu	v0,v1,t1
  10cf28:	14400007 	bnez	v0,10cf48 <$L57>
  10cf2c:	2508ffff 	addiu	t0,t0,-1
  10cf30:	0067102b 	sltu	v0,v1,a3
  10cf34:	10400005 	beqz	v0,10cf4c <$L117>
  10cf38:	000b1400 	sll	v0,t3,0x10
  10cf3c:	00691821 	addu	v1,v1,t1
  10cf40:	2508ffff 	addiu	t0,t0,-1
  10cf44:	00000000 	nop

0010cf48 <$L57>:
  10cf48:	000b1400 	sll	v0,t3,0x10

0010cf4c <$L117>:
  10cf4c:	00676823 	subu	t5,v1,a3
  10cf50:	1000ff8d 	b	10cd88 <$L27>
  10cf54:	00485025 	or	t2,v0,t0

0010cf58 <$L44>:
  10cf58:	01e94804 	sllv	t1,t1,t7

0010cf5c <$LM70>:
  10cf5c:	03082806 	srlv	a1,t0,t8

0010cf60 <$LBB67>:
  10cf60:	00095402 	srl	t2,t1,0x10
  10cf64:	00aa001b 	divu	zero,a1,t2
  10cf68:	3139ffff 	andi	t9,t1,0xffff

0010cf6c <$LBE67>:
  10cf6c:	030d1806 	srlv	v1,t5,t8
  10cf70:	01e81004 	sllv	v0,t0,t7
  10cf74:	00434025 	or	t0,v0,v1

0010cf78 <$LBB68>:
  10cf78:	51400001 	beqzl	t2,10cf80 <$LBB68+0x8>
  10cf7c:	000001cd 	break	0x7
  10cf80:	00081c02 	srl	v1,t0,0x10
  10cf84:	0140582d 	move	t3,t2

0010cf88 <$LBE68>:
  10cf88:	01ed6804 	sllv	t5,t5,t7

0010cf8c <$LBB69>:
  10cf8c:	00002812 	mflo	a1
  10cf90:	00002010 	mfhi	a0

0010cf94 <$LBB70>:
  10cf94:	00042400 	sll	a0,a0,0x10
  10cf98:	00831825 	or	v1,a0,v1
  10cf9c:	0000c012 	mflo	t8
  10cfa0:	00b93818 	mult	a3,a1,t9
  10cfa4:	0067102b 	sltu	v0,v1,a3
  10cfa8:	1040000b 	beqz	v0,10cfd8 <$L47>
  10cfac:	0320802d 	move	s0,t9
  10cfb0:	00691821 	addu	v1,v1,t1
  10cfb4:	0069102b 	sltu	v0,v1,t1
  10cfb8:	14400007 	bnez	v0,10cfd8 <$L47>
  10cfbc:	24b8ffff 	addiu	t8,a1,-1
  10cfc0:	0067102b 	sltu	v0,v1,a3
  10cfc4:	50400005 	beqzl	v0,10cfdc <$L118>
  10cfc8:	00671823 	subu	v1,v1,a3
  10cfcc:	2718ffff 	addiu	t8,t8,-1
  10cfd0:	00691821 	addu	v1,v1,t1
  10cfd4:	00000000 	nop

0010cfd8 <$L47>:
  10cfd8:	00671823 	subu	v1,v1,a3

0010cfdc <$L118>:
  10cfdc:	3104ffff 	andi	a0,t0,0xffff
  10cfe0:	006b001b 	divu	zero,v1,t3
  10cfe4:	51600001 	beqzl	t3,10cfec <$L118+0x10>
  10cfe8:	000001cd 	break	0x7
  10cfec:	00001012 	mflo	v0
  10cff0:	00001810 	mfhi	v1
  10cff4:	00031c00 	sll	v1,v1,0x10
  10cff8:	00641825 	or	v1,v1,a0
  10cffc:	00002812 	mflo	a1
  10d000:	00503818 	mult	a3,v0,s0
  10d004:	0067102b 	sltu	v0,v1,a3
  10d008:	1040000c 	beqz	v0,10d03c <$L119>
  10d00c:	00181400 	sll	v0,t8,0x10
  10d010:	00691821 	addu	v1,v1,t1
  10d014:	0069102b 	sltu	v0,v1,t1
  10d018:	14400007 	bnez	v0,10d038 <$L50>
  10d01c:	24a5ffff 	addiu	a1,a1,-1
  10d020:	0067102b 	sltu	v0,v1,a3
  10d024:	10400005 	beqz	v0,10d03c <$L119>
  10d028:	00181400 	sll	v0,t8,0x10
  10d02c:	24a5ffff 	addiu	a1,a1,-1
  10d030:	00691821 	addu	v1,v1,t1
  10d034:	00000000 	nop

0010d038 <$L50>:
  10d038:	00181400 	sll	v0,t8,0x10

0010d03c <$L119>:
  10d03c:	00674023 	subu	t0,v1,a3
  10d040:	1000ff92 	b	10ce8c <$L45>
  10d044:	00458025 	or	s0,v0,a1

0010d048 <$L31>:
  10d048:	24030010 	li	v1,16
  10d04c:	3442ffff 	ori	v0,v0,0xffff
  10d050:	24040018 	li	a0,24
  10d054:	0049102b 	sltu	v0,v0,t1
  10d058:	0060282d 	move	a1,v1
  10d05c:	1000ff7d 	b	10ce54 <$L32>
  10d060:	0082280b 	movn	a1,a0,v0
  10d064:	00000000 	nop

0010d068 <$L2>:
  10d068:	0107102b 	sltu	v0,t0,a3
  10d06c:	1440001f 	bnez	v0,10d0ec <$L120>
  10d070:	0000502d 	move	t2,zero

0010d074 <$LBB72>:
  10d074:	3402ffff 	li	v0,0xffff
  10d078:	0047102b 	sltu	v0,v0,a3
  10d07c:	1440008c 	bnez	v0,10d2b0 <$L67>
  10d080:	3c0200ff 	lui	v0,0xff
  10d084:	24020008 	li	v0,8
  10d088:	2ce30100 	sltiu	v1,a3,256
  10d08c:	0040282d 	move	a1,v0
  10d090:	0003280b 	movn	a1,zero,v1

0010d094 <$L68>:
  10d094:	3c030011 	lui	v1,0x11
  10d098:	00a71006 	srlv	v0,a3,a1
  10d09c:	2463fd88 	addiu	v1,v1,-632
  10d0a0:	240a0020 	li	t2,32
  10d0a4:	00431021 	addu	v0,v0,v1
  10d0a8:	90440000 	lbu	a0,0(v0)
  10d0ac:	00852021 	addu	a0,a0,a1
  10d0b0:	01447823 	subu	t7,t2,a0

0010d0b4 <$LBE72>:
  10d0b4:	15e0001c 	bnez	t7,10d128 <$L80>
  10d0b8:	014fc023 	subu	t8,t2,t7

0010d0bc <$LM79>:
  10d0bc:	00e8102b 	sltu	v0,a3,t0
  10d0c0:	14400005 	bnez	v0,10d0d8 <$L121>
  10d0c4:	01a92023 	subu	a0,t5,t1
  10d0c8:	01a9102b 	sltu	v0,t5,t1
  10d0cc:	14400007 	bnez	v0,10d0ec <$L120>
  10d0d0:	0000502d 	move	t2,zero

0010d0d4 <$LBB73>:
  10d0d4:	01a92023 	subu	a0,t5,t1

0010d0d8 <$L121>:
  10d0d8:	01071823 	subu	v1,t0,a3
  10d0dc:	01a4102b 	sltu	v0,t5,a0

0010d0e0 <$LBE73>:
  10d0e0:	240a0001 	li	t2,1

0010d0e4 <$LBB74>:
  10d0e4:	00624023 	subu	t0,v1,v0
  10d0e8:	0080682d 	move	t5,a0

0010d0ec <$L120>:
  10d0ec:	10c0ff32 	beqz	a2,10cdb8 <$L61>
  10d0f0:	0000802d 	move	s0,zero

0010d0f4 <$LM84>:
  10d0f4:	2403ffff 	li	v1,-1
  10d0f8:	0003183c 	dsll32	v1,v1,0x0
  10d0fc:	000d103c 	dsll32	v0,t5,0x0
  10d100:	0002103e 	dsrl32	v0,v0,0x0
  10d104:	01836024 	and	t4,t4,v1
  10d108:	01826025 	or	t4,t4,v0

0010d10c <$LM85>:
  10d10c:	0008183c 	dsll32	v1,t0,0x0
  10d110:	3c02ffff 	lui	v0,0xffff
  10d114:	0002103e 	dsrl32	v0,v0,0x0
  10d118:	01826024 	and	t4,t4,v0

0010d11c <$LM86>:
  10d11c:	1000ff25 	b	10cdb4 <$L109>
  10d120:	01836025 	or	t4,t4,v1

0010d124 <$LM87>:
  10d124:	00000000 	nop

0010d128 <$L80>:
  10d128:	01e71804 	sllv	v1,a3,t7
  10d12c:	03091006 	srlv	v0,t1,t8

0010d130 <$LM90>:
  10d130:	03082806 	srlv	a1,t0,t8

0010d134 <$LM91>:
  10d134:	00623825 	or	a3,v1,v0

0010d138 <$LM92>:
  10d138:	01e82004 	sllv	a0,t0,t7

0010d13c <$LBB76>:
  10d13c:	00075402 	srl	t2,a3,0x10
  10d140:	30f0ffff 	andi	s0,a3,0xffff
  10d144:	00aa001b 	divu	zero,a1,t2

0010d148 <$LBE76>:
  10d148:	030d1006 	srlv	v0,t5,t8
  10d14c:	00824025 	or	t0,a0,v0

0010d150 <$LBB77>:
  10d150:	51400001 	beqzl	t2,10d158 <$LBB77+0x8>
  10d154:	000001cd 	break	0x7
  10d158:	00082402 	srl	a0,t0,0x10

0010d15c <$LBE77>:
  10d15c:	01e94804 	sllv	t1,t1,t7

0010d160 <$LBB78>:
  10d160:	00002812 	mflo	a1
  10d164:	00001810 	mfhi	v1

0010d168 <$LBB80>:
  10d168:	00031c00 	sll	v1,v1,0x10
  10d16c:	00641825 	or	v1,v1,a0
  10d170:	0000c812 	mflo	t9
  10d174:	00b05818 	mult	t3,a1,s0
  10d178:	006b102b 	sltu	v0,v1,t3
  10d17c:	1040000a 	beqz	v0,10d1a8 <$L88>
  10d180:	01ed6804 	sllv	t5,t5,t7
  10d184:	00671821 	addu	v1,v1,a3
  10d188:	0067102b 	sltu	v0,v1,a3
  10d18c:	14400006 	bnez	v0,10d1a8 <$L88>
  10d190:	24b9ffff 	addiu	t9,a1,-1
  10d194:	006b102b 	sltu	v0,v1,t3
  10d198:	50400004 	beqzl	v0,10d1ac <$L122>
  10d19c:	006b1823 	subu	v1,v1,t3
  10d1a0:	2739ffff 	addiu	t9,t9,-1
  10d1a4:	00671821 	addu	v1,v1,a3

0010d1a8 <$L88>:
  10d1a8:	006b1823 	subu	v1,v1,t3

0010d1ac <$L122>:
  10d1ac:	3104ffff 	andi	a0,t0,0xffff
  10d1b0:	006a001b 	divu	zero,v1,t2
  10d1b4:	51400001 	beqzl	t2,10d1bc <$L122+0x10>
  10d1b8:	000001cd 	break	0x7
  10d1bc:	00001012 	mflo	v0
  10d1c0:	00001810 	mfhi	v1
  10d1c4:	00031c00 	sll	v1,v1,0x10
  10d1c8:	00642825 	or	a1,v1,a0
  10d1cc:	00004012 	mflo	t0
  10d1d0:	00505818 	mult	t3,v0,s0
  10d1d4:	00ab102b 	sltu	v0,a1,t3
  10d1d8:	1040000c 	beqz	v0,10d20c <$L123>
  10d1dc:	00191400 	sll	v0,t9,0x10
  10d1e0:	00a72821 	addu	a1,a1,a3
  10d1e4:	00a7102b 	sltu	v0,a1,a3
  10d1e8:	14400007 	bnez	v0,10d208 <$L91>
  10d1ec:	2508ffff 	addiu	t0,t0,-1
  10d1f0:	00ab102b 	sltu	v0,a1,t3
  10d1f4:	10400005 	beqz	v0,10d20c <$L123>
  10d1f8:	00191400 	sll	v0,t9,0x10
  10d1fc:	2508ffff 	addiu	t0,t0,-1
  10d200:	00a72821 	addu	a1,a1,a3
  10d204:	00000000 	nop

0010d208 <$L91>:
  10d208:	00191400 	sll	v0,t9,0x10

0010d20c <$L123>:
  10d20c:	00ab2823 	subu	a1,a1,t3
  10d210:	00485025 	or	t2,v0,t0

0010d214 <$LBE80>:
  10d214:	01490019 	multu	t2,t1
  10d218:	00001810 	mfhi	v1
  10d21c:	00005812 	mflo	t3

0010d220 <$LM101>:
  10d220:	00a3102b 	sltu	v0,a1,v1
  10d224:	1440001b 	bnez	v0,10d294 <$L124>
  10d228:	01692023 	subu	a0,t3,t1
  10d22c:	10650017 	beq	v1,a1,10d28c <$L111>
  10d230:	01ab102b 	sltu	v0,t5,t3

0010d234 <$L94>:
  10d234:	10c0fee0 	beqz	a2,10cdb8 <$L61>
  10d238:	0000802d 	move	s0,zero

0010d23c <$LBB81>:
  10d23c:	01ab2023 	subu	a0,t5,t3
  10d240:	00a32823 	subu	a1,a1,v1
  10d244:	01a4182b 	sltu	v1,t5,a0

0010d248 <$LBE81>:
  10d248:	01e42006 	srlv	a0,a0,t7

0010d24c <$LBB82>:
  10d24c:	00a34023 	subu	t0,a1,v1

0010d250 <$LBE82>:
  10d250:	2403ffff 	li	v1,-1
  10d254:	0003183c 	dsll32	v1,v1,0x0
  10d258:	03081004 	sllv	v0,t0,t8
  10d25c:	01836024 	and	t4,t4,v1
  10d260:	00441025 	or	v0,v0,a0

0010d264 <$LM107>:
  10d264:	01e82806 	srlv	a1,t0,t7

0010d268 <$LM108>:
  10d268:	0002103c 	dsll32	v0,v0,0x0

0010d26c <$LM109>:
  10d26c:	3c03ffff 	lui	v1,0xffff
  10d270:	0003183e 	dsrl32	v1,v1,0x0

0010d274 <$LM110>:
  10d274:	0002103e 	dsrl32	v0,v0,0x0

0010d278 <$LM111>:
  10d278:	0005283c 	dsll32	a1,a1,0x0

0010d27c <$LM112>:
  10d27c:	01826025 	or	t4,t4,v0

0010d280 <$LM113>:
  10d280:	01836024 	and	t4,t4,v1
  10d284:	1000fecb 	b	10cdb4 <$L109>
  10d288:	01856025 	or	t4,t4,a1

0010d28c <$L111>:
  10d28c:	1040ffe9 	beqz	v0,10d234 <$L94>
  10d290:	01692023 	subu	a0,t3,t1

0010d294 <$L124>:
  10d294:	00671823 	subu	v1,v1,a3
  10d298:	0164102b 	sltu	v0,t3,a0

0010d29c <$LBE83>:
  10d29c:	254affff 	addiu	t2,t2,-1

0010d2a0 <$LBB84>:
  10d2a0:	00621823 	subu	v1,v1,v0
  10d2a4:	1000ffe3 	b	10d234 <$L94>
  10d2a8:	0080582d 	move	t3,a0
  10d2ac:	00000000 	nop

0010d2b0 <$L67>:
  10d2b0:	24030010 	li	v1,16
  10d2b4:	3442ffff 	ori	v0,v0,0xffff
  10d2b8:	24040018 	li	a0,24
  10d2bc:	0047102b 	sltu	v0,v0,a3
  10d2c0:	0060282d 	move	a1,v1
  10d2c4:	1000ff73 	b	10d094 <$L68>
  10d2c8:	0082280b 	movn	a1,a0,v0

0010d2cc <$LBE85>:
  10d2cc:	00000000 	nop

0010d2d0 <__moddi3>:
  10d2d0:	2402ffff 	li	v0,-1
  10d2d4:	0002103c 	dsll32	v0,v0,0x0
  10d2d8:	2403ffff 	li	v1,-1
  10d2dc:	0003183c 	dsll32	v1,v1,0x0
  10d2e0:	01024024 	and	t0,t0,v0
  10d2e4:	01234824 	and	t1,t1,v1

0010d2e8 <$LM2>:
  10d2e8:	0004103c 	dsll32	v0,a0,0x0
  10d2ec:	0002103f 	dsra32	v0,v0,0x0

0010d2f0 <$LM3>:
  10d2f0:	0004383f 	dsra32	a3,a0,0x0

0010d2f4 <$LM4>:
  10d2f4:	00021023 	negu	v0,v0

0010d2f8 <$LM5>:
  10d2f8:	0080502d 	move	t2,a0

0010d2fc <$LM6>:
  10d2fc:	0002103c 	dsll32	v0,v0,0x0
  10d300:	00072023 	negu	a0,a3
  10d304:	0002103e 	dsrl32	v0,v0,0x0

0010d308 <$LM7>:
  10d308:	0005583f 	dsra32	t3,a1,0x0

0010d30c <$LM8>:
  10d30c:	01024025 	or	t0,t0,v0

0010d310 <$LM9>:
  10d310:	27bdffc0 	addiu	sp,sp,-64

0010d314 <$LM10>:
  10d314:	0005103c 	dsll32	v0,a1,0x0
  10d318:	0002103f 	dsra32	v0,v0,0x0
  10d31c:	0008183c 	dsll32	v1,t0,0x0
  10d320:	0003183f 	dsra32	v1,v1,0x0
  10d324:	00021023 	negu	v0,v0
  10d328:	0003182b 	sltu	v1,zero,v1
  10d32c:	0002103c 	dsll32	v0,v0,0x0
  10d330:	00832023 	subu	a0,a0,v1
  10d334:	0002103e 	dsrl32	v0,v0,0x0
  10d338:	0004603c 	dsll32	t4,a0,0x0
  10d33c:	01224825 	or	t1,t1,v0
  10d340:	000b2023 	negu	a0,t3
  10d344:	0009103c 	dsll32	v0,t1,0x0
  10d348:	0002103f 	dsra32	v0,v0,0x0
  10d34c:	3c03ffff 	lui	v1,0xffff
  10d350:	0003183e 	dsrl32	v1,v1,0x0
  10d354:	0002102b 	sltu	v0,zero,v0

0010d358 <$LM11>:
  10d358:	ffb10020 	sd	s1,32(sp)

0010d35c <$LM12>:
  10d35c:	00822023 	subu	a0,a0,v0

0010d360 <$LM13>:
  10d360:	ffbf0030 	sd	ra,48(sp)
  10d364:	ffb00010 	sd	s0,16(sp)

0010d368 <$LM14>:
  10d368:	03a0302d 	move	a2,sp

0010d36c <$LBB45>:
  10d36c:	01034024 	and	t0,t0,v1

0010d370 <$LBB47>:
  10d370:	01234824 	and	t1,t1,v1
  10d374:	0004103c 	dsll32	v0,a0,0x0

0010d378 <$LBE47>:
  10d378:	04e00025 	bltz	a3,10d410 <$L106>
  10d37c:	0000882d 	move	s1,zero

0010d380 <$L100>:
  10d380:	05600021 	bltz	t3,10d408 <$L107>
  10d384:	0140202d 	move	a0,t2

0010d388 <$L102>:
  10d388:	0c043508 	jal	10d420 <__udivmoddi4>
  10d38c:	00000000 	nop

0010d390 <$LM20>:
  10d390:	12200016 	beqz	s1,10d3ec <$L104>
  10d394:	dfa40000 	ld	a0,0(sp)

0010d398 <$LBB49>:
  10d398:	2403ffff 	li	v1,-1
  10d39c:	0003183c 	dsll32	v1,v1,0x0
  10d3a0:	02038024 	and	s0,s0,v1
  10d3a4:	0004103c 	dsll32	v0,a0,0x0
  10d3a8:	0002103f 	dsra32	v0,v0,0x0

0010d3ac <$LM23>:
  10d3ac:	0004203f 	dsra32	a0,a0,0x0

0010d3b0 <$LM24>:
  10d3b0:	00021023 	negu	v0,v0

0010d3b4 <$LM25>:
  10d3b4:	00042023 	negu	a0,a0

0010d3b8 <$LM26>:
  10d3b8:	0002103c 	dsll32	v0,v0,0x0
  10d3bc:	0002103e 	dsrl32	v0,v0,0x0
  10d3c0:	02028025 	or	s0,s0,v0

0010d3c4 <$LM27>:
  10d3c4:	3c02ffff 	lui	v0,0xffff
  10d3c8:	0002103e 	dsrl32	v0,v0,0x0
  10d3cc:	0010183c 	dsll32	v1,s0,0x0
  10d3d0:	0003183f 	dsra32	v1,v1,0x0
  10d3d4:	02028024 	and	s0,s0,v0
  10d3d8:	0003182b 	sltu	v1,zero,v1
  10d3dc:	00832023 	subu	a0,a0,v1
  10d3e0:	0004203c 	dsll32	a0,a0,0x0
  10d3e4:	02048025 	or	s0,s0,a0

0010d3e8 <$LBE49>:
  10d3e8:	ffb00000 	sd	s0,0(sp)

0010d3ec <$L104>:
  10d3ec:	dfa20000 	ld	v0,0(sp)
  10d3f0:	dfbf0030 	ld	ra,48(sp)
  10d3f4:	dfb10020 	ld	s1,32(sp)
  10d3f8:	dfb00010 	ld	s0,16(sp)
  10d3fc:	03e00008 	jr	ra
  10d400:	27bd0040 	addiu	sp,sp,64

0010d404 <$LM30>:
  10d404:	00000000 	nop

0010d408 <$L107>:
  10d408:	1000ffdf 	b	10d388 <$L102>
  10d40c:	01222825 	or	a1,t1,v0

0010d410 <$L106>:
  10d410:	010c5025 	or	t2,t0,t4

0010d414 <$LM33>:
  10d414:	1000ffda 	b	10d380 <$L100>
  10d418:	2411ffff 	li	s1,-1

0010d41c <$LFE1>:
  10d41c:	00000000 	nop

0010d420 <__udivmoddi4>:
  10d420:	27bdfff0 	addiu	sp,sp,-16

0010d424 <$LM36>:
  10d424:	0005383f 	dsra32	a3,a1,0x0

0010d428 <$LM37>:
  10d428:	0004403f 	dsra32	t0,a0,0x0

0010d42c <$LM39>:
  10d42c:	0005483c 	dsll32	t1,a1,0x0
  10d430:	0009483f 	dsra32	t1,t1,0x0

0010d434 <$LM40>:
  10d434:	0004683c 	dsll32	t5,a0,0x0
  10d438:	000d683f 	dsra32	t5,t5,0x0

0010d43c <$LM41>:
  10d43c:	14e00108 	bnez	a3,10d860 <$L2>
  10d440:	ffb00000 	sd	s0,0(sp)

0010d444 <$LM42>:
  10d444:	0109102b 	sltu	v0,t0,t1
  10d448:	10400071 	beqz	v0,10d610 <$L3>
  10d44c:	3402ffff 	li	v0,0xffff

0010d450 <$LBB57>:
  10d450:	0049102b 	sltu	v0,v0,t1
  10d454:	14400066 	bnez	v0,10d5f0 <$L6>
  10d458:	3c0200ff 	lui	v0,0xff
  10d45c:	24020008 	li	v0,8
  10d460:	2d230100 	sltiu	v1,t1,256
  10d464:	0040282d 	move	a1,v0
  10d468:	0003280b 	movn	a1,zero,v1

0010d46c <$L7>:
  10d46c:	3c030011 	lui	v1,0x11
  10d470:	00a91006 	srlv	v0,t1,a1
  10d474:	2463fd88 	addiu	v1,v1,-632
  10d478:	24070020 	li	a3,32
  10d47c:	00431021 	addu	v0,v0,v1
  10d480:	90440000 	lbu	a0,0(v0)
  10d484:	00852021 	addu	a0,a0,a1
  10d488:	00e47823 	subu	t7,a3,a0

0010d48c <$LBE57>:
  10d48c:	51e00008 	beqzl	t7,10d4b0 <$L112>
  10d490:	00093c02 	srl	a3,t1,0x10

0010d494 <$LM45>:
  10d494:	00ef1023 	subu	v0,a3,t7
  10d498:	01e81804 	sllv	v1,t0,t7
  10d49c:	004d1006 	srlv	v0,t5,v0

0010d4a0 <$LM46>:
  10d4a0:	01e94804 	sllv	t1,t1,t7

0010d4a4 <$LM47>:
  10d4a4:	00624025 	or	t0,v1,v0

0010d4a8 <$LM48>:
  10d4a8:	01ed6804 	sllv	t5,t5,t7

0010d4ac <$LBB58>:
  10d4ac:	00093c02 	srl	a3,t1,0x10

0010d4b0 <$L112>:
  10d4b0:	312affff 	andi	t2,t1,0xffff
  10d4b4:	0107001b 	divu	zero,t0,a3
  10d4b8:	000d2402 	srl	a0,t5,0x10
  10d4bc:	50e00001 	beqzl	a3,10d4c4 <$L112+0x14>
  10d4c0:	000001cd 	break	0x7
  10d4c4:	00001012 	mflo	v0
  10d4c8:	00001810 	mfhi	v1
  10d4cc:	00031c00 	sll	v1,v1,0x10
  10d4d0:	00641825 	or	v1,v1,a0
  10d4d4:	00002812 	mflo	a1
  10d4d8:	004a4018 	mult	t0,v0,t2
  10d4dc:	0068102b 	sltu	v0,v1,t0
  10d4e0:	5040000c 	beqzl	v0,10d514 <$L113>
  10d4e4:	00681823 	subu	v1,v1,t0
  10d4e8:	00691821 	addu	v1,v1,t1
  10d4ec:	0069102b 	sltu	v0,v1,t1
  10d4f0:	14400007 	bnez	v0,10d510 <$L21>
  10d4f4:	24a5ffff 	addiu	a1,a1,-1
  10d4f8:	0068102b 	sltu	v0,v1,t0
  10d4fc:	50400005 	beqzl	v0,10d514 <$L113>
  10d500:	00681823 	subu	v1,v1,t0
  10d504:	24a5ffff 	addiu	a1,a1,-1
  10d508:	00691821 	addu	v1,v1,t1
  10d50c:	00000000 	nop

0010d510 <$L21>:
  10d510:	00681823 	subu	v1,v1,t0

0010d514 <$L113>:
  10d514:	50e00001 	beqzl	a3,10d51c <$L113+0x8>
  10d518:	000001cd 	break	0x7
  10d51c:	0067001b 	divu	zero,v1,a3
  10d520:	31a4ffff 	andi	a0,t5,0xffff
  10d524:	00001012 	mflo	v0
  10d528:	00001810 	mfhi	v1
  10d52c:	00031c00 	sll	v1,v1,0x10
  10d530:	00641825 	or	v1,v1,a0
  10d534:	00003812 	mflo	a3
  10d538:	004a4018 	mult	t0,v0,t2
  10d53c:	0068102b 	sltu	v0,v1,t0
  10d540:	1040000c 	beqz	v0,10d574 <$L114>
  10d544:	00051400 	sll	v0,a1,0x10
  10d548:	00691821 	addu	v1,v1,t1
  10d54c:	0069102b 	sltu	v0,v1,t1
  10d550:	14400007 	bnez	v0,10d570 <$L24>
  10d554:	24e7ffff 	addiu	a3,a3,-1
  10d558:	0068102b 	sltu	v0,v1,t0
  10d55c:	10400005 	beqz	v0,10d574 <$L114>
  10d560:	00051400 	sll	v0,a1,0x10
  10d564:	00691821 	addu	v1,v1,t1
  10d568:	24e7ffff 	addiu	a3,a3,-1
  10d56c:	00000000 	nop

0010d570 <$L24>:
  10d570:	00051400 	sll	v0,a1,0x10

0010d574 <$L114>:
  10d574:	00686823 	subu	t5,v1,t0
  10d578:	00475025 	or	t2,v0,a3

0010d57c <$LBE58>:
  10d57c:	0000802d 	move	s0,zero

0010d580 <$L27>:
  10d580:	10c0000b 	beqz	a2,10d5b0 <$L61>
  10d584:	01ed1006 	srlv	v0,t5,t7

0010d588 <$LM52>:
  10d588:	2403ffff 	li	v1,-1
  10d58c:	0003183c 	dsll32	v1,v1,0x0
  10d590:	0002103c 	dsll32	v0,v0,0x0
  10d594:	01836024 	and	t4,t4,v1
  10d598:	0002103e 	dsrl32	v0,v0,0x0

0010d59c <$LM53>:
  10d59c:	3c03ffff 	lui	v1,0xffff
  10d5a0:	0003183e 	dsrl32	v1,v1,0x0

0010d5a4 <$LM54>:
  10d5a4:	01826025 	or	t4,t4,v0

0010d5a8 <$LM55>:
  10d5a8:	01836024 	and	t4,t4,v1

0010d5ac <$L109>:
  10d5ac:	fccc0000 	sd	t4,0(a2)

0010d5b0 <$L61>:
  10d5b0:	000a103c 	dsll32	v0,t2,0x0
  10d5b4:	2403ffff 	li	v1,-1
  10d5b8:	0003183c 	dsll32	v1,v1,0x0
  10d5bc:	0002103e 	dsrl32	v0,v0,0x0
  10d5c0:	01c37024 	and	t6,t6,v1
  10d5c4:	01c27025 	or	t6,t6,v0

0010d5c8 <$LM58>:
  10d5c8:	0010183c 	dsll32	v1,s0,0x0
  10d5cc:	3c02ffff 	lui	v0,0xffff
  10d5d0:	0002103e 	dsrl32	v0,v0,0x0

0010d5d4 <$LM59>:
  10d5d4:	dfb00000 	ld	s0,0(sp)

0010d5d8 <$LM60>:
  10d5d8:	01c27024 	and	t6,t6,v0
  10d5dc:	01c37025 	or	t6,t6,v1

0010d5e0 <$LM61>:
  10d5e0:	01c0102d 	move	v0,t6
  10d5e4:	03e00008 	jr	ra
  10d5e8:	27bd0010 	addiu	sp,sp,16
  10d5ec:	00000000 	nop

0010d5f0 <$L6>:
  10d5f0:	24030010 	li	v1,16
  10d5f4:	3442ffff 	ori	v0,v0,0xffff
  10d5f8:	24040018 	li	a0,24
  10d5fc:	0049102b 	sltu	v0,v0,t1
  10d600:	0060282d 	move	a1,v1
  10d604:	1000ff99 	b	10d46c <$L7>
  10d608:	0082280b 	movn	a1,a0,v0
  10d60c:	00000000 	nop

0010d610 <$L3>:
  10d610:	15200008 	bnez	t1,10d634 <$L125>
  10d614:	0049102b 	sltu	v0,v0,t1

0010d618 <$LM63>:
  10d618:	24020001 	li	v0,1
  10d61c:	51200001 	beqzl	t1,10d624 <$LM63+0xc>
  10d620:	000001cd 	break	0x7
  10d624:	0047001b 	divu	zero,v0,a3
  10d628:	00004812 	mflo	t1

0010d62c <$LBB63>:
  10d62c:	3402ffff 	li	v0,0xffff
  10d630:	0049102b 	sltu	v0,v0,t1

0010d634 <$L125>:
  10d634:	14400082 	bnez	v0,10d840 <$L31>
  10d638:	3c0200ff 	lui	v0,0xff
  10d63c:	24020008 	li	v0,8
  10d640:	2d230100 	sltiu	v1,t1,256
  10d644:	0040282d 	move	a1,v0
  10d648:	0003280b 	movn	a1,zero,v1

0010d64c <$L32>:
  10d64c:	3c030011 	lui	v1,0x11
  10d650:	00a91006 	srlv	v0,t1,a1
  10d654:	2463fd88 	addiu	v1,v1,-632
  10d658:	24070020 	li	a3,32
  10d65c:	00431021 	addu	v0,v0,v1
  10d660:	90440000 	lbu	a0,0(v0)
  10d664:	00852021 	addu	a0,a0,a1
  10d668:	00e47823 	subu	t7,a3,a0

0010d66c <$LBE63>:
  10d66c:	15e00038 	bnez	t7,10d750 <$L44>
  10d670:	00efc023 	subu	t8,a3,t7

0010d674 <$LM66>:
  10d674:	01094023 	subu	t0,t0,t1

0010d678 <$LM67>:
  10d678:	24100001 	li	s0,1
  10d67c:	00095402 	srl	t2,t1,0x10
  10d680:	3139ffff 	andi	t9,t1,0xffff

0010d684 <$L45>:
  10d684:	010a001b 	divu	zero,t0,t2
  10d688:	000d2c02 	srl	a1,t5,0x10
  10d68c:	51400001 	beqzl	t2,10d694 <$L45+0x10>
  10d690:	000001cd 	break	0x7
  10d694:	00002012 	mflo	a0
  10d698:	00001810 	mfhi	v1
  10d69c:	00031c00 	sll	v1,v1,0x10
  10d6a0:	00651825 	or	v1,v1,a1
  10d6a4:	00005812 	mflo	t3
  10d6a8:	00993818 	mult	a3,a0,t9
  10d6ac:	0067102b 	sltu	v0,v1,a3
  10d6b0:	5040000c 	beqzl	v0,10d6e4 <$L116>
  10d6b4:	00671823 	subu	v1,v1,a3
  10d6b8:	00691821 	addu	v1,v1,t1
  10d6bc:	0069102b 	sltu	v0,v1,t1
  10d6c0:	14400007 	bnez	v0,10d6e0 <$L54>
  10d6c4:	248bffff 	addiu	t3,a0,-1
  10d6c8:	0067102b 	sltu	v0,v1,a3
  10d6cc:	50400005 	beqzl	v0,10d6e4 <$L116>
  10d6d0:	00671823 	subu	v1,v1,a3
  10d6d4:	256bffff 	addiu	t3,t3,-1
  10d6d8:	00691821 	addu	v1,v1,t1
  10d6dc:	00000000 	nop

0010d6e0 <$L54>:
  10d6e0:	00671823 	subu	v1,v1,a3

0010d6e4 <$L116>:
  10d6e4:	31a4ffff 	andi	a0,t5,0xffff
  10d6e8:	006a001b 	divu	zero,v1,t2
  10d6ec:	51400001 	beqzl	t2,10d6f4 <$L116+0x10>
  10d6f0:	000001cd 	break	0x7
  10d6f4:	00001012 	mflo	v0
  10d6f8:	00001810 	mfhi	v1
  10d6fc:	00031c00 	sll	v1,v1,0x10
  10d700:	00641825 	or	v1,v1,a0
  10d704:	00004012 	mflo	t0
  10d708:	00593818 	mult	a3,v0,t9
  10d70c:	0067102b 	sltu	v0,v1,a3
  10d710:	1040000c 	beqz	v0,10d744 <$L117>
  10d714:	000b1400 	sll	v0,t3,0x10
  10d718:	00691821 	addu	v1,v1,t1
  10d71c:	0069102b 	sltu	v0,v1,t1
  10d720:	14400007 	bnez	v0,10d740 <$L57>
  10d724:	2508ffff 	addiu	t0,t0,-1
  10d728:	0067102b 	sltu	v0,v1,a3
  10d72c:	10400005 	beqz	v0,10d744 <$L117>
  10d730:	000b1400 	sll	v0,t3,0x10
  10d734:	00691821 	addu	v1,v1,t1
  10d738:	2508ffff 	addiu	t0,t0,-1
  10d73c:	00000000 	nop

0010d740 <$L57>:
  10d740:	000b1400 	sll	v0,t3,0x10

0010d744 <$L117>:
  10d744:	00676823 	subu	t5,v1,a3
  10d748:	1000ff8d 	b	10d580 <$L27>
  10d74c:	00485025 	or	t2,v0,t0

0010d750 <$L44>:
  10d750:	01e94804 	sllv	t1,t1,t7

0010d754 <$LM71>:
  10d754:	03082806 	srlv	a1,t0,t8

0010d758 <$LBB65>:
  10d758:	00095402 	srl	t2,t1,0x10
  10d75c:	00aa001b 	divu	zero,a1,t2
  10d760:	3139ffff 	andi	t9,t1,0xffff

0010d764 <$LBE65>:
  10d764:	030d1806 	srlv	v1,t5,t8
  10d768:	01e81004 	sllv	v0,t0,t7
  10d76c:	00434025 	or	t0,v0,v1

0010d770 <$LBB66>:
  10d770:	51400001 	beqzl	t2,10d778 <$LBB66+0x8>
  10d774:	000001cd 	break	0x7
  10d778:	00081c02 	srl	v1,t0,0x10
  10d77c:	0140582d 	move	t3,t2

0010d780 <$LBE66>:
  10d780:	01ed6804 	sllv	t5,t5,t7

0010d784 <$LBB67>:
  10d784:	00002812 	mflo	a1
  10d788:	00002010 	mfhi	a0

0010d78c <$LBB68>:
  10d78c:	00042400 	sll	a0,a0,0x10
  10d790:	00831825 	or	v1,a0,v1
  10d794:	0000c012 	mflo	t8
  10d798:	00b93818 	mult	a3,a1,t9
  10d79c:	0067102b 	sltu	v0,v1,a3
  10d7a0:	1040000b 	beqz	v0,10d7d0 <$L47>
  10d7a4:	0320802d 	move	s0,t9
  10d7a8:	00691821 	addu	v1,v1,t1
  10d7ac:	0069102b 	sltu	v0,v1,t1
  10d7b0:	14400007 	bnez	v0,10d7d0 <$L47>
  10d7b4:	24b8ffff 	addiu	t8,a1,-1
  10d7b8:	0067102b 	sltu	v0,v1,a3
  10d7bc:	50400005 	beqzl	v0,10d7d4 <$L118>
  10d7c0:	00671823 	subu	v1,v1,a3
  10d7c4:	2718ffff 	addiu	t8,t8,-1
  10d7c8:	00691821 	addu	v1,v1,t1
  10d7cc:	00000000 	nop

0010d7d0 <$L47>:
  10d7d0:	00671823 	subu	v1,v1,a3

0010d7d4 <$L118>:
  10d7d4:	3104ffff 	andi	a0,t0,0xffff
  10d7d8:	006b001b 	divu	zero,v1,t3
  10d7dc:	51600001 	beqzl	t3,10d7e4 <$L118+0x10>
  10d7e0:	000001cd 	break	0x7
  10d7e4:	00001012 	mflo	v0
  10d7e8:	00001810 	mfhi	v1
  10d7ec:	00031c00 	sll	v1,v1,0x10
  10d7f0:	00641825 	or	v1,v1,a0
  10d7f4:	00002812 	mflo	a1
  10d7f8:	00503818 	mult	a3,v0,s0
  10d7fc:	0067102b 	sltu	v0,v1,a3
  10d800:	1040000c 	beqz	v0,10d834 <$L119>
  10d804:	00181400 	sll	v0,t8,0x10
  10d808:	00691821 	addu	v1,v1,t1
  10d80c:	0069102b 	sltu	v0,v1,t1
  10d810:	14400007 	bnez	v0,10d830 <$L50>
  10d814:	24a5ffff 	addiu	a1,a1,-1
  10d818:	0067102b 	sltu	v0,v1,a3
  10d81c:	10400005 	beqz	v0,10d834 <$L119>
  10d820:	00181400 	sll	v0,t8,0x10
  10d824:	24a5ffff 	addiu	a1,a1,-1
  10d828:	00691821 	addu	v1,v1,t1
  10d82c:	00000000 	nop

0010d830 <$L50>:
  10d830:	00181400 	sll	v0,t8,0x10

0010d834 <$L119>:
  10d834:	00674023 	subu	t0,v1,a3
  10d838:	1000ff92 	b	10d684 <$L45>
  10d83c:	00458025 	or	s0,v0,a1

0010d840 <$L31>:
  10d840:	24030010 	li	v1,16
  10d844:	3442ffff 	ori	v0,v0,0xffff
  10d848:	24040018 	li	a0,24
  10d84c:	0049102b 	sltu	v0,v0,t1
  10d850:	0060282d 	move	a1,v1
  10d854:	1000ff7d 	b	10d64c <$L32>
  10d858:	0082280b 	movn	a1,a0,v0
  10d85c:	00000000 	nop

0010d860 <$L2>:
  10d860:	0107102b 	sltu	v0,t0,a3
  10d864:	1440001f 	bnez	v0,10d8e4 <$L120>
  10d868:	0000502d 	move	t2,zero

0010d86c <$LBB70>:
  10d86c:	3402ffff 	li	v0,0xffff
  10d870:	0047102b 	sltu	v0,v0,a3
  10d874:	1440008c 	bnez	v0,10daa8 <$L67>
  10d878:	3c0200ff 	lui	v0,0xff
  10d87c:	24020008 	li	v0,8
  10d880:	2ce30100 	sltiu	v1,a3,256
  10d884:	0040282d 	move	a1,v0
  10d888:	0003280b 	movn	a1,zero,v1

0010d88c <$L68>:
  10d88c:	3c030011 	lui	v1,0x11
  10d890:	00a71006 	srlv	v0,a3,a1
  10d894:	2463fd88 	addiu	v1,v1,-632
  10d898:	240a0020 	li	t2,32
  10d89c:	00431021 	addu	v0,v0,v1
  10d8a0:	90440000 	lbu	a0,0(v0)
  10d8a4:	00852021 	addu	a0,a0,a1
  10d8a8:	01447823 	subu	t7,t2,a0

0010d8ac <$LBE70>:
  10d8ac:	15e0001c 	bnez	t7,10d920 <$L80>
  10d8b0:	014fc023 	subu	t8,t2,t7

0010d8b4 <$LM80>:
  10d8b4:	00e8102b 	sltu	v0,a3,t0
  10d8b8:	14400005 	bnez	v0,10d8d0 <$L121>
  10d8bc:	01a92023 	subu	a0,t5,t1
  10d8c0:	01a9102b 	sltu	v0,t5,t1
  10d8c4:	14400007 	bnez	v0,10d8e4 <$L120>
  10d8c8:	0000502d 	move	t2,zero

0010d8cc <$LBB71>:
  10d8cc:	01a92023 	subu	a0,t5,t1

0010d8d0 <$L121>:
  10d8d0:	01071823 	subu	v1,t0,a3
  10d8d4:	01a4102b 	sltu	v0,t5,a0

0010d8d8 <$LBE71>:
  10d8d8:	240a0001 	li	t2,1

0010d8dc <$LBB72>:
  10d8dc:	00624023 	subu	t0,v1,v0
  10d8e0:	0080682d 	move	t5,a0

0010d8e4 <$L120>:
  10d8e4:	10c0ff32 	beqz	a2,10d5b0 <$L61>
  10d8e8:	0000802d 	move	s0,zero

0010d8ec <$LM85>:
  10d8ec:	2403ffff 	li	v1,-1
  10d8f0:	0003183c 	dsll32	v1,v1,0x0
  10d8f4:	000d103c 	dsll32	v0,t5,0x0
  10d8f8:	0002103e 	dsrl32	v0,v0,0x0
  10d8fc:	01836024 	and	t4,t4,v1
  10d900:	01826025 	or	t4,t4,v0

0010d904 <$LM86>:
  10d904:	0008183c 	dsll32	v1,t0,0x0
  10d908:	3c02ffff 	lui	v0,0xffff
  10d90c:	0002103e 	dsrl32	v0,v0,0x0
  10d910:	01826024 	and	t4,t4,v0

0010d914 <$LM87>:
  10d914:	1000ff25 	b	10d5ac <$L109>
  10d918:	01836025 	or	t4,t4,v1

0010d91c <$LM88>:
  10d91c:	00000000 	nop

0010d920 <$L80>:
  10d920:	01e71804 	sllv	v1,a3,t7
  10d924:	03091006 	srlv	v0,t1,t8

0010d928 <$LM91>:
  10d928:	03082806 	srlv	a1,t0,t8

0010d92c <$LM92>:
  10d92c:	00623825 	or	a3,v1,v0

0010d930 <$LM93>:
  10d930:	01e82004 	sllv	a0,t0,t7

0010d934 <$LBB74>:
  10d934:	00075402 	srl	t2,a3,0x10
  10d938:	30f0ffff 	andi	s0,a3,0xffff
  10d93c:	00aa001b 	divu	zero,a1,t2

0010d940 <$LBE74>:
  10d940:	030d1006 	srlv	v0,t5,t8
  10d944:	00824025 	or	t0,a0,v0

0010d948 <$LBB75>:
  10d948:	51400001 	beqzl	t2,10d950 <$LBB75+0x8>
  10d94c:	000001cd 	break	0x7
  10d950:	00082402 	srl	a0,t0,0x10

0010d954 <$LBE75>:
  10d954:	01e94804 	sllv	t1,t1,t7

0010d958 <$LBB76>:
  10d958:	00002812 	mflo	a1
  10d95c:	00001810 	mfhi	v1

0010d960 <$LBB78>:
  10d960:	00031c00 	sll	v1,v1,0x10
  10d964:	00641825 	or	v1,v1,a0
  10d968:	0000c812 	mflo	t9
  10d96c:	00b05818 	mult	t3,a1,s0
  10d970:	006b102b 	sltu	v0,v1,t3
  10d974:	1040000a 	beqz	v0,10d9a0 <$L88>
  10d978:	01ed6804 	sllv	t5,t5,t7
  10d97c:	00671821 	addu	v1,v1,a3
  10d980:	0067102b 	sltu	v0,v1,a3
  10d984:	14400006 	bnez	v0,10d9a0 <$L88>
  10d988:	24b9ffff 	addiu	t9,a1,-1
  10d98c:	006b102b 	sltu	v0,v1,t3
  10d990:	50400004 	beqzl	v0,10d9a4 <$L122>
  10d994:	006b1823 	subu	v1,v1,t3
  10d998:	2739ffff 	addiu	t9,t9,-1
  10d99c:	00671821 	addu	v1,v1,a3

0010d9a0 <$L88>:
  10d9a0:	006b1823 	subu	v1,v1,t3

0010d9a4 <$L122>:
  10d9a4:	3104ffff 	andi	a0,t0,0xffff
  10d9a8:	006a001b 	divu	zero,v1,t2
  10d9ac:	51400001 	beqzl	t2,10d9b4 <$L122+0x10>
  10d9b0:	000001cd 	break	0x7
  10d9b4:	00001012 	mflo	v0
  10d9b8:	00001810 	mfhi	v1
  10d9bc:	00031c00 	sll	v1,v1,0x10
  10d9c0:	00642825 	or	a1,v1,a0
  10d9c4:	00004012 	mflo	t0
  10d9c8:	00505818 	mult	t3,v0,s0
  10d9cc:	00ab102b 	sltu	v0,a1,t3
  10d9d0:	1040000c 	beqz	v0,10da04 <$L123>
  10d9d4:	00191400 	sll	v0,t9,0x10
  10d9d8:	00a72821 	addu	a1,a1,a3
  10d9dc:	00a7102b 	sltu	v0,a1,a3
  10d9e0:	14400007 	bnez	v0,10da00 <$L91>
  10d9e4:	2508ffff 	addiu	t0,t0,-1
  10d9e8:	00ab102b 	sltu	v0,a1,t3
  10d9ec:	10400005 	beqz	v0,10da04 <$L123>
  10d9f0:	00191400 	sll	v0,t9,0x10
  10d9f4:	2508ffff 	addiu	t0,t0,-1
  10d9f8:	00a72821 	addu	a1,a1,a3
  10d9fc:	00000000 	nop

0010da00 <$L91>:
  10da00:	00191400 	sll	v0,t9,0x10

0010da04 <$L123>:
  10da04:	00ab2823 	subu	a1,a1,t3
  10da08:	00485025 	or	t2,v0,t0

0010da0c <$LBE78>:
  10da0c:	01490019 	multu	t2,t1
  10da10:	00001810 	mfhi	v1
  10da14:	00005812 	mflo	t3

0010da18 <$LM102>:
  10da18:	00a3102b 	sltu	v0,a1,v1
  10da1c:	1440001b 	bnez	v0,10da8c <$L124>
  10da20:	01692023 	subu	a0,t3,t1
  10da24:	10650017 	beq	v1,a1,10da84 <$L111>
  10da28:	01ab102b 	sltu	v0,t5,t3

0010da2c <$L94>:
  10da2c:	10c0fee0 	beqz	a2,10d5b0 <$L61>
  10da30:	0000802d 	move	s0,zero

0010da34 <$LBB79>:
  10da34:	01ab2023 	subu	a0,t5,t3
  10da38:	00a32823 	subu	a1,a1,v1
  10da3c:	01a4182b 	sltu	v1,t5,a0

0010da40 <$LBE79>:
  10da40:	01e42006 	srlv	a0,a0,t7

0010da44 <$LBB80>:
  10da44:	00a34023 	subu	t0,a1,v1

0010da48 <$LBE80>:
  10da48:	2403ffff 	li	v1,-1
  10da4c:	0003183c 	dsll32	v1,v1,0x0
  10da50:	03081004 	sllv	v0,t0,t8
  10da54:	01836024 	and	t4,t4,v1
  10da58:	00441025 	or	v0,v0,a0

0010da5c <$LM108>:
  10da5c:	01e82806 	srlv	a1,t0,t7

0010da60 <$LM109>:
  10da60:	0002103c 	dsll32	v0,v0,0x0

0010da64 <$LM110>:
  10da64:	3c03ffff 	lui	v1,0xffff
  10da68:	0003183e 	dsrl32	v1,v1,0x0

0010da6c <$LM111>:
  10da6c:	0002103e 	dsrl32	v0,v0,0x0

0010da70 <$LM112>:
  10da70:	0005283c 	dsll32	a1,a1,0x0

0010da74 <$LM113>:
  10da74:	01826025 	or	t4,t4,v0

0010da78 <$LM114>:
  10da78:	01836024 	and	t4,t4,v1
  10da7c:	1000fecb 	b	10d5ac <$L109>
  10da80:	01856025 	or	t4,t4,a1

0010da84 <$L111>:
  10da84:	1040ffe9 	beqz	v0,10da2c <$L94>
  10da88:	01692023 	subu	a0,t3,t1

0010da8c <$L124>:
  10da8c:	00671823 	subu	v1,v1,a3
  10da90:	0164102b 	sltu	v0,t3,a0

0010da94 <$LBE81>:
  10da94:	254affff 	addiu	t2,t2,-1

0010da98 <$LBB82>:
  10da98:	00621823 	subu	v1,v1,v0
  10da9c:	1000ffe3 	b	10da2c <$L94>
  10daa0:	0080582d 	move	t3,a0
  10daa4:	00000000 	nop

0010daa8 <$L67>:
  10daa8:	24030010 	li	v1,16
  10daac:	3442ffff 	ori	v0,v0,0xffff
  10dab0:	24040018 	li	a0,24
  10dab4:	0047102b 	sltu	v0,v0,a3
  10dab8:	0060282d 	move	a1,v1
  10dabc:	1000ff73 	b	10d88c <$L68>
  10dac0:	0082280b 	movn	a1,a0,v0

0010dac4 <$LBE83>:
  10dac4:	00000000 	nop

0010dac8 <__udivdi3>:
  10dac8:	27bdfff0 	addiu	sp,sp,-16

0010dacc <$LM2>:
  10dacc:	ffbf0000 	sd	ra,0(sp)

0010dad0 <$LM3>:
  10dad0:	0c0436ba 	jal	10dae8 <__udivmoddi4>
  10dad4:	0000302d 	move	a2,zero
  10dad8:	dfbf0000 	ld	ra,0(sp)
  10dadc:	03e00008 	jr	ra
  10dae0:	27bd0010 	addiu	sp,sp,16

0010dae4 <$LFE1>:
  10dae4:	00000000 	nop

0010dae8 <__udivmoddi4>:
  10dae8:	27bdfff0 	addiu	sp,sp,-16

0010daec <$LM5>:
  10daec:	0005383f 	dsra32	a3,a1,0x0

0010daf0 <$LM6>:
  10daf0:	0004403f 	dsra32	t0,a0,0x0

0010daf4 <$LM8>:
  10daf4:	0005483c 	dsll32	t1,a1,0x0
  10daf8:	0009483f 	dsra32	t1,t1,0x0

0010dafc <$LM9>:
  10dafc:	0004683c 	dsll32	t5,a0,0x0
  10db00:	000d683f 	dsra32	t5,t5,0x0

0010db04 <$LM10>:
  10db04:	14e00108 	bnez	a3,10df28 <$L2>
  10db08:	ffb00000 	sd	s0,0(sp)

0010db0c <$LM11>:
  10db0c:	0109102b 	sltu	v0,t0,t1
  10db10:	10400071 	beqz	v0,10dcd8 <$L3>
  10db14:	3402ffff 	li	v0,0xffff

0010db18 <$LBB3>:
  10db18:	0049102b 	sltu	v0,v0,t1
  10db1c:	14400066 	bnez	v0,10dcb8 <$L6>
  10db20:	3c0200ff 	lui	v0,0xff
  10db24:	24020008 	li	v0,8
  10db28:	2d230100 	sltiu	v1,t1,256
  10db2c:	0040282d 	move	a1,v0
  10db30:	0003280b 	movn	a1,zero,v1

0010db34 <$L7>:
  10db34:	3c030011 	lui	v1,0x11
  10db38:	00a91006 	srlv	v0,t1,a1
  10db3c:	2463fd88 	addiu	v1,v1,-632
  10db40:	24070020 	li	a3,32
  10db44:	00431021 	addu	v0,v0,v1
  10db48:	90440000 	lbu	a0,0(v0)
  10db4c:	00852021 	addu	a0,a0,a1
  10db50:	00e47823 	subu	t7,a3,a0

0010db54 <$LBE3>:
  10db54:	51e00008 	beqzl	t7,10db78 <$L103>
  10db58:	00093c02 	srl	a3,t1,0x10

0010db5c <$LM14>:
  10db5c:	00ef1023 	subu	v0,a3,t7
  10db60:	01e81804 	sllv	v1,t0,t7
  10db64:	004d1006 	srlv	v0,t5,v0

0010db68 <$LM15>:
  10db68:	01e94804 	sllv	t1,t1,t7

0010db6c <$LM16>:
  10db6c:	00624025 	or	t0,v1,v0

0010db70 <$LM17>:
  10db70:	01ed6804 	sllv	t5,t5,t7

0010db74 <$LBB4>:
  10db74:	00093c02 	srl	a3,t1,0x10

0010db78 <$L103>:
  10db78:	312affff 	andi	t2,t1,0xffff
  10db7c:	0107001b 	divu	zero,t0,a3
  10db80:	000d2402 	srl	a0,t5,0x10
  10db84:	50e00001 	beqzl	a3,10db8c <$L103+0x14>
  10db88:	000001cd 	break	0x7
  10db8c:	00001012 	mflo	v0
  10db90:	00001810 	mfhi	v1
  10db94:	00031c00 	sll	v1,v1,0x10
  10db98:	00641825 	or	v1,v1,a0
  10db9c:	00002812 	mflo	a1
  10dba0:	004a4018 	mult	t0,v0,t2
  10dba4:	0068102b 	sltu	v0,v1,t0
  10dba8:	5040000c 	beqzl	v0,10dbdc <$L104>
  10dbac:	00681823 	subu	v1,v1,t0
  10dbb0:	00691821 	addu	v1,v1,t1
  10dbb4:	0069102b 	sltu	v0,v1,t1
  10dbb8:	14400007 	bnez	v0,10dbd8 <$L21>
  10dbbc:	24a5ffff 	addiu	a1,a1,-1
  10dbc0:	0068102b 	sltu	v0,v1,t0
  10dbc4:	50400005 	beqzl	v0,10dbdc <$L104>
  10dbc8:	00681823 	subu	v1,v1,t0
  10dbcc:	24a5ffff 	addiu	a1,a1,-1
  10dbd0:	00691821 	addu	v1,v1,t1
  10dbd4:	00000000 	nop

0010dbd8 <$L21>:
  10dbd8:	00681823 	subu	v1,v1,t0

0010dbdc <$L104>:
  10dbdc:	50e00001 	beqzl	a3,10dbe4 <$L104+0x8>
  10dbe0:	000001cd 	break	0x7
  10dbe4:	0067001b 	divu	zero,v1,a3
  10dbe8:	31a4ffff 	andi	a0,t5,0xffff
  10dbec:	00001012 	mflo	v0
  10dbf0:	00001810 	mfhi	v1
  10dbf4:	00031c00 	sll	v1,v1,0x10
  10dbf8:	00641825 	or	v1,v1,a0
  10dbfc:	00003812 	mflo	a3
  10dc00:	004a4018 	mult	t0,v0,t2
  10dc04:	0068102b 	sltu	v0,v1,t0
  10dc08:	1040000c 	beqz	v0,10dc3c <$L105>
  10dc0c:	00051400 	sll	v0,a1,0x10
  10dc10:	00691821 	addu	v1,v1,t1
  10dc14:	0069102b 	sltu	v0,v1,t1
  10dc18:	14400007 	bnez	v0,10dc38 <$L24>
  10dc1c:	24e7ffff 	addiu	a3,a3,-1
  10dc20:	0068102b 	sltu	v0,v1,t0
  10dc24:	10400005 	beqz	v0,10dc3c <$L105>
  10dc28:	00051400 	sll	v0,a1,0x10
  10dc2c:	00691821 	addu	v1,v1,t1
  10dc30:	24e7ffff 	addiu	a3,a3,-1
  10dc34:	00000000 	nop

0010dc38 <$L24>:
  10dc38:	00051400 	sll	v0,a1,0x10

0010dc3c <$L105>:
  10dc3c:	00686823 	subu	t5,v1,t0
  10dc40:	00475025 	or	t2,v0,a3

0010dc44 <$LBE4>:
  10dc44:	0000802d 	move	s0,zero

0010dc48 <$L27>:
  10dc48:	10c0000b 	beqz	a2,10dc78 <$L61>
  10dc4c:	01ed1006 	srlv	v0,t5,t7

0010dc50 <$LM21>:
  10dc50:	2403ffff 	li	v1,-1
  10dc54:	0003183c 	dsll32	v1,v1,0x0
  10dc58:	0002103c 	dsll32	v0,v0,0x0
  10dc5c:	01836024 	and	t4,t4,v1
  10dc60:	0002103e 	dsrl32	v0,v0,0x0

0010dc64 <$LM22>:
  10dc64:	3c03ffff 	lui	v1,0xffff
  10dc68:	0003183e 	dsrl32	v1,v1,0x0

0010dc6c <$LM23>:
  10dc6c:	01826025 	or	t4,t4,v0

0010dc70 <$LM24>:
  10dc70:	01836024 	and	t4,t4,v1

0010dc74 <$L100>:
  10dc74:	fccc0000 	sd	t4,0(a2)

0010dc78 <$L61>:
  10dc78:	000a103c 	dsll32	v0,t2,0x0
  10dc7c:	2403ffff 	li	v1,-1
  10dc80:	0003183c 	dsll32	v1,v1,0x0
  10dc84:	0002103e 	dsrl32	v0,v0,0x0
  10dc88:	01c37024 	and	t6,t6,v1
  10dc8c:	01c27025 	or	t6,t6,v0

0010dc90 <$LM27>:
  10dc90:	0010183c 	dsll32	v1,s0,0x0
  10dc94:	3c02ffff 	lui	v0,0xffff
  10dc98:	0002103e 	dsrl32	v0,v0,0x0

0010dc9c <$LM28>:
  10dc9c:	dfb00000 	ld	s0,0(sp)

0010dca0 <$LM29>:
  10dca0:	01c27024 	and	t6,t6,v0
  10dca4:	01c37025 	or	t6,t6,v1

0010dca8 <$LM30>:
  10dca8:	01c0102d 	move	v0,t6
  10dcac:	03e00008 	jr	ra
  10dcb0:	27bd0010 	addiu	sp,sp,16
  10dcb4:	00000000 	nop

0010dcb8 <$L6>:
  10dcb8:	24030010 	li	v1,16
  10dcbc:	3442ffff 	ori	v0,v0,0xffff
  10dcc0:	24040018 	li	a0,24
  10dcc4:	0049102b 	sltu	v0,v0,t1
  10dcc8:	0060282d 	move	a1,v1
  10dccc:	1000ff99 	b	10db34 <$L7>
  10dcd0:	0082280b 	movn	a1,a0,v0
  10dcd4:	00000000 	nop

0010dcd8 <$L3>:
  10dcd8:	15200008 	bnez	t1,10dcfc <$L116>
  10dcdc:	0049102b 	sltu	v0,v0,t1

0010dce0 <$LM32>:
  10dce0:	24020001 	li	v0,1
  10dce4:	51200001 	beqzl	t1,10dcec <$LM32+0xc>
  10dce8:	000001cd 	break	0x7
  10dcec:	0047001b 	divu	zero,v0,a3
  10dcf0:	00004812 	mflo	t1

0010dcf4 <$LBB9>:
  10dcf4:	3402ffff 	li	v0,0xffff
  10dcf8:	0049102b 	sltu	v0,v0,t1

0010dcfc <$L116>:
  10dcfc:	14400082 	bnez	v0,10df08 <$L31>
  10dd00:	3c0200ff 	lui	v0,0xff
  10dd04:	24020008 	li	v0,8
  10dd08:	2d230100 	sltiu	v1,t1,256
  10dd0c:	0040282d 	move	a1,v0
  10dd10:	0003280b 	movn	a1,zero,v1

0010dd14 <$L32>:
  10dd14:	3c030011 	lui	v1,0x11
  10dd18:	00a91006 	srlv	v0,t1,a1
  10dd1c:	2463fd88 	addiu	v1,v1,-632
  10dd20:	24070020 	li	a3,32
  10dd24:	00431021 	addu	v0,v0,v1
  10dd28:	90440000 	lbu	a0,0(v0)
  10dd2c:	00852021 	addu	a0,a0,a1
  10dd30:	00e47823 	subu	t7,a3,a0

0010dd34 <$LBE9>:
  10dd34:	15e00038 	bnez	t7,10de18 <$L44>
  10dd38:	00efc023 	subu	t8,a3,t7

0010dd3c <$LM35>:
  10dd3c:	01094023 	subu	t0,t0,t1

0010dd40 <$LM36>:
  10dd40:	24100001 	li	s0,1
  10dd44:	00095402 	srl	t2,t1,0x10
  10dd48:	3139ffff 	andi	t9,t1,0xffff

0010dd4c <$L45>:
  10dd4c:	010a001b 	divu	zero,t0,t2
  10dd50:	000d2c02 	srl	a1,t5,0x10
  10dd54:	51400001 	beqzl	t2,10dd5c <$L45+0x10>
  10dd58:	000001cd 	break	0x7
  10dd5c:	00002012 	mflo	a0
  10dd60:	00001810 	mfhi	v1
  10dd64:	00031c00 	sll	v1,v1,0x10
  10dd68:	00651825 	or	v1,v1,a1
  10dd6c:	00005812 	mflo	t3
  10dd70:	00993818 	mult	a3,a0,t9
  10dd74:	0067102b 	sltu	v0,v1,a3
  10dd78:	5040000c 	beqzl	v0,10ddac <$L107>
  10dd7c:	00671823 	subu	v1,v1,a3
  10dd80:	00691821 	addu	v1,v1,t1
  10dd84:	0069102b 	sltu	v0,v1,t1
  10dd88:	14400007 	bnez	v0,10dda8 <$L54>
  10dd8c:	248bffff 	addiu	t3,a0,-1
  10dd90:	0067102b 	sltu	v0,v1,a3
  10dd94:	50400005 	beqzl	v0,10ddac <$L107>
  10dd98:	00671823 	subu	v1,v1,a3
  10dd9c:	256bffff 	addiu	t3,t3,-1
  10dda0:	00691821 	addu	v1,v1,t1
  10dda4:	00000000 	nop

0010dda8 <$L54>:
  10dda8:	00671823 	subu	v1,v1,a3

0010ddac <$L107>:
  10ddac:	31a4ffff 	andi	a0,t5,0xffff
  10ddb0:	006a001b 	divu	zero,v1,t2
  10ddb4:	51400001 	beqzl	t2,10ddbc <$L107+0x10>
  10ddb8:	000001cd 	break	0x7
  10ddbc:	00001012 	mflo	v0
  10ddc0:	00001810 	mfhi	v1
  10ddc4:	00031c00 	sll	v1,v1,0x10
  10ddc8:	00641825 	or	v1,v1,a0
  10ddcc:	00004012 	mflo	t0
  10ddd0:	00593818 	mult	a3,v0,t9
  10ddd4:	0067102b 	sltu	v0,v1,a3
  10ddd8:	1040000c 	beqz	v0,10de0c <$L108>
  10dddc:	000b1400 	sll	v0,t3,0x10
  10dde0:	00691821 	addu	v1,v1,t1
  10dde4:	0069102b 	sltu	v0,v1,t1
  10dde8:	14400007 	bnez	v0,10de08 <$L57>
  10ddec:	2508ffff 	addiu	t0,t0,-1
  10ddf0:	0067102b 	sltu	v0,v1,a3
  10ddf4:	10400005 	beqz	v0,10de0c <$L108>
  10ddf8:	000b1400 	sll	v0,t3,0x10
  10ddfc:	00691821 	addu	v1,v1,t1
  10de00:	2508ffff 	addiu	t0,t0,-1
  10de04:	00000000 	nop

0010de08 <$L57>:
  10de08:	000b1400 	sll	v0,t3,0x10

0010de0c <$L108>:
  10de0c:	00676823 	subu	t5,v1,a3
  10de10:	1000ff8d 	b	10dc48 <$L27>
  10de14:	00485025 	or	t2,v0,t0

0010de18 <$L44>:
  10de18:	01e94804 	sllv	t1,t1,t7

0010de1c <$LM40>:
  10de1c:	03082806 	srlv	a1,t0,t8

0010de20 <$LBB11>:
  10de20:	00095402 	srl	t2,t1,0x10
  10de24:	00aa001b 	divu	zero,a1,t2
  10de28:	3139ffff 	andi	t9,t1,0xffff

0010de2c <$LBE11>:
  10de2c:	030d1806 	srlv	v1,t5,t8
  10de30:	01e81004 	sllv	v0,t0,t7
  10de34:	00434025 	or	t0,v0,v1

0010de38 <$LBB12>:
  10de38:	51400001 	beqzl	t2,10de40 <$LBB12+0x8>
  10de3c:	000001cd 	break	0x7
  10de40:	00081c02 	srl	v1,t0,0x10
  10de44:	0140582d 	move	t3,t2

0010de48 <$LBE12>:
  10de48:	01ed6804 	sllv	t5,t5,t7

0010de4c <$LBB13>:
  10de4c:	00002812 	mflo	a1
  10de50:	00002010 	mfhi	a0

0010de54 <$LBB14>:
  10de54:	00042400 	sll	a0,a0,0x10
  10de58:	00831825 	or	v1,a0,v1
  10de5c:	0000c012 	mflo	t8
  10de60:	00b93818 	mult	a3,a1,t9
  10de64:	0067102b 	sltu	v0,v1,a3
  10de68:	1040000b 	beqz	v0,10de98 <$L47>
  10de6c:	0320802d 	move	s0,t9
  10de70:	00691821 	addu	v1,v1,t1
  10de74:	0069102b 	sltu	v0,v1,t1
  10de78:	14400007 	bnez	v0,10de98 <$L47>
  10de7c:	24b8ffff 	addiu	t8,a1,-1
  10de80:	0067102b 	sltu	v0,v1,a3
  10de84:	50400005 	beqzl	v0,10de9c <$L109>
  10de88:	00671823 	subu	v1,v1,a3
  10de8c:	2718ffff 	addiu	t8,t8,-1
  10de90:	00691821 	addu	v1,v1,t1
  10de94:	00000000 	nop

0010de98 <$L47>:
  10de98:	00671823 	subu	v1,v1,a3

0010de9c <$L109>:
  10de9c:	3104ffff 	andi	a0,t0,0xffff
  10dea0:	006b001b 	divu	zero,v1,t3
  10dea4:	51600001 	beqzl	t3,10deac <$L109+0x10>
  10dea8:	000001cd 	break	0x7
  10deac:	00001012 	mflo	v0
  10deb0:	00001810 	mfhi	v1
  10deb4:	00031c00 	sll	v1,v1,0x10
  10deb8:	00641825 	or	v1,v1,a0
  10debc:	00002812 	mflo	a1
  10dec0:	00503818 	mult	a3,v0,s0
  10dec4:	0067102b 	sltu	v0,v1,a3
  10dec8:	1040000c 	beqz	v0,10defc <$L110>
  10decc:	00181400 	sll	v0,t8,0x10
  10ded0:	00691821 	addu	v1,v1,t1
  10ded4:	0069102b 	sltu	v0,v1,t1
  10ded8:	14400007 	bnez	v0,10def8 <$L50>
  10dedc:	24a5ffff 	addiu	a1,a1,-1
  10dee0:	0067102b 	sltu	v0,v1,a3
  10dee4:	10400005 	beqz	v0,10defc <$L110>
  10dee8:	00181400 	sll	v0,t8,0x10
  10deec:	24a5ffff 	addiu	a1,a1,-1
  10def0:	00691821 	addu	v1,v1,t1
  10def4:	00000000 	nop

0010def8 <$L50>:
  10def8:	00181400 	sll	v0,t8,0x10

0010defc <$L110>:
  10defc:	00674023 	subu	t0,v1,a3
  10df00:	1000ff92 	b	10dd4c <$L45>
  10df04:	00458025 	or	s0,v0,a1

0010df08 <$L31>:
  10df08:	24030010 	li	v1,16
  10df0c:	3442ffff 	ori	v0,v0,0xffff
  10df10:	24040018 	li	a0,24
  10df14:	0049102b 	sltu	v0,v0,t1
  10df18:	0060282d 	move	a1,v1
  10df1c:	1000ff7d 	b	10dd14 <$L32>
  10df20:	0082280b 	movn	a1,a0,v0
  10df24:	00000000 	nop

0010df28 <$L2>:
  10df28:	0107102b 	sltu	v0,t0,a3
  10df2c:	1440001f 	bnez	v0,10dfac <$L111>
  10df30:	0000502d 	move	t2,zero

0010df34 <$LBB16>:
  10df34:	3402ffff 	li	v0,0xffff
  10df38:	0047102b 	sltu	v0,v0,a3
  10df3c:	1440008c 	bnez	v0,10e170 <$L67>
  10df40:	3c0200ff 	lui	v0,0xff
  10df44:	24020008 	li	v0,8
  10df48:	2ce30100 	sltiu	v1,a3,256
  10df4c:	0040282d 	move	a1,v0
  10df50:	0003280b 	movn	a1,zero,v1

0010df54 <$L68>:
  10df54:	3c030011 	lui	v1,0x11
  10df58:	00a71006 	srlv	v0,a3,a1
  10df5c:	2463fd88 	addiu	v1,v1,-632
  10df60:	240a0020 	li	t2,32
  10df64:	00431021 	addu	v0,v0,v1
  10df68:	90440000 	lbu	a0,0(v0)
  10df6c:	00852021 	addu	a0,a0,a1
  10df70:	01447823 	subu	t7,t2,a0

0010df74 <$LBE16>:
  10df74:	15e0001c 	bnez	t7,10dfe8 <$L80>
  10df78:	014fc023 	subu	t8,t2,t7

0010df7c <$LM49>:
  10df7c:	00e8102b 	sltu	v0,a3,t0
  10df80:	14400005 	bnez	v0,10df98 <$L112>
  10df84:	01a92023 	subu	a0,t5,t1
  10df88:	01a9102b 	sltu	v0,t5,t1
  10df8c:	14400007 	bnez	v0,10dfac <$L111>
  10df90:	0000502d 	move	t2,zero

0010df94 <$LBB17>:
  10df94:	01a92023 	subu	a0,t5,t1

0010df98 <$L112>:
  10df98:	01071823 	subu	v1,t0,a3
  10df9c:	01a4102b 	sltu	v0,t5,a0

0010dfa0 <$LBE17>:
  10dfa0:	240a0001 	li	t2,1

0010dfa4 <$LBB18>:
  10dfa4:	00624023 	subu	t0,v1,v0
  10dfa8:	0080682d 	move	t5,a0

0010dfac <$L111>:
  10dfac:	10c0ff32 	beqz	a2,10dc78 <$L61>
  10dfb0:	0000802d 	move	s0,zero

0010dfb4 <$LM54>:
  10dfb4:	2403ffff 	li	v1,-1
  10dfb8:	0003183c 	dsll32	v1,v1,0x0
  10dfbc:	000d103c 	dsll32	v0,t5,0x0
  10dfc0:	0002103e 	dsrl32	v0,v0,0x0
  10dfc4:	01836024 	and	t4,t4,v1
  10dfc8:	01826025 	or	t4,t4,v0

0010dfcc <$LM55>:
  10dfcc:	0008183c 	dsll32	v1,t0,0x0
  10dfd0:	3c02ffff 	lui	v0,0xffff
  10dfd4:	0002103e 	dsrl32	v0,v0,0x0
  10dfd8:	01826024 	and	t4,t4,v0

0010dfdc <$LM56>:
  10dfdc:	1000ff25 	b	10dc74 <$L100>
  10dfe0:	01836025 	or	t4,t4,v1

0010dfe4 <$LM57>:
  10dfe4:	00000000 	nop

0010dfe8 <$L80>:
  10dfe8:	01e71804 	sllv	v1,a3,t7
  10dfec:	03091006 	srlv	v0,t1,t8

0010dff0 <$LM60>:
  10dff0:	03082806 	srlv	a1,t0,t8

0010dff4 <$LM61>:
  10dff4:	00623825 	or	a3,v1,v0

0010dff8 <$LM62>:
  10dff8:	01e82004 	sllv	a0,t0,t7

0010dffc <$LBB20>:
  10dffc:	00075402 	srl	t2,a3,0x10
  10e000:	30f0ffff 	andi	s0,a3,0xffff
  10e004:	00aa001b 	divu	zero,a1,t2

0010e008 <$LBE20>:
  10e008:	030d1006 	srlv	v0,t5,t8
  10e00c:	00824025 	or	t0,a0,v0

0010e010 <$LBB21>:
  10e010:	51400001 	beqzl	t2,10e018 <$LBB21+0x8>
  10e014:	000001cd 	break	0x7
  10e018:	00082402 	srl	a0,t0,0x10

0010e01c <$LBE21>:
  10e01c:	01e94804 	sllv	t1,t1,t7

0010e020 <$LBB22>:
  10e020:	00002812 	mflo	a1
  10e024:	00001810 	mfhi	v1

0010e028 <$LBB24>:
  10e028:	00031c00 	sll	v1,v1,0x10
  10e02c:	00641825 	or	v1,v1,a0
  10e030:	0000c812 	mflo	t9
  10e034:	00b05818 	mult	t3,a1,s0
  10e038:	006b102b 	sltu	v0,v1,t3
  10e03c:	1040000a 	beqz	v0,10e068 <$L88>
  10e040:	01ed6804 	sllv	t5,t5,t7
  10e044:	00671821 	addu	v1,v1,a3
  10e048:	0067102b 	sltu	v0,v1,a3
  10e04c:	14400006 	bnez	v0,10e068 <$L88>
  10e050:	24b9ffff 	addiu	t9,a1,-1
  10e054:	006b102b 	sltu	v0,v1,t3
  10e058:	50400004 	beqzl	v0,10e06c <$L113>
  10e05c:	006b1823 	subu	v1,v1,t3
  10e060:	2739ffff 	addiu	t9,t9,-1
  10e064:	00671821 	addu	v1,v1,a3

0010e068 <$L88>:
  10e068:	006b1823 	subu	v1,v1,t3

0010e06c <$L113>:
  10e06c:	3104ffff 	andi	a0,t0,0xffff
  10e070:	006a001b 	divu	zero,v1,t2
  10e074:	51400001 	beqzl	t2,10e07c <$L113+0x10>
  10e078:	000001cd 	break	0x7
  10e07c:	00001012 	mflo	v0
  10e080:	00001810 	mfhi	v1
  10e084:	00031c00 	sll	v1,v1,0x10
  10e088:	00642825 	or	a1,v1,a0
  10e08c:	00004012 	mflo	t0
  10e090:	00505818 	mult	t3,v0,s0
  10e094:	00ab102b 	sltu	v0,a1,t3
  10e098:	1040000c 	beqz	v0,10e0cc <$L114>
  10e09c:	00191400 	sll	v0,t9,0x10
  10e0a0:	00a72821 	addu	a1,a1,a3
  10e0a4:	00a7102b 	sltu	v0,a1,a3
  10e0a8:	14400007 	bnez	v0,10e0c8 <$L91>
  10e0ac:	2508ffff 	addiu	t0,t0,-1
  10e0b0:	00ab102b 	sltu	v0,a1,t3
  10e0b4:	10400005 	beqz	v0,10e0cc <$L114>
  10e0b8:	00191400 	sll	v0,t9,0x10
  10e0bc:	2508ffff 	addiu	t0,t0,-1
  10e0c0:	00a72821 	addu	a1,a1,a3
  10e0c4:	00000000 	nop

0010e0c8 <$L91>:
  10e0c8:	00191400 	sll	v0,t9,0x10

0010e0cc <$L114>:
  10e0cc:	00ab2823 	subu	a1,a1,t3
  10e0d0:	00485025 	or	t2,v0,t0

0010e0d4 <$LBE24>:
  10e0d4:	01490019 	multu	t2,t1
  10e0d8:	00001810 	mfhi	v1
  10e0dc:	00005812 	mflo	t3

0010e0e0 <$LM71>:
  10e0e0:	00a3102b 	sltu	v0,a1,v1
  10e0e4:	1440001b 	bnez	v0,10e154 <$L115>
  10e0e8:	01692023 	subu	a0,t3,t1
  10e0ec:	10650017 	beq	v1,a1,10e14c <$L102>
  10e0f0:	01ab102b 	sltu	v0,t5,t3

0010e0f4 <$L94>:
  10e0f4:	10c0fee0 	beqz	a2,10dc78 <$L61>
  10e0f8:	0000802d 	move	s0,zero

0010e0fc <$LBB25>:
  10e0fc:	01ab2023 	subu	a0,t5,t3
  10e100:	00a32823 	subu	a1,a1,v1
  10e104:	01a4182b 	sltu	v1,t5,a0

0010e108 <$LBE25>:
  10e108:	01e42006 	srlv	a0,a0,t7

0010e10c <$LBB26>:
  10e10c:	00a34023 	subu	t0,a1,v1

0010e110 <$LBE26>:
  10e110:	2403ffff 	li	v1,-1
  10e114:	0003183c 	dsll32	v1,v1,0x0
  10e118:	03081004 	sllv	v0,t0,t8
  10e11c:	01836024 	and	t4,t4,v1
  10e120:	00441025 	or	v0,v0,a0

0010e124 <$LM77>:
  10e124:	01e82806 	srlv	a1,t0,t7

0010e128 <$LM78>:
  10e128:	0002103c 	dsll32	v0,v0,0x0

0010e12c <$LM79>:
  10e12c:	3c03ffff 	lui	v1,0xffff
  10e130:	0003183e 	dsrl32	v1,v1,0x0

0010e134 <$LM80>:
  10e134:	0002103e 	dsrl32	v0,v0,0x0

0010e138 <$LM81>:
  10e138:	0005283c 	dsll32	a1,a1,0x0

0010e13c <$LM82>:
  10e13c:	01826025 	or	t4,t4,v0

0010e140 <$LM83>:
  10e140:	01836024 	and	t4,t4,v1
  10e144:	1000fecb 	b	10dc74 <$L100>
  10e148:	01856025 	or	t4,t4,a1

0010e14c <$L102>:
  10e14c:	1040ffe9 	beqz	v0,10e0f4 <$L94>
  10e150:	01692023 	subu	a0,t3,t1

0010e154 <$L115>:
  10e154:	00671823 	subu	v1,v1,a3
  10e158:	0164102b 	sltu	v0,t3,a0

0010e15c <$LBE27>:
  10e15c:	254affff 	addiu	t2,t2,-1

0010e160 <$LBB28>:
  10e160:	00621823 	subu	v1,v1,v0
  10e164:	1000ffe3 	b	10e0f4 <$L94>
  10e168:	0080582d 	move	t3,a0
  10e16c:	00000000 	nop

0010e170 <$L67>:
  10e170:	24030010 	li	v1,16
  10e174:	3442ffff 	ori	v0,v0,0xffff
  10e178:	24040018 	li	a0,24
  10e17c:	0047102b 	sltu	v0,v0,a3
  10e180:	0060282d 	move	a1,v1
  10e184:	1000ff73 	b	10df54 <$L68>
  10e188:	0082280b 	movn	a1,a0,v0

0010e18c <$LBE29>:
  10e18c:	00000000 	nop

0010e190 <__umoddi3>:
  10e190:	27bdffe0 	addiu	sp,sp,-32

0010e194 <$LM2>:
  10e194:	ffbf0010 	sd	ra,16(sp)

0010e198 <$LM4>:
  10e198:	0c04386c 	jal	10e1b0 <__udivmoddi4>
  10e19c:	03a0302d 	move	a2,sp

0010e1a0 <$LM5>:
  10e1a0:	dfbf0010 	ld	ra,16(sp)
  10e1a4:	dfa20000 	ld	v0,0(sp)
  10e1a8:	03e00008 	jr	ra
  10e1ac:	27bd0020 	addiu	sp,sp,32

0010e1b0 <__udivmoddi4>:
  10e1b0:	27bdfff0 	addiu	sp,sp,-16

0010e1b4 <$LM7>:
  10e1b4:	0005383f 	dsra32	a3,a1,0x0

0010e1b8 <$LM8>:
  10e1b8:	0004403f 	dsra32	t0,a0,0x0

0010e1bc <$LM10>:
  10e1bc:	0005483c 	dsll32	t1,a1,0x0
  10e1c0:	0009483f 	dsra32	t1,t1,0x0

0010e1c4 <$LM11>:
  10e1c4:	0004683c 	dsll32	t5,a0,0x0
  10e1c8:	000d683f 	dsra32	t5,t5,0x0

0010e1cc <$LM12>:
  10e1cc:	14e00108 	bnez	a3,10e5f0 <$L2>
  10e1d0:	ffb00000 	sd	s0,0(sp)

0010e1d4 <$LM13>:
  10e1d4:	0109102b 	sltu	v0,t0,t1
  10e1d8:	10400071 	beqz	v0,10e3a0 <$L3>
  10e1dc:	3402ffff 	li	v0,0xffff

0010e1e0 <$LBB4>:
  10e1e0:	0049102b 	sltu	v0,v0,t1
  10e1e4:	14400066 	bnez	v0,10e380 <$L6>
  10e1e8:	3c0200ff 	lui	v0,0xff
  10e1ec:	24020008 	li	v0,8
  10e1f0:	2d230100 	sltiu	v1,t1,256
  10e1f4:	0040282d 	move	a1,v0
  10e1f8:	0003280b 	movn	a1,zero,v1

0010e1fc <$L7>:
  10e1fc:	3c030011 	lui	v1,0x11
  10e200:	00a91006 	srlv	v0,t1,a1
  10e204:	2463fd88 	addiu	v1,v1,-632
  10e208:	24070020 	li	a3,32
  10e20c:	00431021 	addu	v0,v0,v1
  10e210:	90440000 	lbu	a0,0(v0)
  10e214:	00852021 	addu	a0,a0,a1
  10e218:	00e47823 	subu	t7,a3,a0

0010e21c <$LBE4>:
  10e21c:	51e00008 	beqzl	t7,10e240 <$L103>
  10e220:	00093c02 	srl	a3,t1,0x10

0010e224 <$LM16>:
  10e224:	00ef1023 	subu	v0,a3,t7
  10e228:	01e81804 	sllv	v1,t0,t7
  10e22c:	004d1006 	srlv	v0,t5,v0

0010e230 <$LM17>:
  10e230:	01e94804 	sllv	t1,t1,t7

0010e234 <$LM18>:
  10e234:	00624025 	or	t0,v1,v0

0010e238 <$LM19>:
  10e238:	01ed6804 	sllv	t5,t5,t7

0010e23c <$LBB5>:
  10e23c:	00093c02 	srl	a3,t1,0x10

0010e240 <$L103>:
  10e240:	312affff 	andi	t2,t1,0xffff
  10e244:	0107001b 	divu	zero,t0,a3
  10e248:	000d2402 	srl	a0,t5,0x10
  10e24c:	50e00001 	beqzl	a3,10e254 <$L103+0x14>
  10e250:	000001cd 	break	0x7
  10e254:	00001012 	mflo	v0
  10e258:	00001810 	mfhi	v1
  10e25c:	00031c00 	sll	v1,v1,0x10
  10e260:	00641825 	or	v1,v1,a0
  10e264:	00002812 	mflo	a1
  10e268:	004a4018 	mult	t0,v0,t2
  10e26c:	0068102b 	sltu	v0,v1,t0
  10e270:	5040000c 	beqzl	v0,10e2a4 <$L104>
  10e274:	00681823 	subu	v1,v1,t0
  10e278:	00691821 	addu	v1,v1,t1
  10e27c:	0069102b 	sltu	v0,v1,t1
  10e280:	14400007 	bnez	v0,10e2a0 <$L21>
  10e284:	24a5ffff 	addiu	a1,a1,-1
  10e288:	0068102b 	sltu	v0,v1,t0
  10e28c:	50400005 	beqzl	v0,10e2a4 <$L104>
  10e290:	00681823 	subu	v1,v1,t0
  10e294:	24a5ffff 	addiu	a1,a1,-1
  10e298:	00691821 	addu	v1,v1,t1
  10e29c:	00000000 	nop

0010e2a0 <$L21>:
  10e2a0:	00681823 	subu	v1,v1,t0

0010e2a4 <$L104>:
  10e2a4:	50e00001 	beqzl	a3,10e2ac <$L104+0x8>
  10e2a8:	000001cd 	break	0x7
  10e2ac:	0067001b 	divu	zero,v1,a3
  10e2b0:	31a4ffff 	andi	a0,t5,0xffff
  10e2b4:	00001012 	mflo	v0
  10e2b8:	00001810 	mfhi	v1
  10e2bc:	00031c00 	sll	v1,v1,0x10
  10e2c0:	00641825 	or	v1,v1,a0
  10e2c4:	00003812 	mflo	a3
  10e2c8:	004a4018 	mult	t0,v0,t2
  10e2cc:	0068102b 	sltu	v0,v1,t0
  10e2d0:	1040000c 	beqz	v0,10e304 <$L105>
  10e2d4:	00051400 	sll	v0,a1,0x10
  10e2d8:	00691821 	addu	v1,v1,t1
  10e2dc:	0069102b 	sltu	v0,v1,t1
  10e2e0:	14400007 	bnez	v0,10e300 <$L24>
  10e2e4:	24e7ffff 	addiu	a3,a3,-1
  10e2e8:	0068102b 	sltu	v0,v1,t0
  10e2ec:	10400005 	beqz	v0,10e304 <$L105>
  10e2f0:	00051400 	sll	v0,a1,0x10
  10e2f4:	00691821 	addu	v1,v1,t1
  10e2f8:	24e7ffff 	addiu	a3,a3,-1
  10e2fc:	00000000 	nop

0010e300 <$L24>:
  10e300:	00051400 	sll	v0,a1,0x10

0010e304 <$L105>:
  10e304:	00686823 	subu	t5,v1,t0
  10e308:	00475025 	or	t2,v0,a3

0010e30c <$LBE5>:
  10e30c:	0000802d 	move	s0,zero

0010e310 <$L27>:
  10e310:	10c0000b 	beqz	a2,10e340 <$L61>
  10e314:	01ed1006 	srlv	v0,t5,t7

0010e318 <$LM23>:
  10e318:	2403ffff 	li	v1,-1
  10e31c:	0003183c 	dsll32	v1,v1,0x0
  10e320:	0002103c 	dsll32	v0,v0,0x0
  10e324:	01836024 	and	t4,t4,v1
  10e328:	0002103e 	dsrl32	v0,v0,0x0

0010e32c <$LM24>:
  10e32c:	3c03ffff 	lui	v1,0xffff
  10e330:	0003183e 	dsrl32	v1,v1,0x0

0010e334 <$LM25>:
  10e334:	01826025 	or	t4,t4,v0

0010e338 <$LM26>:
  10e338:	01836024 	and	t4,t4,v1

0010e33c <$L100>:
  10e33c:	fccc0000 	sd	t4,0(a2)

0010e340 <$L61>:
  10e340:	000a103c 	dsll32	v0,t2,0x0
  10e344:	2403ffff 	li	v1,-1
  10e348:	0003183c 	dsll32	v1,v1,0x0
  10e34c:	0002103e 	dsrl32	v0,v0,0x0
  10e350:	01c37024 	and	t6,t6,v1
  10e354:	01c27025 	or	t6,t6,v0

0010e358 <$LM29>:
  10e358:	0010183c 	dsll32	v1,s0,0x0
  10e35c:	3c02ffff 	lui	v0,0xffff
  10e360:	0002103e 	dsrl32	v0,v0,0x0

0010e364 <$LM30>:
  10e364:	dfb00000 	ld	s0,0(sp)

0010e368 <$LM31>:
  10e368:	01c27024 	and	t6,t6,v0
  10e36c:	01c37025 	or	t6,t6,v1

0010e370 <$LM32>:
  10e370:	01c0102d 	move	v0,t6
  10e374:	03e00008 	jr	ra
  10e378:	27bd0010 	addiu	sp,sp,16
  10e37c:	00000000 	nop

0010e380 <$L6>:
  10e380:	24030010 	li	v1,16
  10e384:	3442ffff 	ori	v0,v0,0xffff
  10e388:	24040018 	li	a0,24
  10e38c:	0049102b 	sltu	v0,v0,t1
  10e390:	0060282d 	move	a1,v1
  10e394:	1000ff99 	b	10e1fc <$L7>
  10e398:	0082280b 	movn	a1,a0,v0
  10e39c:	00000000 	nop

0010e3a0 <$L3>:
  10e3a0:	15200008 	bnez	t1,10e3c4 <$L116>
  10e3a4:	0049102b 	sltu	v0,v0,t1

0010e3a8 <$LM34>:
  10e3a8:	24020001 	li	v0,1
  10e3ac:	51200001 	beqzl	t1,10e3b4 <$LM34+0xc>
  10e3b0:	000001cd 	break	0x7
  10e3b4:	0047001b 	divu	zero,v0,a3
  10e3b8:	00004812 	mflo	t1

0010e3bc <$LBB10>:
  10e3bc:	3402ffff 	li	v0,0xffff
  10e3c0:	0049102b 	sltu	v0,v0,t1

0010e3c4 <$L116>:
  10e3c4:	14400082 	bnez	v0,10e5d0 <$L31>
  10e3c8:	3c0200ff 	lui	v0,0xff
  10e3cc:	24020008 	li	v0,8
  10e3d0:	2d230100 	sltiu	v1,t1,256
  10e3d4:	0040282d 	move	a1,v0
  10e3d8:	0003280b 	movn	a1,zero,v1

0010e3dc <$L32>:
  10e3dc:	3c030011 	lui	v1,0x11
  10e3e0:	00a91006 	srlv	v0,t1,a1
  10e3e4:	2463fd88 	addiu	v1,v1,-632
  10e3e8:	24070020 	li	a3,32
  10e3ec:	00431021 	addu	v0,v0,v1
  10e3f0:	90440000 	lbu	a0,0(v0)
  10e3f4:	00852021 	addu	a0,a0,a1
  10e3f8:	00e47823 	subu	t7,a3,a0

0010e3fc <$LBE10>:
  10e3fc:	15e00038 	bnez	t7,10e4e0 <$L44>
  10e400:	00efc023 	subu	t8,a3,t7

0010e404 <$LM37>:
  10e404:	01094023 	subu	t0,t0,t1

0010e408 <$LM38>:
  10e408:	24100001 	li	s0,1
  10e40c:	00095402 	srl	t2,t1,0x10
  10e410:	3139ffff 	andi	t9,t1,0xffff

0010e414 <$L45>:
  10e414:	010a001b 	divu	zero,t0,t2
  10e418:	000d2c02 	srl	a1,t5,0x10
  10e41c:	51400001 	beqzl	t2,10e424 <$L45+0x10>
  10e420:	000001cd 	break	0x7
  10e424:	00002012 	mflo	a0
  10e428:	00001810 	mfhi	v1
  10e42c:	00031c00 	sll	v1,v1,0x10
  10e430:	00651825 	or	v1,v1,a1
  10e434:	00005812 	mflo	t3
  10e438:	00993818 	mult	a3,a0,t9
  10e43c:	0067102b 	sltu	v0,v1,a3
  10e440:	5040000c 	beqzl	v0,10e474 <$L107>
  10e444:	00671823 	subu	v1,v1,a3
  10e448:	00691821 	addu	v1,v1,t1
  10e44c:	0069102b 	sltu	v0,v1,t1
  10e450:	14400007 	bnez	v0,10e470 <$L54>
  10e454:	248bffff 	addiu	t3,a0,-1
  10e458:	0067102b 	sltu	v0,v1,a3
  10e45c:	50400005 	beqzl	v0,10e474 <$L107>
  10e460:	00671823 	subu	v1,v1,a3
  10e464:	256bffff 	addiu	t3,t3,-1
  10e468:	00691821 	addu	v1,v1,t1
  10e46c:	00000000 	nop

0010e470 <$L54>:
  10e470:	00671823 	subu	v1,v1,a3

0010e474 <$L107>:
  10e474:	31a4ffff 	andi	a0,t5,0xffff
  10e478:	006a001b 	divu	zero,v1,t2
  10e47c:	51400001 	beqzl	t2,10e484 <$L107+0x10>
  10e480:	000001cd 	break	0x7
  10e484:	00001012 	mflo	v0
  10e488:	00001810 	mfhi	v1
  10e48c:	00031c00 	sll	v1,v1,0x10
  10e490:	00641825 	or	v1,v1,a0
  10e494:	00004012 	mflo	t0
  10e498:	00593818 	mult	a3,v0,t9
  10e49c:	0067102b 	sltu	v0,v1,a3
  10e4a0:	1040000c 	beqz	v0,10e4d4 <$L108>
  10e4a4:	000b1400 	sll	v0,t3,0x10
  10e4a8:	00691821 	addu	v1,v1,t1
  10e4ac:	0069102b 	sltu	v0,v1,t1
  10e4b0:	14400007 	bnez	v0,10e4d0 <$L57>
  10e4b4:	2508ffff 	addiu	t0,t0,-1
  10e4b8:	0067102b 	sltu	v0,v1,a3
  10e4bc:	10400005 	beqz	v0,10e4d4 <$L108>
  10e4c0:	000b1400 	sll	v0,t3,0x10
  10e4c4:	00691821 	addu	v1,v1,t1
  10e4c8:	2508ffff 	addiu	t0,t0,-1
  10e4cc:	00000000 	nop

0010e4d0 <$L57>:
  10e4d0:	000b1400 	sll	v0,t3,0x10

0010e4d4 <$L108>:
  10e4d4:	00676823 	subu	t5,v1,a3
  10e4d8:	1000ff8d 	b	10e310 <$L27>
  10e4dc:	00485025 	or	t2,v0,t0

0010e4e0 <$L44>:
  10e4e0:	01e94804 	sllv	t1,t1,t7

0010e4e4 <$LM42>:
  10e4e4:	03082806 	srlv	a1,t0,t8

0010e4e8 <$LBB12>:
  10e4e8:	00095402 	srl	t2,t1,0x10
  10e4ec:	00aa001b 	divu	zero,a1,t2
  10e4f0:	3139ffff 	andi	t9,t1,0xffff

0010e4f4 <$LBE12>:
  10e4f4:	030d1806 	srlv	v1,t5,t8
  10e4f8:	01e81004 	sllv	v0,t0,t7
  10e4fc:	00434025 	or	t0,v0,v1

0010e500 <$LBB13>:
  10e500:	51400001 	beqzl	t2,10e508 <$LBB13+0x8>
  10e504:	000001cd 	break	0x7
  10e508:	00081c02 	srl	v1,t0,0x10
  10e50c:	0140582d 	move	t3,t2

0010e510 <$LBE13>:
  10e510:	01ed6804 	sllv	t5,t5,t7

0010e514 <$LBB14>:
  10e514:	00002812 	mflo	a1
  10e518:	00002010 	mfhi	a0

0010e51c <$LBB15>:
  10e51c:	00042400 	sll	a0,a0,0x10
  10e520:	00831825 	or	v1,a0,v1
  10e524:	0000c012 	mflo	t8
  10e528:	00b93818 	mult	a3,a1,t9
  10e52c:	0067102b 	sltu	v0,v1,a3
  10e530:	1040000b 	beqz	v0,10e560 <$L47>
  10e534:	0320802d 	move	s0,t9
  10e538:	00691821 	addu	v1,v1,t1
  10e53c:	0069102b 	sltu	v0,v1,t1
  10e540:	14400007 	bnez	v0,10e560 <$L47>
  10e544:	24b8ffff 	addiu	t8,a1,-1
  10e548:	0067102b 	sltu	v0,v1,a3
  10e54c:	50400005 	beqzl	v0,10e564 <$L109>
  10e550:	00671823 	subu	v1,v1,a3
  10e554:	2718ffff 	addiu	t8,t8,-1
  10e558:	00691821 	addu	v1,v1,t1
  10e55c:	00000000 	nop

0010e560 <$L47>:
  10e560:	00671823 	subu	v1,v1,a3

0010e564 <$L109>:
  10e564:	3104ffff 	andi	a0,t0,0xffff
  10e568:	006b001b 	divu	zero,v1,t3
  10e56c:	51600001 	beqzl	t3,10e574 <$L109+0x10>
  10e570:	000001cd 	break	0x7
  10e574:	00001012 	mflo	v0
  10e578:	00001810 	mfhi	v1
  10e57c:	00031c00 	sll	v1,v1,0x10
  10e580:	00641825 	or	v1,v1,a0
  10e584:	00002812 	mflo	a1
  10e588:	00503818 	mult	a3,v0,s0
  10e58c:	0067102b 	sltu	v0,v1,a3
  10e590:	1040000c 	beqz	v0,10e5c4 <$L110>
  10e594:	00181400 	sll	v0,t8,0x10
  10e598:	00691821 	addu	v1,v1,t1
  10e59c:	0069102b 	sltu	v0,v1,t1
  10e5a0:	14400007 	bnez	v0,10e5c0 <$L50>
  10e5a4:	24a5ffff 	addiu	a1,a1,-1
  10e5a8:	0067102b 	sltu	v0,v1,a3
  10e5ac:	10400005 	beqz	v0,10e5c4 <$L110>
  10e5b0:	00181400 	sll	v0,t8,0x10
  10e5b4:	24a5ffff 	addiu	a1,a1,-1
  10e5b8:	00691821 	addu	v1,v1,t1
  10e5bc:	00000000 	nop

0010e5c0 <$L50>:
  10e5c0:	00181400 	sll	v0,t8,0x10

0010e5c4 <$L110>:
  10e5c4:	00674023 	subu	t0,v1,a3
  10e5c8:	1000ff92 	b	10e414 <$L45>
  10e5cc:	00458025 	or	s0,v0,a1

0010e5d0 <$L31>:
  10e5d0:	24030010 	li	v1,16
  10e5d4:	3442ffff 	ori	v0,v0,0xffff
  10e5d8:	24040018 	li	a0,24
  10e5dc:	0049102b 	sltu	v0,v0,t1
  10e5e0:	0060282d 	move	a1,v1
  10e5e4:	1000ff7d 	b	10e3dc <$L32>
  10e5e8:	0082280b 	movn	a1,a0,v0
  10e5ec:	00000000 	nop

0010e5f0 <$L2>:
  10e5f0:	0107102b 	sltu	v0,t0,a3
  10e5f4:	1440001f 	bnez	v0,10e674 <$L111>
  10e5f8:	0000502d 	move	t2,zero

0010e5fc <$LBB17>:
  10e5fc:	3402ffff 	li	v0,0xffff
  10e600:	0047102b 	sltu	v0,v0,a3
  10e604:	1440008c 	bnez	v0,10e838 <$L67>
  10e608:	3c0200ff 	lui	v0,0xff
  10e60c:	24020008 	li	v0,8
  10e610:	2ce30100 	sltiu	v1,a3,256
  10e614:	0040282d 	move	a1,v0
  10e618:	0003280b 	movn	a1,zero,v1

0010e61c <$L68>:
  10e61c:	3c030011 	lui	v1,0x11
  10e620:	00a71006 	srlv	v0,a3,a1
  10e624:	2463fd88 	addiu	v1,v1,-632
  10e628:	240a0020 	li	t2,32
  10e62c:	00431021 	addu	v0,v0,v1
  10e630:	90440000 	lbu	a0,0(v0)
  10e634:	00852021 	addu	a0,a0,a1
  10e638:	01447823 	subu	t7,t2,a0

0010e63c <$LBE17>:
  10e63c:	15e0001c 	bnez	t7,10e6b0 <$L80>
  10e640:	014fc023 	subu	t8,t2,t7

0010e644 <$LM51>:
  10e644:	00e8102b 	sltu	v0,a3,t0
  10e648:	14400005 	bnez	v0,10e660 <$L112>
  10e64c:	01a92023 	subu	a0,t5,t1
  10e650:	01a9102b 	sltu	v0,t5,t1
  10e654:	14400007 	bnez	v0,10e674 <$L111>
  10e658:	0000502d 	move	t2,zero

0010e65c <$LBB18>:
  10e65c:	01a92023 	subu	a0,t5,t1

0010e660 <$L112>:
  10e660:	01071823 	subu	v1,t0,a3
  10e664:	01a4102b 	sltu	v0,t5,a0

0010e668 <$LBE18>:
  10e668:	240a0001 	li	t2,1

0010e66c <$LBB19>:
  10e66c:	00624023 	subu	t0,v1,v0
  10e670:	0080682d 	move	t5,a0

0010e674 <$L111>:
  10e674:	10c0ff32 	beqz	a2,10e340 <$L61>
  10e678:	0000802d 	move	s0,zero

0010e67c <$LM56>:
  10e67c:	2403ffff 	li	v1,-1
  10e680:	0003183c 	dsll32	v1,v1,0x0
  10e684:	000d103c 	dsll32	v0,t5,0x0
  10e688:	0002103e 	dsrl32	v0,v0,0x0
  10e68c:	01836024 	and	t4,t4,v1
  10e690:	01826025 	or	t4,t4,v0

0010e694 <$LM57>:
  10e694:	0008183c 	dsll32	v1,t0,0x0
  10e698:	3c02ffff 	lui	v0,0xffff
  10e69c:	0002103e 	dsrl32	v0,v0,0x0
  10e6a0:	01826024 	and	t4,t4,v0

0010e6a4 <$LM58>:
  10e6a4:	1000ff25 	b	10e33c <$L100>
  10e6a8:	01836025 	or	t4,t4,v1

0010e6ac <$LM59>:
  10e6ac:	00000000 	nop

0010e6b0 <$L80>:
  10e6b0:	01e71804 	sllv	v1,a3,t7
  10e6b4:	03091006 	srlv	v0,t1,t8

0010e6b8 <$LM62>:
  10e6b8:	03082806 	srlv	a1,t0,t8

0010e6bc <$LM63>:
  10e6bc:	00623825 	or	a3,v1,v0

0010e6c0 <$LM64>:
  10e6c0:	01e82004 	sllv	a0,t0,t7

0010e6c4 <$LBB21>:
  10e6c4:	00075402 	srl	t2,a3,0x10
  10e6c8:	30f0ffff 	andi	s0,a3,0xffff
  10e6cc:	00aa001b 	divu	zero,a1,t2

0010e6d0 <$LBE21>:
  10e6d0:	030d1006 	srlv	v0,t5,t8
  10e6d4:	00824025 	or	t0,a0,v0

0010e6d8 <$LBB22>:
  10e6d8:	51400001 	beqzl	t2,10e6e0 <$LBB22+0x8>
  10e6dc:	000001cd 	break	0x7
  10e6e0:	00082402 	srl	a0,t0,0x10

0010e6e4 <$LBE22>:
  10e6e4:	01e94804 	sllv	t1,t1,t7

0010e6e8 <$LBB23>:
  10e6e8:	00002812 	mflo	a1
  10e6ec:	00001810 	mfhi	v1

0010e6f0 <$LBB25>:
  10e6f0:	00031c00 	sll	v1,v1,0x10
  10e6f4:	00641825 	or	v1,v1,a0
  10e6f8:	0000c812 	mflo	t9
  10e6fc:	00b05818 	mult	t3,a1,s0
  10e700:	006b102b 	sltu	v0,v1,t3
  10e704:	1040000a 	beqz	v0,10e730 <$L88>
  10e708:	01ed6804 	sllv	t5,t5,t7
  10e70c:	00671821 	addu	v1,v1,a3
  10e710:	0067102b 	sltu	v0,v1,a3
  10e714:	14400006 	bnez	v0,10e730 <$L88>
  10e718:	24b9ffff 	addiu	t9,a1,-1
  10e71c:	006b102b 	sltu	v0,v1,t3
  10e720:	50400004 	beqzl	v0,10e734 <$L113>
  10e724:	006b1823 	subu	v1,v1,t3
  10e728:	2739ffff 	addiu	t9,t9,-1
  10e72c:	00671821 	addu	v1,v1,a3

0010e730 <$L88>:
  10e730:	006b1823 	subu	v1,v1,t3

0010e734 <$L113>:
  10e734:	3104ffff 	andi	a0,t0,0xffff
  10e738:	006a001b 	divu	zero,v1,t2
  10e73c:	51400001 	beqzl	t2,10e744 <$L113+0x10>
  10e740:	000001cd 	break	0x7
  10e744:	00001012 	mflo	v0
  10e748:	00001810 	mfhi	v1
  10e74c:	00031c00 	sll	v1,v1,0x10
  10e750:	00642825 	or	a1,v1,a0
  10e754:	00004012 	mflo	t0
  10e758:	00505818 	mult	t3,v0,s0
  10e75c:	00ab102b 	sltu	v0,a1,t3
  10e760:	1040000c 	beqz	v0,10e794 <$L114>
  10e764:	00191400 	sll	v0,t9,0x10
  10e768:	00a72821 	addu	a1,a1,a3
  10e76c:	00a7102b 	sltu	v0,a1,a3
  10e770:	14400007 	bnez	v0,10e790 <$L91>
  10e774:	2508ffff 	addiu	t0,t0,-1
  10e778:	00ab102b 	sltu	v0,a1,t3
  10e77c:	10400005 	beqz	v0,10e794 <$L114>
  10e780:	00191400 	sll	v0,t9,0x10
  10e784:	2508ffff 	addiu	t0,t0,-1
  10e788:	00a72821 	addu	a1,a1,a3
  10e78c:	00000000 	nop

0010e790 <$L91>:
  10e790:	00191400 	sll	v0,t9,0x10

0010e794 <$L114>:
  10e794:	00ab2823 	subu	a1,a1,t3
  10e798:	00485025 	or	t2,v0,t0

0010e79c <$LBE25>:
  10e79c:	01490019 	multu	t2,t1
  10e7a0:	00001810 	mfhi	v1
  10e7a4:	00005812 	mflo	t3

0010e7a8 <$LM73>:
  10e7a8:	00a3102b 	sltu	v0,a1,v1
  10e7ac:	1440001b 	bnez	v0,10e81c <$L115>
  10e7b0:	01692023 	subu	a0,t3,t1
  10e7b4:	10650017 	beq	v1,a1,10e814 <$L102>
  10e7b8:	01ab102b 	sltu	v0,t5,t3

0010e7bc <$L94>:
  10e7bc:	10c0fee0 	beqz	a2,10e340 <$L61>
  10e7c0:	0000802d 	move	s0,zero

0010e7c4 <$LBB26>:
  10e7c4:	01ab2023 	subu	a0,t5,t3
  10e7c8:	00a32823 	subu	a1,a1,v1
  10e7cc:	01a4182b 	sltu	v1,t5,a0

0010e7d0 <$LBE26>:
  10e7d0:	01e42006 	srlv	a0,a0,t7

0010e7d4 <$LBB27>:
  10e7d4:	00a34023 	subu	t0,a1,v1

0010e7d8 <$LBE27>:
  10e7d8:	2403ffff 	li	v1,-1
  10e7dc:	0003183c 	dsll32	v1,v1,0x0
  10e7e0:	03081004 	sllv	v0,t0,t8
  10e7e4:	01836024 	and	t4,t4,v1
  10e7e8:	00441025 	or	v0,v0,a0

0010e7ec <$LM79>:
  10e7ec:	01e82806 	srlv	a1,t0,t7

0010e7f0 <$LM80>:
  10e7f0:	0002103c 	dsll32	v0,v0,0x0

0010e7f4 <$LM81>:
  10e7f4:	3c03ffff 	lui	v1,0xffff
  10e7f8:	0003183e 	dsrl32	v1,v1,0x0

0010e7fc <$LM82>:
  10e7fc:	0002103e 	dsrl32	v0,v0,0x0

0010e800 <$LM83>:
  10e800:	0005283c 	dsll32	a1,a1,0x0

0010e804 <$LM84>:
  10e804:	01826025 	or	t4,t4,v0

0010e808 <$LM85>:
  10e808:	01836024 	and	t4,t4,v1
  10e80c:	1000fecb 	b	10e33c <$L100>
  10e810:	01856025 	or	t4,t4,a1

0010e814 <$L102>:
  10e814:	1040ffe9 	beqz	v0,10e7bc <$L94>
  10e818:	01692023 	subu	a0,t3,t1

0010e81c <$L115>:
  10e81c:	00671823 	subu	v1,v1,a3
  10e820:	0164102b 	sltu	v0,t3,a0

0010e824 <$LBE28>:
  10e824:	254affff 	addiu	t2,t2,-1

0010e828 <$LBB29>:
  10e828:	00621823 	subu	v1,v1,v0
  10e82c:	1000ffe3 	b	10e7bc <$L94>
  10e830:	0080582d 	move	t3,a0
  10e834:	00000000 	nop

0010e838 <$L67>:
  10e838:	24030010 	li	v1,16
  10e83c:	3442ffff 	ori	v0,v0,0xffff
  10e840:	24040018 	li	a0,24
  10e844:	0047102b 	sltu	v0,v0,a3
  10e848:	0060282d 	move	a1,v1
  10e84c:	1000ff73 	b	10e61c <$L68>
  10e850:	0082280b 	movn	a1,a0,v0

0010e854 <$LBE30>:
  10e854:	00000000 	nop

0010e858 <_fpadd_parts>:
  10e858:	8c830000 	lw	v1,0(a0)

0010e85c <$LM3>:
  10e85c:	0080402d 	move	t0,a0

0010e860 <$LBE3>:
  10e860:	2c620002 	sltiu	v0,v1,2

0010e864 <$LM6>:
  10e864:	14400010 	bnez	v0,10e8a8 <$L1>
  10e868:	0080382d 	move	a3,a0

0010e86c <$LBB5>:
  10e86c:	8ca40000 	lw	a0,0(a1)

0010e870 <$LBE5>:
  10e870:	2c820002 	sltiu	v0,a0,2

0010e874 <$LM10>:
  10e874:	1440000c 	bnez	v0,10e8a8 <$L1>
  10e878:	00a0382d 	move	a3,a1

0010e87c <$LBB7>:
  10e87c:	38620004 	xori	v0,v1,0x4

0010e880 <$LBE7>:
  10e880:	1440000b 	bnez	v0,10e8b0 <$L6>
  10e884:	38820004 	xori	v0,a0,0x4

0010e888 <$LM13>:
  10e888:	14400007 	bnez	v0,10e8a8 <$L1>
  10e88c:	0100382d 	move	a3,t0
  10e890:	8ca30004 	lw	v1,4(a1)
  10e894:	8d020004 	lw	v0,4(t0)
  10e898:	10430003 	beq	v0,v1,10e8a8 <$L1>
  10e89c:	00000000 	nop

0010e8a0 <$LBB8>:
  10e8a0:	3c020011 	lui	v0,0x11
  10e8a4:	2447fd70 	addiu	a3,v0,-656

0010e8a8 <$L1>:
  10e8a8:	03e00008 	jr	ra
  10e8ac:	00e0102d 	move	v0,a3

0010e8b0 <$L6>:
  10e8b0:	1040fffd 	beqz	v0,10e8a8 <$L1>
  10e8b4:	00a0382d 	move	a3,a1

0010e8b8 <$LBB10>:
  10e8b8:	38820002 	xori	v0,a0,0x2

0010e8bc <$LBE10>:
  10e8bc:	1440000f 	bnez	v0,10e8fc <$L13>
  10e8c0:	38620002 	xori	v0,v1,0x2

0010e8c4 <$LM21>:
  10e8c4:	5440fff8 	bnezl	v0,10e8a8 <$L1>
  10e8c8:	0100382d 	move	a3,t0

0010e8cc <$LM22>:
  10e8cc:	dd030000 	ld	v1,0(t0)

0010e8d0 <$LM23>:
  10e8d0:	00c0382d 	move	a3,a2

0010e8d4 <$LM24>:
  10e8d4:	fcc30000 	sd	v1,0(a2)
  10e8d8:	dd020008 	ld	v0,8(t0)
  10e8dc:	fcc20008 	sd	v0,8(a2)
  10e8e0:	dd030010 	ld	v1,16(t0)
  10e8e4:	fcc30010 	sd	v1,16(a2)

0010e8e8 <$LM25>:
  10e8e8:	8d020004 	lw	v0,4(t0)
  10e8ec:	8ca30004 	lw	v1,4(a1)
  10e8f0:	00431024 	and	v0,v0,v1

0010e8f4 <$LM26>:
  10e8f4:	1000ffec 	b	10e8a8 <$L1>
  10e8f8:	acc20004 	sw	v0,4(a2)

0010e8fc <$L13>:
  10e8fc:	1040ffea 	beqz	v0,10e8a8 <$L1>
  10e900:	00a0382d 	move	a3,a1

0010e904 <$LBB11>:
  10e904:	8d0b0008 	lw	t3,8(t0)

0010e908 <$LM29>:
  10e908:	8ca70008 	lw	a3,8(a1)

0010e90c <$LM30>:
  10e90c:	dd0a0010 	ld	t2,16(t0)

0010e910 <$LM31>:
  10e910:	01671023 	subu	v0,t3,a3

0010e914 <$LM32>:
  10e914:	04420001 	bltzl	v0,10e91c <$LM34>
  10e918:	00021023 	negu	v0,v0

0010e91c <$LM34>:
  10e91c:	28420040 	slti	v0,v0,64
  10e920:	10400050 	beqz	v0,10ea64 <$L20>
  10e924:	dca90010 	ld	t1,16(a1)

0010e928 <$LM35>:
  10e928:	00eb102a 	slt	v0,a3,t3
  10e92c:	1040000a 	beqz	v0,10e958 <$L50>
  10e930:	0167102a 	slt	v0,t3,a3
  10e934:	01673823 	subu	a3,t3,a3

0010e938 <$L24>:
  10e938:	0009187a 	dsrl	v1,t1,0x1
  10e93c:	31220001 	andi	v0,t1,0x1

0010e940 <$LM37>:
  10e940:	24e7ffff 	addiu	a3,a3,-1

0010e944 <$LM38>:
  10e944:	00434825 	or	t1,v0,v1
  10e948:	14e0fffb 	bnez	a3,10e938 <$L24>
  10e94c:	00000000 	nop
  10e950:	0160382d 	move	a3,t3

0010e954 <$LM39>:
  10e954:	0167102a 	slt	v0,t3,a3

0010e958 <$L50>:
  10e958:	50400009 	beqzl	v0,10e980 <$L51>
  10e95c:	8d040004 	lw	a0,4(t0)

0010e960 <$L28>:
  10e960:	256b0001 	addiu	t3,t3,1

0010e964 <$LM41>:
  10e964:	000a107a 	dsrl	v0,t2,0x1
  10e968:	31430001 	andi	v1,t2,0x1
  10e96c:	0167202a 	slt	a0,t3,a3
  10e970:	00625025 	or	t2,v1,v0
  10e974:	1480fffa 	bnez	a0,10e960 <$L28>
  10e978:	00000000 	nop

0010e97c <$L29>:
  10e97c:	8d040004 	lw	a0,4(t0)

0010e980 <$L51>:
  10e980:	8ca20004 	lw	v0,4(a1)
  10e984:	10820031 	beq	a0,v0,10ea4c <$L32>
  10e988:	0149102f 	dsubu	v0,t2,t1

0010e98c <$LM43>:
  10e98c:	012a182f 	dsubu	v1,t1,t2
  10e990:	0044180a 	movz	v1,v0,a0

0010e994 <$LM44>:
  10e994:	04620028 	bltzl	v1,10ea38 <$L35>
  10e998:	0003182f 	dnegu	v1,v1

0010e99c <$LM45>:
  10e99c:	accb0008 	sw	t3,8(a2)

0010e9a0 <$LM46>:
  10e9a0:	fcc30010 	sd	v1,16(a2)

0010e9a4 <$LM47>:
  10e9a4:	acc00004 	sw	zero,4(a2)

0010e9a8 <$L36>:
  10e9a8:	dcc50010 	ld	a1,16(a2)
  10e9ac:	2402ffff 	li	v0,-1
  10e9b0:	00021178 	dsll	v0,v0,0x5
  10e9b4:	0002113a 	dsrl	v0,v0,0x4
  10e9b8:	2407ffff 	li	a3,-1
  10e9bc:	00073978 	dsll	a3,a3,0x5
  10e9c0:	0007393a 	dsrl	a3,a3,0x4
  10e9c4:	64a3ffff 	daddiu	v1,a1,-1
  10e9c8:	0043102b 	sltu	v0,v0,v1
  10e9cc:	1440000b 	bnez	v0,10e9fc <$L41>
  10e9d0:	00052078 	dsll	a0,a1,0x1

0010e9d4 <$L52>:
  10e9d4:	8cc20008 	lw	v0,8(a2)
  10e9d8:	6483ffff 	daddiu	v1,a0,-1

0010e9dc <$LM50>:
  10e9dc:	fcc40010 	sd	a0,16(a2)

0010e9e0 <$LM51>:
  10e9e0:	2442ffff 	addiu	v0,v0,-1
  10e9e4:	00e3182b 	sltu	v1,a3,v1
  10e9e8:	acc20008 	sw	v0,8(a2)
  10e9ec:	14600003 	bnez	v1,10e9fc <$L41>
  10e9f0:	0080282d 	move	a1,a0
  10e9f4:	1000fff7 	b	10e9d4 <$L52>
  10e9f8:	00052078 	dsll	a0,a1,0x1

0010e9fc <$L41>:
  10e9fc:	2402ffff 	li	v0,-1
  10ea00:	000210fa 	dsrl	v0,v0,0x3

0010ea04 <$LM53>:
  10ea04:	24030003 	li	v1,3

0010ea08 <$LM54>:
  10ea08:	0045102b 	sltu	v0,v0,a1

0010ea0c <$LM55>:
  10ea0c:	10400008 	beqz	v0,10ea30 <$L42>
  10ea10:	acc30000 	sw	v1,0(a2)

0010ea14 <$LM56>:
  10ea14:	8cc20008 	lw	v0,8(a2)

0010ea18 <$LM57>:
  10ea18:	0005207a 	dsrl	a0,a1,0x1
  10ea1c:	30a30001 	andi	v1,a1,0x1
  10ea20:	00641825 	or	v1,v1,a0

0010ea24 <$LM58>:
  10ea24:	24420001 	addiu	v0,v0,1

0010ea28 <$LM59>:
  10ea28:	fcc30010 	sd	v1,16(a2)

0010ea2c <$LM60>:
  10ea2c:	acc20008 	sw	v0,8(a2)

0010ea30 <$L42>:
  10ea30:	1000ff9d 	b	10e8a8 <$L1>
  10ea34:	00c0382d 	move	a3,a2

0010ea38 <$L35>:
  10ea38:	24020001 	li	v0,1
  10ea3c:	acc20004 	sw	v0,4(a2)

0010ea40 <$LM63>:
  10ea40:	accb0008 	sw	t3,8(a2)

0010ea44 <$LM64>:
  10ea44:	1000ffd8 	b	10e9a8 <$L36>
  10ea48:	fcc30010 	sd	v1,16(a2)

0010ea4c <$L32>:
  10ea4c:	0149102d 	daddu	v0,t2,t1

0010ea50 <$LM66>:
  10ea50:	acc40004 	sw	a0,4(a2)

0010ea54 <$LM67>:
  10ea54:	accb0008 	sw	t3,8(a2)

0010ea58 <$LM68>:
  10ea58:	0040282d 	move	a1,v0
  10ea5c:	1000ffe7 	b	10e9fc <$L41>
  10ea60:	fcc20010 	sd	v0,16(a2)

0010ea64 <$L20>:
  10ea64:	00eb102a 	slt	v0,a3,t3
  10ea68:	50400003 	beqzl	v0,10ea78 <$L30>
  10ea6c:	00e0582d 	move	t3,a3

0010ea70 <$LM70>:
  10ea70:	1000ffc2 	b	10e97c <$L29>
  10ea74:	0000482d 	move	t1,zero

0010ea78 <$L30>:
  10ea78:	1000ffc0 	b	10e97c <$L29>
  10ea7c:	0000502d 	move	t2,zero

0010ea80 <dpadd>:
  10ea80:	27bdff70 	addiu	sp,sp,-144
  10ea84:	00a0182d 	move	v1,a1
  10ea88:	0080102d 	move	v0,a0
  10ea8c:	ffb00070 	sd	s0,112(sp)

0010ea90 <$LM73>:
  10ea90:	27a40060 	addiu	a0,sp,96
  10ea94:	03a0282d 	move	a1,sp

0010ea98 <$LM74>:
  10ea98:	ffbf0080 	sd	ra,128(sp)

0010ea9c <$LM75>:
  10ea9c:	ffa30068 	sd	v1,104(sp)

0010eaa0 <$LM76>:
  10eaa0:	ffa20060 	sd	v0,96(sp)

0010eaa4 <$LM77>:
  10eaa4:	0c043cba 	jal	10f2e8 <__unpack_d>
  10eaa8:	27b00020 	addiu	s0,sp,32

0010eaac <$LM78>:
  10eaac:	27a40068 	addiu	a0,sp,104
  10eab0:	0c043cba 	jal	10f2e8 <__unpack_d>
  10eab4:	0200282d 	move	a1,s0

0010eab8 <$LM79>:
  10eab8:	27a60040 	addiu	a2,sp,64
  10eabc:	0200282d 	move	a1,s0
  10eac0:	0c043a16 	jal	10e858 <_fpadd_parts>
  10eac4:	03a0202d 	move	a0,sp

0010eac8 <$LM80>:
  10eac8:	0c043c56 	jal	10f158 <__pack_d>
  10eacc:	0040202d 	move	a0,v0
  10ead0:	dfb00070 	ld	s0,112(sp)
  10ead4:	dfbf0080 	ld	ra,128(sp)
  10ead8:	03e00008 	jr	ra
  10eadc:	27bd0090 	addiu	sp,sp,144

0010eae0 <dpsub>:
  10eae0:	27bdff70 	addiu	sp,sp,-144
  10eae4:	00a0182d 	move	v1,a1
  10eae8:	0080102d 	move	v0,a0
  10eaec:	ffb00070 	sd	s0,112(sp)

0010eaf0 <$LM82>:
  10eaf0:	27a40060 	addiu	a0,sp,96
  10eaf4:	03a0282d 	move	a1,sp

0010eaf8 <$LM83>:
  10eaf8:	ffbf0080 	sd	ra,128(sp)

0010eafc <$LM84>:
  10eafc:	ffa30068 	sd	v1,104(sp)

0010eb00 <$LM85>:
  10eb00:	ffa20060 	sd	v0,96(sp)

0010eb04 <$LM86>:
  10eb04:	0c043cba 	jal	10f2e8 <__unpack_d>
  10eb08:	27b00020 	addiu	s0,sp,32

0010eb0c <$LM87>:
  10eb0c:	27a40068 	addiu	a0,sp,104
  10eb10:	0c043cba 	jal	10f2e8 <__unpack_d>
  10eb14:	0200282d 	move	a1,s0

0010eb18 <$LM88>:
  10eb18:	8fa20024 	lw	v0,36(sp)

0010eb1c <$LM89>:
  10eb1c:	0200282d 	move	a1,s0
  10eb20:	27a60040 	addiu	a2,sp,64
  10eb24:	03a0202d 	move	a0,sp

0010eb28 <$LM90>:
  10eb28:	38420001 	xori	v0,v0,0x1

0010eb2c <$LM91>:
  10eb2c:	0c043a16 	jal	10e858 <_fpadd_parts>
  10eb30:	afa20024 	sw	v0,36(sp)

0010eb34 <$LM92>:
  10eb34:	0c043c56 	jal	10f158 <__pack_d>
  10eb38:	0040202d 	move	a0,v0
  10eb3c:	dfb00070 	ld	s0,112(sp)
  10eb40:	dfbf0080 	ld	ra,128(sp)
  10eb44:	03e00008 	jr	ra
  10eb48:	27bd0090 	addiu	sp,sp,144

0010eb4c <$LFE3>:
  10eb4c:	00000000 	nop

0010eb50 <dpmul>:
  10eb50:	27bdff70 	addiu	sp,sp,-144
  10eb54:	00a0182d 	move	v1,a1
  10eb58:	0080102d 	move	v0,a0
  10eb5c:	ffb00070 	sd	s0,112(sp)

0010eb60 <$LM2>:
  10eb60:	27a40060 	addiu	a0,sp,96
  10eb64:	03a0282d 	move	a1,sp

0010eb68 <$LM3>:
  10eb68:	ffbf0080 	sd	ra,128(sp)

0010eb6c <$LM4>:
  10eb6c:	ffa30068 	sd	v1,104(sp)

0010eb70 <$LM5>:
  10eb70:	ffa20060 	sd	v0,96(sp)

0010eb74 <$LM6>:
  10eb74:	0c043cba 	jal	10f2e8 <__unpack_d>
  10eb78:	27b00020 	addiu	s0,sp,32

0010eb7c <$LM7>:
  10eb7c:	27a40068 	addiu	a0,sp,104
  10eb80:	0c043cba 	jal	10f2e8 <__unpack_d>
  10eb84:	0200282d 	move	a1,s0

0010eb88 <$LM8>:
  10eb88:	27a60040 	addiu	a2,sp,64
  10eb8c:	0200282d 	move	a1,s0
  10eb90:	0c043aec 	jal	10ebb0 <_fpmul_parts>
  10eb94:	03a0202d 	move	a0,sp

0010eb98 <$LM9>:
  10eb98:	0c043c56 	jal	10f158 <__pack_d>
  10eb9c:	0040202d 	move	a0,v0
  10eba0:	dfb00070 	ld	s0,112(sp)
  10eba4:	dfbf0080 	ld	ra,128(sp)
  10eba8:	03e00008 	jr	ra
  10ebac:	27bd0090 	addiu	sp,sp,144

0010ebb0 <_fpmul_parts>:
  10ebb0:	8c830000 	lw	v1,0(a0)

0010ebb4 <$LM12>:
  10ebb4:	0080482d 	move	t1,a0
  10ebb8:	00a0582d 	move	t3,a1

0010ebbc <$LM13>:
  10ebbc:	2c620002 	sltiu	v0,v1,2

0010ebc0 <$LBE4>:
  10ebc0:	1440000b 	bnez	v0,10ebf0 <$L47>
  10ebc4:	00c0602d 	move	t4,a2

0010ebc8 <$LBB5>:
  10ebc8:	8ca40000 	lw	a0,0(a1)
  10ebcc:	2c820002 	sltiu	v0,a0,2

0010ebd0 <$LBE5>:
  10ebd0:	54400016 	bnezl	v0,10ec2c <$L50>
  10ebd4:	8d220004 	lw	v0,4(t1)

0010ebd8 <$LBB6>:
  10ebd8:	38620004 	xori	v0,v1,0x4

0010ebdc <$LBE6>:
  10ebdc:	1440000e 	bnez	v0,10ec18 <$L6>
  10ebe0:	38820004 	xori	v0,a0,0x4

0010ebe4 <$LBB7>:
  10ebe4:	38820002 	xori	v0,a0,0x2

0010ebe8 <$LBE7>:
  10ebe8:	50400009 	beqzl	v0,10ec10 <$L48>
  10ebec:	3c020011 	lui	v0,0x11

0010ebf0 <$L47>:
  10ebf0:	8d630004 	lw	v1,4(t3)

0010ebf4 <$L52>:
  10ebf4:	0120302d 	move	a2,t1

0010ebf8 <$LM24>:
  10ebf8:	8d220004 	lw	v0,4(t1)
  10ebfc:	00431026 	xor	v0,v0,v1
  10ec00:	0002102b 	sltu	v0,zero,v0
  10ec04:	ad220004 	sw	v0,4(t1)

0010ec08 <$L1>:
  10ec08:	03e00008 	jr	ra
  10ec0c:	00c0102d 	move	v0,a2

0010ec10 <$L48>:
  10ec10:	1000fffd 	b	10ec08 <$L1>
  10ec14:	2446fd70 	addiu	a2,v0,-656

0010ec18 <$L6>:
  10ec18:	1440000a 	bnez	v0,10ec44 <$L11>
  10ec1c:	38620002 	xori	v0,v1,0x2

0010ec20 <$LM29>:
  10ec20:	5040fffb 	beqzl	v0,10ec10 <$L48>
  10ec24:	3c020011 	lui	v0,0x11

0010ec28 <$LM30>:
  10ec28:	8d220004 	lw	v0,4(t1)

0010ec2c <$L50>:
  10ec2c:	0160302d 	move	a2,t3

0010ec30 <$LM32>:
  10ec30:	8d630004 	lw	v1,4(t3)
  10ec34:	00431026 	xor	v0,v0,v1
  10ec38:	0002102b 	sltu	v0,zero,v0

0010ec3c <$LM33>:
  10ec3c:	1000fff2 	b	10ec08 <$L1>
  10ec40:	ad620004 	sw	v0,4(t3)

0010ec44 <$L11>:
  10ec44:	5040ffeb 	beqzl	v0,10ebf4 <$L52>
  10ec48:	8d630004 	lw	v1,4(t3)

0010ec4c <$LBB9>:
  10ec4c:	38820002 	xori	v0,a0,0x2

0010ec50 <$LBE9>:
  10ec50:	5040fff6 	beqzl	v0,10ec2c <$L50>
  10ec54:	8d220004 	lw	v0,4(t1)

0010ec58 <$LBB10>:
  10ec58:	dd240010 	ld	a0,16(t1)

0010ec5c <$LBB11>:
  10ec5c:	dca30010 	ld	v1,16(a1)

0010ec60 <$LM39>:
  10ec60:	0004283f 	dsra32	a1,a0,0x0

0010ec64 <$LBE11>:
  10ec64:	8d280004 	lw	t0,4(t1)

0010ec68 <$LBB12>:
  10ec68:	0003383f 	dsra32	a3,v1,0x0

0010ec6c <$LM42>:
  10ec6c:	0004203c 	dsll32	a0,a0,0x0
  10ec70:	0004203f 	dsra32	a0,a0,0x0

0010ec74 <$LM43>:
  10ec74:	00e40019 	multu	a3,a0

0010ec78 <$LM44>:
  10ec78:	0003183c 	dsll32	v1,v1,0x0
  10ec7c:	0003183f 	dsra32	v1,v1,0x0

0010ec80 <$LM45>:
  10ec80:	70650019 	multu1	v1,a1

0010ec84 <$LBE12>:
  10ec84:	8d6a0004 	lw	t2,4(t3)
  10ec88:	010a4026 	xor	t0,t0,t2

0010ec8c <$LBB13>:
  10ec8c:	00001012 	mflo	v0
  10ec90:	00006810 	mfhi	t5
  10ec94:	0002103c 	dsll32	v0,v0,0x0
  10ec98:	000d683c 	dsll32	t5,t5,0x0
  10ec9c:	0002103e 	dsrl32	v0,v0,0x0
  10eca0:	01a26825 	or	t5,t5,v0

0010eca4 <$LM48>:
  10eca4:	70003012 	mflo1	a2

0010eca8 <$LBB14>:
  10eca8:	00640019 	multu	v1,a0

0010ecac <$LBB15>:
  10ecac:	0006303c 	dsll32	a2,a2,0x0

0010ecb0 <$LBE15>:
  10ecb0:	0008402b 	sltu	t0,zero,t0

0010ecb4 <$LBB16>:
  10ecb4:	70001010 	mfhi1	v0
  10ecb8:	0006303e 	dsrl32	a2,a2,0x0

0010ecbc <$LBB17>:
  10ecbc:	70e50019 	multu1	a3,a1

0010ecc0 <$LBB18>:
  10ecc0:	0002103c 	dsll32	v0,v0,0x0
  10ecc4:	00461025 	or	v0,v0,a2

0010ecc8 <$LBB19>:
  10ecc8:	00003012 	mflo	a2

0010eccc <$LBB20>:
  10eccc:	01a2102d 	daddu	v0,t5,v0

0010ecd0 <$LBB21>:
  10ecd0:	0006303c 	dsll32	a2,a2,0x0
  10ecd4:	00001810 	mfhi	v1

0010ecd8 <$LBB22>:
  10ecd8:	0002283c 	dsll32	a1,v0,0x0
  10ecdc:	0005283f 	dsra32	a1,a1,0x0

0010ece0 <$LBB23>:
  10ece0:	0006303e 	dsrl32	a2,a2,0x0

0010ece4 <$LM60>:
  10ece4:	70002012 	mflo1	a0

0010ece8 <$LM61>:
  10ece8:	0003183c 	dsll32	v1,v1,0x0

0010ecec <$LM62>:
  10ecec:	0004203c 	dsll32	a0,a0,0x0
  10ecf0:	70003810 	mfhi1	a3
  10ecf4:	0004203e 	dsrl32	a0,a0,0x0
  10ecf8:	0007383c 	dsll32	a3,a3,0x0

0010ecfc <$LM63>:
  10ecfc:	00661825 	or	v1,v1,a2

0010ed00 <$LM64>:
  10ed00:	00e43825 	or	a3,a3,a0

0010ed04 <$LBB24>:
  10ed04:	004d202b 	sltu	a0,v0,t5

0010ed08 <$LBE24>:
  10ed08:	8d260008 	lw	a2,8(t1)

0010ed0c <$LBB25>:
  10ed0c:	0005683c 	dsll32	t5,a1,0x0

0010ed10 <$LM68>:
  10ed10:	0004203c 	dsll32	a0,a0,0x0

0010ed14 <$LM69>:
  10ed14:	006d482d 	daddu	t1,v1,t5

0010ed18 <$LBE25>:
  10ed18:	8d650008 	lw	a1,8(t3)

0010ed1c <$LBB26>:
  10ed1c:	0002103e 	dsrl32	v0,v0,0x0

0010ed20 <$LM72>:
  10ed20:	0123182b 	sltu	v1,t1,v1

0010ed24 <$LBB27>:
  10ed24:	0047102d 	daddu	v0,v0,a3

0010ed28 <$LM74>:
  10ed28:	0083202d 	daddu	a0,a0,v1

0010ed2c <$LM75>:
  10ed2c:	0082382d 	daddu	a3,a0,v0

0010ed30 <$LBE27>:
  10ed30:	00c53021 	addu	a2,a2,a1

0010ed34 <$LM77>:
  10ed34:	2402ffff 	li	v0,-1
  10ed38:	000210fa 	dsrl	v0,v0,0x3

0010ed3c <$LM78>:
  10ed3c:	24c60004 	addiu	a2,a2,4

0010ed40 <$LM79>:
  10ed40:	0047102b 	sltu	v0,v0,a3

0010ed44 <$LBB28>:
  10ed44:	ad880004 	sw	t0,4(t4)

0010ed48 <$LM82>:
  10ed48:	10400012 	beqz	v0,10ed94 <$L43>
  10ed4c:	ad860008 	sw	a2,8(t4)
  10ed50:	34068000 	li	a2,0x8000
  10ed54:	0006343c 	dsll32	a2,a2,0x10
  10ed58:	2405ffff 	li	a1,-1
  10ed5c:	000528fa 	dsrl	a1,a1,0x3

0010ed60 <$LM83>:
  10ed60:	8d820008 	lw	v0,8(t4)

0010ed64 <$L53>:
  10ed64:	30e30001 	andi	v1,a3,0x1
  10ed68:	0003183c 	dsll32	v1,v1,0x0
  10ed6c:	0003183f 	dsra32	v1,v1,0x0
  10ed70:	0007387a 	dsrl	a3,a3,0x1

0010ed74 <$LM85>:
  10ed74:	24420001 	addiu	v0,v0,1

0010ed78 <$LM86>:
  10ed78:	00a7202b 	sltu	a0,a1,a3

0010ed7c <$LM87>:
  10ed7c:	10600003 	beqz	v1,10ed8c <$L25>
  10ed80:	ad820008 	sw	v0,8(t4)

0010ed84 <$LM88>:
  10ed84:	0009487a 	dsrl	t1,t1,0x1

0010ed88 <$LM89>:
  10ed88:	01264825 	or	t1,t1,a2

0010ed8c <$L25>:
  10ed8c:	5480fff5 	bnezl	a0,10ed64 <$L53>
  10ed90:	8d820008 	lw	v0,8(t4)

0010ed94 <$L43>:
  10ed94:	2402ffff 	li	v0,-1
  10ed98:	0002113a 	dsrl	v0,v0,0x4
  10ed9c:	0047102b 	sltu	v0,v0,a3
  10eda0:	14400011 	bnez	v0,10ede8 <$L54>
  10eda4:	30e300ff 	andi	v1,a3,0xff
  10eda8:	34088000 	li	t0,0x8000
  10edac:	0008443c 	dsll32	t0,t0,0x10
  10edb0:	24060001 	li	a2,1
  10edb4:	2405ffff 	li	a1,-1
  10edb8:	0005293a 	dsrl	a1,a1,0x4

0010edbc <$L31>:
  10edbc:	00073878 	dsll	a3,a3,0x1

0010edc0 <$LM93>:
  10edc0:	8d830008 	lw	v1,8(t4)

0010edc4 <$LM94>:
  10edc4:	01282024 	and	a0,t1,t0
  10edc8:	00e61025 	or	v0,a3,a2
  10edcc:	0044380b 	movn	a3,v0,a0

0010edd0 <$LM95>:
  10edd0:	2463ffff 	addiu	v1,v1,-1

0010edd4 <$LM96>:
  10edd4:	00a7102b 	sltu	v0,a1,a3

0010edd8 <$LM97>:
  10edd8:	ad830008 	sw	v1,8(t4)

0010eddc <$LM98>:
  10eddc:	1040fff7 	beqz	v0,10edbc <$L31>
  10ede0:	00094878 	dsll	t1,t1,0x1

0010ede4 <$LM99>:
  10ede4:	30e300ff 	andi	v1,a3,0xff

0010ede8 <$L54>:
  10ede8:	24020080 	li	v0,128
  10edec:	50620006 	beql	v1,v0,10ee08 <$L49>
  10edf0:	30e20100 	andi	v0,a3,0x100

0010edf4 <$L32>:
  10edf4:	24020003 	li	v0,3

0010edf8 <$LM102>:
  10edf8:	fd870010 	sd	a3,16(t4)

0010edfc <$LM103>:
  10edfc:	ad820000 	sw	v0,0(t4)

0010ee00 <$LM104>:
  10ee00:	1000ff81 	b	10ec08 <$L1>
  10ee04:	0180302d 	move	a2,t4

0010ee08 <$L49>:
  10ee08:	50400003 	beqzl	v0,10ee18 <$L33>
  10ee0c:	64e20080 	daddiu	v0,a3,128

0010ee10 <$LM106>:
  10ee10:	1000fff8 	b	10edf4 <$L32>
  10ee14:	64e70080 	daddiu	a3,a3,128

0010ee18 <$L33>:
  10ee18:	1000fff6 	b	10edf4 <$L32>
  10ee1c:	0049380b 	movn	a3,v0,t1

0010ee20 <dpdiv>:
  10ee20:	27bdff90 	addiu	sp,sp,-112
  10ee24:	00a0182d 	move	v1,a1
  10ee28:	0080102d 	move	v0,a0
  10ee2c:	ffb00050 	sd	s0,80(sp)

0010ee30 <$LM2>:
  10ee30:	27a40040 	addiu	a0,sp,64
  10ee34:	03a0282d 	move	a1,sp

0010ee38 <$LM3>:
  10ee38:	ffbf0060 	sd	ra,96(sp)

0010ee3c <$LM4>:
  10ee3c:	ffa30048 	sd	v1,72(sp)

0010ee40 <$LM5>:
  10ee40:	ffa20040 	sd	v0,64(sp)

0010ee44 <$LM6>:
  10ee44:	0c043cba 	jal	10f2e8 <__unpack_d>
  10ee48:	27b00020 	addiu	s0,sp,32

0010ee4c <$LM7>:
  10ee4c:	27a40048 	addiu	a0,sp,72
  10ee50:	0c043cba 	jal	10f2e8 <__unpack_d>
  10ee54:	0200282d 	move	a1,s0

0010ee58 <$LM8>:
  10ee58:	0200282d 	move	a1,s0
  10ee5c:	0c043ba0 	jal	10ee80 <_fpdiv_parts>
  10ee60:	03a0202d 	move	a0,sp

0010ee64 <$LM9>:
  10ee64:	0c043c56 	jal	10f158 <__pack_d>
  10ee68:	0040202d 	move	a0,v0
  10ee6c:	dfb00050 	ld	s0,80(sp)
  10ee70:	dfbf0060 	ld	ra,96(sp)
  10ee74:	03e00008 	jr	ra
  10ee78:	27bd0070 	addiu	sp,sp,112

0010ee7c <$LFE1>:
  10ee7c:	00000000 	nop

0010ee80 <_fpdiv_parts>:
  10ee80:	8c860000 	lw	a2,0(a0)

0010ee84 <$LM12>:
  10ee84:	0080382d 	move	a3,a0

0010ee88 <$LBE4>:
  10ee88:	2cc20002 	sltiu	v0,a2,2

0010ee8c <$LM15>:
  10ee8c:	14400012 	bnez	v0,10eed8 <$L1>
  10ee90:	0080182d 	move	v1,a0

0010ee94 <$LBB6>:
  10ee94:	8ca80000 	lw	t0,0(a1)

0010ee98 <$LBE6>:
  10ee98:	2d020002 	sltiu	v0,t0,2

0010ee9c <$LM19>:
  10ee9c:	1440000e 	bnez	v0,10eed8 <$L1>
  10eea0:	00a0182d 	move	v1,a1

0010eea4 <$LM20>:
  10eea4:	8c820004 	lw	v0,4(a0)

0010eea8 <$LBB8>:
  10eea8:	38c40004 	xori	a0,a2,0x4

0010eeac <$LBE8>:
  10eeac:	8ca30004 	lw	v1,4(a1)
  10eeb0:	00431026 	xor	v0,v0,v1

0010eeb4 <$LM23>:
  10eeb4:	10800004 	beqz	a0,10eec8 <$L7>
  10eeb8:	ace20004 	sw	v0,4(a3)

0010eebc <$LBB9>:
  10eebc:	38c20002 	xori	v0,a2,0x2

0010eec0 <$LBE9>:
  10eec0:	14400009 	bnez	v0,10eee8 <$L6>
  10eec4:	39020004 	xori	v0,t0,0x4

0010eec8 <$L7>:
  10eec8:	50c80005 	beql	a2,t0,10eee0 <$L36>
  10eecc:	3c020011 	lui	v0,0x11

0010eed0 <$L35>:
  10eed0:	00e0182d 	move	v1,a3

0010eed4 <$LM28>:
  10eed4:	00000000 	nop

0010eed8 <$L1>:
  10eed8:	03e00008 	jr	ra
  10eedc:	0060102d 	move	v0,v1

0010eee0 <$L36>:
  10eee0:	1000fffd 	b	10eed8 <$L1>
  10eee4:	2443fd70 	addiu	v1,v0,-656

0010eee8 <$L6>:
  10eee8:	54400005 	bnezl	v0,10ef00 <$L12>
  10eeec:	39020002 	xori	v0,t0,0x2

0010eef0 <$LM32>:
  10eef0:	00e0182d 	move	v1,a3

0010eef4 <$LM34>:
  10eef4:	fce00010 	sd	zero,16(a3)

0010eef8 <$LM35>:
  10eef8:	1000fff7 	b	10eed8 <$L1>
  10eefc:	ace00008 	sw	zero,8(a3)

0010ef00 <$L12>:
  10ef00:	54400005 	bnezl	v0,10ef18 <$L14>
  10ef04:	8ce30008 	lw	v1,8(a3)

0010ef08 <$LM37>:
  10ef08:	24020004 	li	v0,4

0010ef0c <$LM38>:
  10ef0c:	00e0182d 	move	v1,a3

0010ef10 <$LM39>:
  10ef10:	1000fff1 	b	10eed8 <$L1>
  10ef14:	ace20000 	sw	v0,0(a3)

0010ef18 <$L14>:
  10ef18:	8ca20008 	lw	v0,8(a1)

0010ef1c <$LM41>:
  10ef1c:	dca80010 	ld	t0,16(a1)

0010ef20 <$LM42>:
  10ef20:	dce60010 	ld	a2,16(a3)

0010ef24 <$LM43>:
  10ef24:	00621023 	subu	v0,v1,v0

0010ef28 <$LM44>:
  10ef28:	00c8202b 	sltu	a0,a2,t0
  10ef2c:	10800005 	beqz	a0,10ef44 <$L16>
  10ef30:	ace20008 	sw	v0,8(a3)

0010ef34 <$LM45>:
  10ef34:	2442ffff 	addiu	v0,v0,-1

0010ef38 <$LM46>:
  10ef38:	00063078 	dsll	a2,a2,0x1

0010ef3c <$LM47>:
  10ef3c:	ace20008 	sw	v0,8(a3)
  10ef40:	00c8202b 	sltu	a0,a2,t0

0010ef44 <$L16>:
  10ef44:	34028000 	li	v0,0x8000
  10ef48:	0002137c 	dsll32	v0,v0,0xd

0010ef4c <$LM49>:
  10ef4c:	0000282d 	move	a1,zero

0010ef50 <$L21>:
  10ef50:	54800004 	bnezl	a0,10ef64 <$L39>
  10ef54:	0002107a 	dsrl	v0,v0,0x1

0010ef58 <$LM51>:
  10ef58:	00a22825 	or	a1,a1,v0

0010ef5c <$LM52>:
  10ef5c:	00c8302f 	dsubu	a2,a2,t0

0010ef60 <$LM53>:
  10ef60:	0002107a 	dsrl	v0,v0,0x1

0010ef64 <$L39>:
  10ef64:	10400003 	beqz	v0,10ef74 <$L37>
  10ef68:	00063078 	dsll	a2,a2,0x1

0010ef6c <$LM55>:
  10ef6c:	1000fff8 	b	10ef50 <$L21>
  10ef70:	00c8202b 	sltu	a0,a2,t0

0010ef74 <$L37>:
  10ef74:	30a300ff 	andi	v1,a1,0xff
  10ef78:	24020080 	li	v0,128
  10ef7c:	50620003 	beql	v1,v0,10ef8c <$L38>
  10ef80:	30a20100 	andi	v0,a1,0x100

0010ef84 <$L22>:
  10ef84:	1000ffd2 	b	10eed0 <$L35>
  10ef88:	fce50010 	sd	a1,16(a3)

0010ef8c <$L38>:
  10ef8c:	50400003 	beqzl	v0,10ef9c <$L23>
  10ef90:	64a20080 	daddiu	v0,a1,128

0010ef94 <$LM59>:
  10ef94:	1000fffb 	b	10ef84 <$L22>
  10ef98:	64a50080 	daddiu	a1,a1,128

0010ef9c <$L23>:
  10ef9c:	1000fff9 	b	10ef84 <$L22>
  10efa0:	0046280b 	movn	a1,v0,a2

0010efa4 <$LFE2>:
  10efa4:	00000000 	nop

0010efa8 <dpcmp>:
  10efa8:	27bdff90 	addiu	sp,sp,-112
  10efac:	00a0182d 	move	v1,a1
  10efb0:	0080102d 	move	v0,a0
  10efb4:	ffb00050 	sd	s0,80(sp)

0010efb8 <$LM2>:
  10efb8:	27a40040 	addiu	a0,sp,64
  10efbc:	03a0282d 	move	a1,sp

0010efc0 <$LM3>:
  10efc0:	ffbf0060 	sd	ra,96(sp)

0010efc4 <$LM4>:
  10efc4:	ffa20040 	sd	v0,64(sp)

0010efc8 <$LM5>:
  10efc8:	ffa30048 	sd	v1,72(sp)

0010efcc <$LM6>:
  10efcc:	0c043cba 	jal	10f2e8 <__unpack_d>
  10efd0:	27b00020 	addiu	s0,sp,32

0010efd4 <$LM7>:
  10efd4:	27a40048 	addiu	a0,sp,72
  10efd8:	0c043cba 	jal	10f2e8 <__unpack_d>
  10efdc:	0200282d 	move	a1,s0

0010efe0 <$LM8>:
  10efe0:	0200282d 	move	a1,s0
  10efe4:	0c043cf0 	jal	10f3c0 <__fpcmp_parts_d>
  10efe8:	03a0202d 	move	a0,sp
  10efec:	dfb00050 	ld	s0,80(sp)
  10eff0:	dfbf0060 	ld	ra,96(sp)
  10eff4:	03e00008 	jr	ra
  10eff8:	27bd0070 	addiu	sp,sp,112

0010effc <$LFE1>:
  10effc:	00000000 	nop

0010f000 <litodp>:
  10f000:	27bdffd0 	addiu	sp,sp,-48

0010f004 <$LM2>:
  10f004:	00041fc2 	srl	v1,a0,0x1f

0010f008 <$LM3>:
  10f008:	24020003 	li	v0,3

0010f00c <$LM4>:
  10f00c:	ffbf0020 	sd	ra,32(sp)

0010f010 <$LM5>:
  10f010:	afa20000 	sw	v0,0(sp)

0010f014 <$LM6>:
  10f014:	1480000a 	bnez	a0,10f040 <$L2>
  10f018:	afa30004 	sw	v1,4(sp)

0010f01c <$LM7>:
  10f01c:	24020002 	li	v0,2
  10f020:	afa20000 	sw	v0,0(sp)

0010f024 <$L3>:
  10f024:	0c043c56 	jal	10f158 <__pack_d>
  10f028:	03a0202d 	move	a0,sp
  10f02c:	0040182d 	move	v1,v0

0010f030 <$L1>:
  10f030:	dfbf0020 	ld	ra,32(sp)
  10f034:	0060102d 	move	v0,v1
  10f038:	03e00008 	jr	ra
  10f03c:	27bd0030 	addiu	sp,sp,48

0010f040 <$L2>:
  10f040:	2402003c 	li	v0,60

0010f044 <$LM11>:
  10f044:	1060001a 	beqz	v1,10f0b0 <$L4>
  10f048:	afa20008 	sw	v0,8(sp)

0010f04c <$LM12>:
  10f04c:	3c028000 	lui	v0,0x8000
  10f050:	3403c1e0 	li	v1,0xc1e0
  10f054:	00031c3c 	dsll32	v1,v1,0x10
  10f058:	1082fff5 	beq	a0,v0,10f030 <$L1>
  10f05c:	00041023 	negu	v0,a0

0010f060 <$LM13>:
  10f060:	ffa20010 	sd	v0,16(sp)

0010f064 <$L6>:
  10f064:	dfa40010 	ld	a0,16(sp)
  10f068:	2402ffff 	li	v0,-1
  10f06c:	0002113a 	dsrl	v0,v0,0x4
  10f070:	0044102b 	sltu	v0,v0,a0
  10f074:	1440ffeb 	bnez	v0,10f024 <$L3>
  10f078:	8fa50008 	lw	a1,8(sp)
  10f07c:	2406ffff 	li	a2,-1
  10f080:	0006313a 	dsrl	a2,a2,0x4
  10f084:	00000000 	nop

0010f088 <$L10>:
  10f088:	00041878 	dsll	v1,a0,0x1

0010f08c <$LM16>:
  10f08c:	24a5ffff 	addiu	a1,a1,-1
  10f090:	00c3102b 	sltu	v0,a2,v1
  10f094:	0060202d 	move	a0,v1
  10f098:	1040fffb 	beqz	v0,10f088 <$L10>
  10f09c:	00000000 	nop
  10f0a0:	afa50008 	sw	a1,8(sp)
  10f0a4:	1000ffdf 	b	10f024 <$L3>
  10f0a8:	ffa30010 	sd	v1,16(sp)
  10f0ac:	00000000 	nop

0010f0b0 <$L4>:
  10f0b0:	1000ffec 	b	10f064 <$L6>
  10f0b4:	ffa40010 	sd	a0,16(sp)

0010f0b8 <dptoli>:
  10f0b8:	27bdffc0 	addiu	sp,sp,-64
  10f0bc:	0080102d 	move	v0,a0

0010f0c0 <$LM2>:
  10f0c0:	03a0282d 	move	a1,sp

0010f0c4 <$LM3>:
  10f0c4:	ffa20020 	sd	v0,32(sp)

0010f0c8 <$LM4>:
  10f0c8:	ffbf0030 	sd	ra,48(sp)

0010f0cc <$LM5>:
  10f0cc:	0c043cba 	jal	10f2e8 <__unpack_d>
  10f0d0:	27a40020 	addiu	a0,sp,32

0010f0d4 <$LBB3>:
  10f0d4:	8fa30000 	lw	v1,0(sp)

0010f0d8 <$LBE3>:
  10f0d8:	38620002 	xori	v0,v1,0x2

0010f0dc <$LM9>:
  10f0dc:	10400011 	beqz	v0,10f124 <$L1>
  10f0e0:	0000202d 	move	a0,zero

0010f0e4 <$LBB5>:
  10f0e4:	2c620002 	sltiu	v0,v1,2

0010f0e8 <$LBE5>:
  10f0e8:	1440000f 	bnez	v0,10f128 <$L17>
  10f0ec:	dfbf0030 	ld	ra,48(sp)

0010f0f0 <$LBB6>:
  10f0f0:	38620004 	xori	v0,v1,0x4

0010f0f4 <$LBE6>:
  10f0f4:	50400007 	beqzl	v0,10f114 <$L16>
  10f0f8:	3c037fff 	lui	v1,0x7fff

0010f0fc <$LM14>:
  10f0fc:	8fa50008 	lw	a1,8(sp)
  10f100:	04a00009 	bltz	a1,10f128 <$L17>
  10f104:	28a2001f 	slti	v0,a1,31

0010f108 <$LM15>:
  10f108:	1440000a 	bnez	v0,10f134 <$L11>
  10f10c:	2403003c 	li	v1,60

0010f110 <$LM16>:
  10f110:	3c037fff 	lui	v1,0x7fff

0010f114 <$L16>:
  10f114:	8fa20004 	lw	v0,4(sp)
  10f118:	3463ffff 	ori	v1,v1,0xffff
  10f11c:	3c048000 	lui	a0,0x8000
  10f120:	0062200a 	movz	a0,v1,v0

0010f124 <$L1>:
  10f124:	dfbf0030 	ld	ra,48(sp)

0010f128 <$L17>:
  10f128:	0080102d 	move	v0,a0
  10f12c:	03e00008 	jr	ra
  10f130:	27bd0040 	addiu	sp,sp,64

0010f134 <$L11>:
  10f134:	dfa20010 	ld	v0,16(sp)
  10f138:	00651823 	subu	v1,v1,a1
  10f13c:	00621016 	dsrlv	v0,v0,v1

0010f140 <$LM19>:
  10f140:	8fa30004 	lw	v1,4(sp)

0010f144 <$LM20>:
  10f144:	0002103c 	dsll32	v0,v0,0x0
  10f148:	0002103f 	dsra32	v0,v0,0x0

0010f14c <$LM21>:
  10f14c:	00022023 	negu	a0,v0
  10f150:	1000fff4 	b	10f124 <$L1>
  10f154:	0043200a 	movz	a0,v0,v1

0010f158 <__pack_d>:
  10f158:	8c830000 	lw	v1,0(a0)

0010f15c <$LBE3>:
  10f15c:	0000282d 	move	a1,zero

0010f160 <$LM4>:
  10f160:	dc870010 	ld	a3,16(a0)

0010f164 <$LM5>:
  10f164:	2c620002 	sltiu	v0,v1,2

0010f168 <$LM6>:
  10f168:	1040001d 	beqz	v0,10f1e0 <$L2>
  10f16c:	8c880004 	lw	t0,4(a0)

0010f170 <$LM8>:
  10f170:	34028000 	li	v0,0x8000
  10f174:	0002113c 	dsll32	v0,v0,0x4

0010f178 <$LM9>:
  10f178:	240507ff 	li	a1,2047

0010f17c <$LM10>:
  10f17c:	00e23825 	or	a3,a3,v0

0010f180 <$L5>:
  10f180:	3403fff0 	li	v1,0xfff0
  10f184:	00031c3c 	dsll32	v1,v1,0x10
  10f188:	2402ffff 	li	v0,-1
  10f18c:	0002133a 	dsrl	v0,v0,0xc
  10f190:	00e21024 	and	v0,a3,v0
  10f194:	00c33024 	and	a2,a2,v1
  10f198:	00c23025 	or	a2,a2,v0

0010f19c <$LM12>:
  10f19c:	30a307ff 	andi	v1,a1,0x7ff
  10f1a0:	3c02800f 	lui	v0,0x800f
  10f1a4:	3442ffff 	ori	v0,v0,0xffff
  10f1a8:	00021438 	dsll	v0,v0,0x10
  10f1ac:	3442ffff 	ori	v0,v0,0xffff
  10f1b0:	00021438 	dsll	v0,v0,0x10
  10f1b4:	3442ffff 	ori	v0,v0,0xffff
  10f1b8:	00031d3c 	dsll32	v1,v1,0x14
  10f1bc:	00c23024 	and	a2,a2,v0

0010f1c0 <$LM13>:
  10f1c0:	000827fc 	dsll32	a0,t0,0x1f

0010f1c4 <$LM14>:
  10f1c4:	00c33025 	or	a2,a2,v1

0010f1c8 <$LM15>:
  10f1c8:	2402ffff 	li	v0,-1
  10f1cc:	0002107a 	dsrl	v0,v0,0x1
  10f1d0:	00c23024 	and	a2,a2,v0

0010f1d4 <$LM16>:
  10f1d4:	03e00008 	jr	ra
  10f1d8:	00c41025 	or	v0,a2,a0
  10f1dc:	00000000 	nop

0010f1e0 <$L2>:
  10f1e0:	38620004 	xori	v0,v1,0x4

0010f1e4 <$LBE6>:
  10f1e4:	5040002b 	beqzl	v0,10f294 <$L32>
  10f1e8:	240507ff 	li	a1,2047

0010f1ec <$LBB7>:
  10f1ec:	38620002 	xori	v0,v1,0x2

0010f1f0 <$LBE7>:
  10f1f0:	5040ffe3 	beqzl	v0,10f180 <$L5>
  10f1f4:	0000382d 	move	a3,zero

0010f1f8 <$LM21>:
  10f1f8:	10e0ffe1 	beqz	a3,10f180 <$L5>
  10f1fc:	00000000 	nop

0010f200 <$LM22>:
  10f200:	8c840008 	lw	a0,8(a0)
  10f204:	2882fc02 	slti	v0,a0,-1022
  10f208:	1040001f 	beqz	v0,10f288 <$L14>
  10f20c:	28820400 	slti	v0,a0,1024

0010f210 <$LBB8>:
  10f210:	2403fc02 	li	v1,-1022

0010f214 <$LM24>:
  10f214:	24020001 	li	v0,1

0010f218 <$LM25>:
  10f218:	00641823 	subu	v1,v1,a0

0010f21c <$LM26>:
  10f21c:	00621014 	dsllv	v0,v0,v1

0010f220 <$LM27>:
  10f220:	00672816 	dsrlv	a1,a3,v1

0010f224 <$LM28>:
  10f224:	6442ffff 	daddiu	v0,v0,-1

0010f228 <$LM29>:
  10f228:	28630039 	slti	v1,v1,57

0010f22c <$LM30>:
  10f22c:	00e21024 	and	v0,a3,v0

0010f230 <$LM31>:
  10f230:	38630000 	xori	v1,v1,0x0
  10f234:	0002102b 	sltu	v0,zero,v0
  10f238:	0000382d 	move	a3,zero
  10f23c:	00a22825 	or	a1,a1,v0

0010f240 <$LM32>:
  10f240:	24020080 	li	v0,128

0010f244 <$LM33>:
  10f244:	00a3380b 	movn	a3,a1,v1

0010f248 <$LM34>:
  10f248:	30e400ff 	andi	a0,a3,0xff
  10f24c:	5082000a 	beql	a0,v0,10f278 <$L30>
  10f250:	30e20100 	andi	v0,a3,0x100

0010f254 <$LM35>:
  10f254:	64e7007f 	daddiu	a3,a3,127

0010f258 <$L19>:
  10f258:	2402ffff 	li	v0,-1
  10f25c:	0002113a 	dsrl	v0,v0,0x4
  10f260:	24030001 	li	v1,1
  10f264:	0047102b 	sltu	v0,v0,a3
  10f268:	0000282d 	move	a1,zero

0010f26c <$LM37>:
  10f26c:	00073a3a 	dsrl	a3,a3,0x8

0010f270 <$LBE8>:
  10f270:	1000ffc3 	b	10f180 <$L5>
  10f274:	0062280b 	movn	a1,v1,v0

0010f278 <$L30>:
  10f278:	5440fff7 	bnezl	v0,10f258 <$L19>
  10f27c:	64e70080 	daddiu	a3,a3,128

0010f280 <$LM40>:
  10f280:	1000fff5 	b	10f258 <$L19>
  10f284:	00000000 	nop

0010f288 <$L14>:
  10f288:	54400004 	bnezl	v0,10f29c <$L22>
  10f28c:	30e300ff 	andi	v1,a3,0xff

0010f290 <$LM42>:
  10f290:	240507ff 	li	a1,2047

0010f294 <$L32>:
  10f294:	1000ffba 	b	10f180 <$L5>
  10f298:	0000382d 	move	a3,zero

0010f29c <$L22>:
  10f29c:	24020080 	li	v0,128

0010f2a0 <$LM45>:
  10f2a0:	1062000b 	beq	v1,v0,10f2d0 <$L31>
  10f2a4:	248503ff 	addiu	a1,a0,1023

0010f2a8 <$LM46>:
  10f2a8:	64e7007f 	daddiu	a3,a3,127

0010f2ac <$L26>:
  10f2ac:	2402ffff 	li	v0,-1
  10f2b0:	000210fa 	dsrl	v0,v0,0x3
  10f2b4:	0047102b 	sltu	v0,v0,a3
  10f2b8:	5040ffb1 	beqzl	v0,10f180 <$L5>
  10f2bc:	00073a3a 	dsrl	a3,a3,0x8

0010f2c0 <$LM48>:
  10f2c0:	0007387a 	dsrl	a3,a3,0x1

0010f2c4 <$LM49>:
  10f2c4:	24a50001 	addiu	a1,a1,1

0010f2c8 <$LM50>:
  10f2c8:	1000ffad 	b	10f180 <$L5>
  10f2cc:	00073a3a 	dsrl	a3,a3,0x8

0010f2d0 <$L31>:
  10f2d0:	30e20100 	andi	v0,a3,0x100
  10f2d4:	5440fff5 	bnezl	v0,10f2ac <$L26>
  10f2d8:	64e70080 	daddiu	a3,a3,128

0010f2dc <$LM52>:
  10f2dc:	1000fff3 	b	10f2ac <$L26>
  10f2e0:	00000000 	nop

0010f2e4 <$LFE1>:
  10f2e4:	00000000 	nop

0010f2e8 <__unpack_d>:
  10f2e8:	dc830000 	ld	v1,0(a0)

0010f2ec <$LM3>:
  10f2ec:	0003153e 	dsrl32	v0,v1,0x14

0010f2f0 <$LM4>:
  10f2f0:	000327fe 	dsrl32	a0,v1,0x1f

0010f2f4 <$LM5>:
  10f2f4:	304707ff 	andi	a3,v0,0x7ff

0010f2f8 <$LM6>:
  10f2f8:	aca40004 	sw	a0,4(a1)

0010f2fc <$LM7>:
  10f2fc:	2402ffff 	li	v0,-1
  10f300:	0002133a 	dsrl	v0,v0,0xc

0010f304 <$LM8>:
  10f304:	14e00018 	bnez	a3,10f368 <$L2>
  10f308:	00623024 	and	a2,v1,v0

0010f30c <$LM10>:
  10f30c:	10c00014 	beqz	a2,10f360 <$L20>
  10f310:	24020002 	li	v0,2

0010f314 <$LM11>:
  10f314:	00063238 	dsll	a2,a2,0x8

0010f318 <$LM13>:
  10f318:	2402ffff 	li	v0,-1
  10f31c:	0002113a 	dsrl	v0,v0,0x4

0010f320 <$LM14>:
  10f320:	2403fc02 	li	v1,-1022

0010f324 <$LM15>:
  10f324:	24040003 	li	a0,3

0010f328 <$LM16>:
  10f328:	0046102b 	sltu	v0,v0,a2

0010f32c <$LM17>:
  10f32c:	aca30008 	sw	v1,8(a1)

0010f330 <$LM18>:
  10f330:	14400009 	bnez	v0,10f358 <$L14>
  10f334:	aca40000 	sw	a0,0(a1)
  10f338:	2404ffff 	li	a0,-1
  10f33c:	0004213a 	dsrl	a0,a0,0x4

0010f340 <$L8>:
  10f340:	00063078 	dsll	a2,a2,0x1

0010f344 <$LM20>:
  10f344:	2463ffff 	addiu	v1,v1,-1
  10f348:	0086102b 	sltu	v0,a0,a2
  10f34c:	1040fffc 	beqz	v0,10f340 <$L8>
  10f350:	00000000 	nop
  10f354:	aca30008 	sw	v1,8(a1)

0010f358 <$L14>:
  10f358:	03e00008 	jr	ra
  10f35c:	fca60010 	sd	a2,16(a1)

0010f360 <$L20>:
  10f360:	03e00008 	jr	ra
  10f364:	aca20000 	sw	v0,0(a1)

0010f368 <$L2>:
  10f368:	240207ff 	li	v0,2047
  10f36c:	10e20009 	beq	a3,v0,10f394 <$L21>
  10f370:	00061238 	dsll	v0,a2,0x8

0010f374 <$LM24>:
  10f374:	34038000 	li	v1,0x8000
  10f378:	00031b7c 	dsll32	v1,v1,0xd

0010f37c <$LM25>:
  10f37c:	24e4fc01 	addiu	a0,a3,-1023

0010f380 <$LM26>:
  10f380:	00431025 	or	v0,v0,v1

0010f384 <$LM27>:
  10f384:	aca40008 	sw	a0,8(a1)

0010f388 <$LM28>:
  10f388:	fca20010 	sd	v0,16(a1)

0010f38c <$LM29>:
  10f38c:	1000fff4 	b	10f360 <$L20>
  10f390:	24020003 	li	v0,3

0010f394 <$L21>:
  10f394:	10c0fff2 	beqz	a2,10f360 <$L20>
  10f398:	24020004 	li	v0,4

0010f39c <$LM32>:
  10f39c:	34028000 	li	v0,0x8000
  10f3a0:	0002113c 	dsll32	v0,v0,0x4
  10f3a4:	00c21024 	and	v0,a2,v0
  10f3a8:	5040ffeb 	beqzl	v0,10f358 <$L14>
  10f3ac:	aca00000 	sw	zero,0(a1)

0010f3b0 <$LM33>:
  10f3b0:	24020001 	li	v0,1
  10f3b4:	1000ffe8 	b	10f358 <$L14>
  10f3b8:	aca20000 	sw	v0,0(a1)

0010f3bc <$LFE1>:
  10f3bc:	00000000 	nop

0010f3c0 <__fpcmp_parts_d>:
  10f3c0:	8c830000 	lw	v1,0(a0)
  10f3c4:	2c620002 	sltiu	v0,v1,2

0010f3c8 <$LBE2>:
  10f3c8:	14400006 	bnez	v0,10f3e4 <$L1>
  10f3cc:	24070001 	li	a3,1

0010f3d0 <$LBB3>:
  10f3d0:	8ca60000 	lw	a2,0(a1)
  10f3d4:	2cc20002 	sltiu	v0,a2,2

0010f3d8 <$LBE3>:
  10f3d8:	50400005 	beqzl	v0,10f3f0 <$L2>
  10f3dc:	38620004 	xori	v0,v1,0x4

0010f3e0 <$LM6>:
  10f3e0:	24070001 	li	a3,1

0010f3e4 <$L1>:
  10f3e4:	03e00008 	jr	ra
  10f3e8:	00e0102d 	move	v0,a3
  10f3ec:	00000000 	nop

0010f3f0 <$L2>:
  10f3f0:	14400009 	bnez	v0,10f418 <$L51>
  10f3f4:	38620004 	xori	v0,v1,0x4

0010f3f8 <$LBB5>:
  10f3f8:	38c20004 	xori	v0,a2,0x4

0010f3fc <$LBE5>:
  10f3fc:	54400006 	bnezl	v0,10f418 <$L51>
  10f400:	38620004 	xori	v0,v1,0x4

0010f404 <$LM12>:
  10f404:	8ca30004 	lw	v1,4(a1)
  10f408:	8c820004 	lw	v0,4(a0)
  10f40c:	1000fff5 	b	10f3e4 <$L1>
  10f410:	00623823 	subu	a3,v1,v0
  10f414:	00000000 	nop

0010f418 <$L51>:
  10f418:	50400013 	beqzl	v0,10f468 <$L48>
  10f41c:	8c830004 	lw	v1,4(a0)

0010f420 <$LBB7>:
  10f420:	38c20004 	xori	v0,a2,0x4

0010f424 <$LBE7>:
  10f424:	5040000a 	beqzl	v0,10f450 <$L45>
  10f428:	8ca30004 	lw	v1,4(a1)

0010f42c <$LBB8>:
  10f42c:	38620002 	xori	v0,v1,0x2

0010f430 <$LBE8>:
  10f430:	1440000b 	bnez	v0,10f460 <$L20>
  10f434:	38c20002 	xori	v0,a2,0x2

0010f438 <$LBB9>:
  10f438:	1040ffea 	beqz	v0,10f3e4 <$L1>
  10f43c:	0000382d 	move	a3,zero

0010f440 <$LBB10>:
  10f440:	38620002 	xori	v0,v1,0x2

0010f444 <$LBE10>:
  10f444:	54400006 	bnezl	v0,10f460 <$L20>
  10f448:	38c20002 	xori	v0,a2,0x2

0010f44c <$LM23>:
  10f44c:	8ca30004 	lw	v1,4(a1)

0010f450 <$L45>:
  10f450:	24070001 	li	a3,1

0010f454 <$L54>:
  10f454:	2402ffff 	li	v0,-1

0010f458 <$L43>:
  10f458:	1000ffe2 	b	10f3e4 <$L1>
  10f45c:	0043380a 	movz	a3,v0,v1

0010f460 <$L20>:
  10f460:	14400004 	bnez	v0,10f474 <$L24>
  10f464:	8c830004 	lw	v1,4(a0)

0010f468 <$L48>:
  10f468:	2407ffff 	li	a3,-1

0010f46c <$L53>:
  10f46c:	1000fffa 	b	10f458 <$L43>
  10f470:	24020001 	li	v0,1

0010f474 <$L24>:
  10f474:	8ca20004 	lw	v0,4(a1)
  10f478:	1462fffc 	bne	v1,v0,10f46c <$L53>
  10f47c:	2407ffff 	li	a3,-1

0010f480 <$LM30>:
  10f480:	8c870008 	lw	a3,8(a0)
  10f484:	8ca60008 	lw	a2,8(a1)
  10f488:	00c7102a 	slt	v0,a2,a3
  10f48c:	5440fff7 	bnezl	v0,10f46c <$L53>
  10f490:	2407ffff 	li	a3,-1

0010f494 <$LM31>:
  10f494:	00e6102a 	slt	v0,a3,a2
  10f498:	5440ffee 	bnezl	v0,10f454 <$L54>
  10f49c:	24070001 	li	a3,1

0010f4a0 <$LM32>:
  10f4a0:	dc860010 	ld	a2,16(a0)
  10f4a4:	dca40010 	ld	a0,16(a1)
  10f4a8:	0086102b 	sltu	v0,a0,a2
  10f4ac:	5440ffef 	bnezl	v0,10f46c <$L53>
  10f4b0:	2407ffff 	li	a3,-1

0010f4b4 <$LM33>:
  10f4b4:	00c4102b 	sltu	v0,a2,a0
  10f4b8:	5440ffe6 	bnezl	v0,10f454 <$L54>
  10f4bc:	24070001 	li	a3,1

0010f4c0 <$LM34>:
  10f4c0:	1000ffc8 	b	10f3e4 <$L1>
  10f4c4:	0000382d 	move	a3,zero

0010f4c8 <$LFE1>:
  10f4c8:	27bdffd0 	addiu	sp,sp,-48
  10f4cc:	3c020011 	lui	v0,0x11
  10f4d0:	ffb00000 	sd	s0,0(sp)
  10f4d4:	24422c2c 	addiu	v0,v0,11308
  10f4d8:	ffbf0020 	sd	ra,32(sp)
  10f4dc:	2403ffff 	li	v1,-1
  10f4e0:	ffb10010 	sd	s1,16(sp)
  10f4e4:	8c44fffc 	lw	a0,-4(v0)
  10f4e8:	10830008 	beq	a0,v1,10f50c <$LFE1+0x44>
  10f4ec:	2450fffc 	addiu	s0,v0,-4
  10f4f0:	0080182d 	move	v1,a0
  10f4f4:	2411ffff 	li	s1,-1
  10f4f8:	0060f809 	jalr	v1
  10f4fc:	2610fffc 	addiu	s0,s0,-4
  10f500:	8e020000 	lw	v0,0(s0)
  10f504:	1451fffc 	bne	v0,s1,10f4f8 <$LFE1+0x30>
  10f508:	0040182d 	move	v1,v0
  10f50c:	dfbf0020 	ld	ra,32(sp)
  10f510:	dfb10010 	ld	s1,16(sp)
  10f514:	dfb00000 	ld	s0,0(sp)
  10f518:	03e00008 	jr	ra
  10f51c:	27bd0030 	addiu	sp,sp,48

0010f520 <call___do_global_ctors_aux>:
  10f520:	27bdfff0 	addiu	sp,sp,-16
  10f524:	ffbf0000 	sd	ra,0(sp)
  10f528:	dfbf0000 	ld	ra,0(sp)
  10f52c:	03e00008 	jr	ra
  10f530:	27bd0010 	addiu	sp,sp,16
  10f534:	00000000 	nop
Disassembly of section .fini:

0010f538 <_fini>:
  10f538:	27bdffa0 	addiu	sp,sp,-96
  10f53c:	7fbf0050 	sq	ra,80(sp)
  10f540:	0c04000c 	jal	100030 <_ftext>
  10f544:	00000000 	nop
  10f548:	7bbf0050 	lq	ra,80(sp)
  10f54c:	03e00008 	jr	ra
  10f550:	27bd0060 	addiu	sp,sp,96
Disassembly of section .rodata:

0010f558 <_global_impure_ptr-0x4>:
  10f558:	00000043 	sra	zero,zero,0x1

0010f55c <_global_impure_ptr>:
  10f55c:	00110880 	sll	at,s1,0x2

0010f560 <blanks.0>:
  10f560:	20202020 	addi	zero,at,8224
  10f564:	20202020 	addi	zero,at,8224
  10f568:	20202020 	addi	zero,at,8224
  10f56c:	20202020 	addi	zero,at,8224

0010f570 <zeroes.1>:
  10f570:	30303030 	andi	s0,at,0x3030
  10f574:	30303030 	andi	s0,at,0x3030
  10f578:	30303030 	andi	s0,at,0x3030
  10f57c:	30303030 	andi	s0,at,0x3030
  10f580:	20677562 	addi	a3,v1,30050
  10f584:	76206e69 	jalx	881b9a4 <_gp+0x8700d74>
  10f588:	69727066 	ldl	s2,28774(t3)
  10f58c:	3a66746e 	xori	a2,s3,0x746e
  10f590:	64616220 	daddiu	at,v1,25120
  10f594:	73616220 	0x73616220
  10f598:	00000065 	0x65
  10f59c:	00000000 	nop
  10f5a0:	00000030 	tge	zero,zero
  10f5a4:	00000000 	nop
  10f5a8:	0000002e 	dneg	zero,zero
  10f5ac:	00000000 	nop
  10f5b0:	33323130 	andi	s2,t9,0x3130
  10f5b4:	37363534 	ori	s6,t9,0x3534
  10f5b8:	42413938 	c0	0x413938
  10f5bc:	46454443 	c1	0x454443
	...
  10f5c8:	00666e69 	0x666e69
  10f5cc:	00000000 	nop
  10f5d0:	00464e49 	0x464e49
  10f5d4:	00000000 	nop
  10f5d8:	006e616e 	0x6e616e
  10f5dc:	00000000 	nop
  10f5e0:	004e414e 	0x4e414e
  10f5e4:	00000000 	nop
  10f5e8:	33323130 	andi	s2,t9,0x3130
  10f5ec:	37363534 	ori	s6,t9,0x3534
  10f5f0:	62613938 	daddi	at,s3,14648
  10f5f4:	66656463 	daddiu	a1,s3,25699
	...
  10f600:	6c756e28 	ldr	s5,28200(v1)
  10f604:	0000296c 	0x296c
  10f608:	00100c9c 	0x100c9c
  10f60c:	0010242c 	0x10242c
  10f610:	0010242c 	0x10242c
  10f614:	00100cbc 	dsll32	at,s0,0x12
  10f618:	0010242c 	0x10242c
  10f61c:	0010242c 	0x10242c
  10f620:	0010242c 	0x10242c
  10f624:	0010242c 	0x10242c
  10f628:	0010242c 	0x10242c
  10f62c:	0010242c 	0x10242c
  10f630:	00100cd0 	0x100cd0
  10f634:	00100d04 	0x100d04
  10f638:	0010242c 	0x10242c
  10f63c:	00100cf4 	teq	zero,s0,0x33
  10f640:	00100d10 	0x100d10
  10f644:	0010242c 	0x10242c
  10f648:	00100d90 	0x100d90
  10f64c:	00100da4 	0x100da4
  10f650:	00100da4 	0x100da4
  10f654:	00100da4 	0x100da4
  10f658:	00100da4 	0x100da4
  10f65c:	00100da4 	0x100da4
  10f660:	00100da4 	0x100da4
  10f664:	00100da4 	0x100da4
  10f668:	00100da4 	0x100da4
  10f66c:	00100da4 	0x100da4
  10f670:	0010242c 	0x10242c
  10f674:	0010242c 	0x10242c
  10f678:	0010242c 	0x10242c
  10f67c:	0010242c 	0x10242c
  10f680:	0010242c 	0x10242c
  10f684:	0010242c 	0x10242c
  10f688:	0010242c 	0x10242c
  10f68c:	0010242c 	0x10242c
  10f690:	0010242c 	0x10242c
  10f694:	00101e94 	0x101e94
  10f698:	00100dd8 	0x100dd8
  10f69c:	00101f28 	0x101f28
  10f6a0:	00101f28 	0x101f28
  10f6a4:	00101f28 	0x101f28
  10f6a8:	0010242c 	0x10242c
  10f6ac:	0010242c 	0x10242c
  10f6b0:	0010242c 	0x10242c
  10f6b4:	0010242c 	0x10242c
  10f6b8:	00101cf0 	tge	zero,s0,0x73
  10f6bc:	0010242c 	0x10242c
  10f6c0:	0010242c 	0x10242c
  10f6c4:	00101d00 	sll	v1,s0,0x14
  10f6c8:	0010242c 	0x10242c
  10f6cc:	0010242c 	0x10242c
  10f6d0:	0010242c 	0x10242c
  10f6d4:	001022ac 	0x1022ac
  10f6d8:	0010242c 	0x10242c
  10f6dc:	00101d80 	sll	v1,s0,0x16
  10f6e0:	0010242c 	0x10242c
  10f6e4:	0010242c 	0x10242c
  10f6e8:	00101dfc 	dsll32	v1,s0,0x17
  10f6ec:	0010242c 	0x10242c
  10f6f0:	0010242c 	0x10242c
  10f6f4:	0010242c 	0x10242c
  10f6f8:	0010242c 	0x10242c
  10f6fc:	0010242c 	0x10242c
  10f700:	0010242c 	0x10242c
  10f704:	0010242c 	0x10242c
  10f708:	0010242c 	0x10242c
  10f70c:	0010242c 	0x10242c
  10f710:	0010242c 	0x10242c
  10f714:	00101e94 	0x101e94
  10f718:	00100de4 	0x100de4
  10f71c:	00101f28 	0x101f28
  10f720:	00101f28 	0x101f28
  10f724:	00101f28 	0x101f28
  10f728:	00102194 	0x102194
  10f72c:	00100de4 	0x100de4
  10f730:	0010242c 	0x10242c
  10f734:	0010242c 	0x10242c
  10f738:	001021a4 	0x1021a4
  10f73c:	0010242c 	0x10242c
  10f740:	001021d8 	0x1021d8
  10f744:	00101d0c 	syscall	0x4074
  10f748:	00102268 	0x102268
  10f74c:	0010229c 	0x10229c
  10f750:	0010242c 	0x10242c
  10f754:	001022ac 	0x1022ac
  10f758:	0010242c 	0x10242c
  10f75c:	00101d8c 	syscall	0x4076
  10f760:	0010242c 	0x10242c
  10f764:	0010242c 	0x10242c
  10f768:	00102470 	tge	zero,s0,0x91
  10f76c:	00000000 	nop
  10f770:	54552d43 	bnel	v0,s5,11ac80 <_gp+0x50>
  10f774:	00382d46 	0x382d46
  10f778:	4a532d43 	vaddw.z	vf21,vf05,vf19w
  10f77c:	00005349 	0x5349
  10f780:	55452d43 	bnel	t2,a1,11ac90 <_gp+0x60>
  10f784:	00504a43 	0x504a43
  10f788:	494a2d43 	0x494a2d43
  10f78c:	00000053 	0x53
  10f790:	00000030 	tge	zero,zero
  10f794:	00000000 	nop
  10f798:	69666e49 	ldl	a2,28233(t3)
  10f79c:	7974696e 	lq	s4,26990(t3)
	...
  10f7a8:	004e614e 	0x4e614e
  10f7ac:	00000000 	nop
  10f7b0:	636f4361 	daddi	t7,k1,17249
  10f7b4:	3fd287a7 	0x3fd287a7
  10f7b8:	8b60c8b3 	lwl	zero,-14157(k1)
  10f7bc:	3fc68a28 	0x3fc68a28
  10f7c0:	509f79fb 	beql	a0,ra,12dfb0 <_gp+0x13380>
  10f7c4:	3fd34413 	0x3fd34413
  10f7c8:	00103450 	0x103450
  10f7cc:	00103450 	0x103450
  10f7d0:	001041d4 	0x1041d4
  10f7d4:	001041f8 	dsll	t0,s0,0x7
  10f7d8:	001041d8 	0x1041d8
  10f7dc:	001041fc 	dsll32	t0,s0,0x7
  10f7e0:	0000002e 	dneg	zero,zero
	...

0010f7f0 <lconv>:
  10f7f0:	0010f7e0 	0x10f7e0
  10f7f4:	0010f7e8 	0x10f7e8
  10f7f8:	0010f7e8 	0x10f7e8
  10f7fc:	0010f7e8 	0x10f7e8
  10f800:	0010f7e8 	0x10f7e8
  10f804:	0010f7e8 	0x10f7e8
  10f808:	0010f7e8 	0x10f7e8
  10f80c:	0010f7e8 	0x10f7e8
  10f810:	0010f7e8 	0x10f7e8
  10f814:	0010f7e8 	0x10f7e8
  10f818:	7f7f7f7f 	sq	ra,32639(k1)
  10f81c:	7f7f7f7f 	sq	ra,32639(k1)
  10f820:	2d4f5349 	sltiu	t7,t2,21321
  10f824:	39353838 	xori	s5,t1,0x3838
  10f828:	0000312d 	0x312d
  10f82c:	00000000 	nop
  10f830:	00000043 	sra	zero,zero,0x1
  10f834:	00000000 	nop

0010f838 <p05.0>:
  10f838:	00000005 	0x5
  10f83c:	00000019 	multu	zero,zero
  10f840:	0000007d 	0x7d
  10f844:	00000000 	nop

0010f848 <__mprec_tens>:
  10f848:	00000000 	nop
  10f84c:	3ff00000 	0x3ff00000
  10f850:	00000000 	nop
  10f854:	40240000 	dmfc0	a0,$0
  10f858:	00000000 	nop
  10f85c:	40590000 	cfc0	t9,$0
  10f860:	00000000 	nop
  10f864:	408f4000 	mtc0	t7,$8
  10f868:	00000000 	nop
  10f86c:	40c38800 	ctc0	v1,$17
  10f870:	00000000 	nop
  10f874:	40f86a00 	0x40f86a00
  10f878:	00000000 	nop
  10f87c:	412e8480 	0x412e8480
  10f880:	00000000 	nop
  10f884:	416312d0 	0x416312d0
  10f888:	00000000 	nop
  10f88c:	4197d784 	0x4197d784
  10f890:	00000000 	nop
  10f894:	41cdcd65 	0x41cdcd65
  10f898:	20000000 	addi	zero,zero,0
  10f89c:	4202a05f 	c0	0x2a05f
  10f8a0:	e8000000 	swc2	$0,0(zero)
  10f8a4:	42374876 	c0	0x374876
  10f8a8:	a2000000 	sb	zero,0(s0)
  10f8ac:	426d1a94 	c0	0x6d1a94
  10f8b0:	e5400000 	swc1	$f0,0(t2)
  10f8b4:	42a2309c 	c0	0xa2309c
  10f8b8:	1e900000 	0x1e900000
  10f8bc:	42d6bcc4 	c0	0xd6bcc4
  10f8c0:	26340000 	addiu	s4,s1,0
  10f8c4:	430c6bf5 	c0	0x10c6bf5
  10f8c8:	37e08000 	ori	zero,ra,0x8000
  10f8cc:	4341c379 	c0	0x141c379
  10f8d0:	85d8a000 	lh	t8,-24576(t6)
  10f8d4:	43763457 	c0	0x1763457
  10f8d8:	674ec800 	daddiu	t6,k0,-14336
  10f8dc:	43abc16d 	c0	0x1abc16d
  10f8e0:	60913d00 	daddi	s1,a0,15616
  10f8e4:	43e158e4 	c0	0x1e158e4
  10f8e8:	78b58c40 	lq	s5,-29632(a1)
  10f8ec:	4415af1d 	0x4415af1d
  10f8f0:	d6e2ef50 	ldc1	$f2,-4272(s7)
  10f8f4:	444b1ae4 	0x444b1ae4
  10f8f8:	064dd592 	0x64dd592
  10f8fc:	4480f0cf 	0x4480f0cf
  10f900:	c7e14af6 	lwc1	$f1,19190(ra)
  10f904:	44b52d02 	0x44b52d02
  10f908:	79d99db4 	lq	t9,-25164(t6)
  10f90c:	44ea7843 	0x44ea7843

0010f910 <__mprec_bigtens>:
  10f910:	37e08000 	ori	zero,ra,0x8000
  10f914:	4341c379 	c0	0x141c379
  10f918:	b5056e17 	sdr	a1,28183(t0)
  10f91c:	4693b8b5 	c1	0x93b8b5
  10f920:	e93ff9f5 	swc2	$31,-1547(t1)
  10f924:	4d384f03 	0x4d384f03
  10f928:	f9301d32 	sqc2	vf16,7474(t1)
  10f92c:	5a827748 	0x5a827748
  10f930:	7f73bf3c 	sq	s3,-16580(k1)
  10f934:	75154fdd 	jalx	4553f74 <_gp+0x4439344>

0010f938 <__mprec_tinytens>:
  10f938:	97d889bc 	lhu	t8,-30276(s8)
  10f93c:	3c9cd2b2 	0x3c9cd2b2
  10f940:	d5a8a733 	ldc1	$f8,-22733(t5)
  10f944:	3949f623 	xori	t1,t2,0xf623
  10f948:	44f4a73d 	0x44f4a73d
  10f94c:	32a50ffd 	andi	a1,s5,0xffd
  10f950:	cf8c979d 	pref	0xc,-26723(gp)
  10f954:	255bba08 	addiu	k1,t2,-17912
  10f958:	64ac6f43 	daddiu	t4,a1,28483
  10f95c:	0ac80628 	j	b2018a0 <_gp+0xb0e6c70>
  10f960:	69776572 	ldl	s7,25970(t3)
  10f964:	6964646e 	ldl	a0,25710(t3)
  10f968:	6f6e2072 	ldr	t6,8306(k1)
  10f96c:	6d692074 	ldr	t1,8308(t3)
  10f970:	6d656c70 	ldr	a1,27760(t3)
  10f974:	65746e65 	daddiu	s4,t3,28261
  10f978:	00000064 	0x64
  10f97c:	00000000 	nop
  10f980:	74736f68 	jalx	1cdbda0 <_gp+0x1bc1170>
  10f984:	0000003a 	dsrl	zero,zero,0x0
  10f988:	306d6f72 	andi	t5,v1,0x6f72
  10f98c:	4d4f523a 	0x4d4f523a
  10f990:	00524556 	0x524556
  10f994:	00000000 	nop
  10f998:	6e72654b 	ldr	s2,25931(s3)
  10f99c:	6f546c65 	ldr	s4,27749(k0)
  10f9a0:	72685470 	0x72685470
  10f9a4:	00646165 	0x646165

0010f9a8 <SysEntry>:
  10f9a8:	0000005a 	0x5a
  10f9ac:	0010a170 	tge	zero,s0,0x285
  10f9b0:	0000005b 	0x5b
  10f9b4:	80075000 	lb	a3,20480(zero)
  10f9b8:	00000054 	0x54
  10f9bc:	00000000 	nop
  10f9c0:	00000055 	0x55
  10f9c4:	00000000 	nop
  10f9c8:	00000056 	0x56
  10f9cc:	00000000 	nop
  10f9d0:	00000057 	0x57
  10f9d4:	00000000 	nop
  10f9d8:	00000058 	0x58
  10f9dc:	00000000 	nop
  10f9e0:	00000059 	0x59
  10f9e4:	00000000 	nop

0010f9e8 <kernelTLB>:
  10f9e8:	00000000 	nop
  10f9ec:	70000000 	madd	zero,zero
  10f9f0:	80000007 	lb	zero,7(zero)
  10f9f4:	00000007 	srav	zero,zero,zero
  10f9f8:	00006000 	sll	t4,zero,0x0
  10f9fc:	ffff8000 	sd	ra,-32768(ra)
  10fa00:	00001e1f 	0x1e1f
  10fa04:	00001f1f 	0x1f1f
  10fa08:	00000000 	nop
  10fa0c:	10000000 	b	10fa10 <kernelTLB+0x28>
  10fa10:	00400017 	dsrav	zero,zero,v0
  10fa14:	00400053 	0x400053
  10fa18:	00000000 	nop
  10fa1c:	10002000 	b	117a20 <_end+0x2340>
  10fa20:	00400097 	0x400097
  10fa24:	004000d7 	0x4000d7
  10fa28:	00000000 	nop
  10fa2c:	10004000 	b	11fa30 <_gp+0x4e00>
  10fa30:	00400117 	0x400117
  10fa34:	00400157 	0x400157
  10fa38:	00000000 	nop
  10fa3c:	10006000 	b	127a40 <_gp+0xce10>
  10fa40:	00400197 	0x400197
  10fa44:	004001d7 	0x4001d7
  10fa48:	00000000 	nop
  10fa4c:	10008000 	b	efa50 <_stack_size+0xcfa50>
  10fa50:	00400217 	0x400217
  10fa54:	00400257 	0x400257
  10fa58:	00000000 	nop
  10fa5c:	1000a000 	b	f7a60 <_stack_size+0xd7a60>
  10fa60:	00400297 	0x400297
  10fa64:	004002d7 	0x4002d7
  10fa68:	00000000 	nop
  10fa6c:	1000c000 	b	ffa70 <_stack_size+0xdfa70>
  10fa70:	00400313 	0x400313
  10fa74:	00400357 	0x400357
  10fa78:	00000000 	nop
  10fa7c:	1000e000 	b	107a80 <strcmp+0xd0>
  10fa80:	00400397 	0x400397
  10fa84:	004003d7 	0x4003d7
  10fa88:	0001e000 	sll	gp,at,0x0
  10fa8c:	11000000 	beqz	t0,10fa90 <kernelTLB+0xa8>
  10fa90:	00440017 	dsrav	zero,a0,v0
  10fa94:	00440415 	0x440415
  10fa98:	0001e000 	sll	gp,at,0x0
  10fa9c:	12000000 	beqz	s0,10faa0 <kernelTLB+0xb8>
  10faa0:	00480017 	dsrav	zero,t0,v0
  10faa4:	00480415 	0x480415
  10faa8:	01ffe000 	0x1ffe000
  10faac:	1e000000 	bgtz	s0,10fab0 <kernelTLB+0xc8>
  10fab0:	00780017 	dsrav	zero,t8,v1
  10fab4:	007c0017 	dsrav	zero,gp,v1

0010fab8 <defaultTLB>:
  10fab8:	0007e000 	sll	gp,a3,0x0
  10fabc:	00080000 	sll	zero,t0,0x0
  10fac0:	0000201f 	0x201f
  10fac4:	0000301f 	0x301f
  10fac8:	0007e000 	sll	gp,a3,0x0
  10facc:	00100000 	sll	zero,s0,0x0
  10fad0:	0000401f 	0x401f
  10fad4:	0000501f 	0x501f
  10fad8:	0007e000 	sll	gp,a3,0x0
  10fadc:	00180000 	sll	zero,t8,0x0
  10fae0:	0000601f 	0x601f
  10fae4:	0000701f 	0x701f
  10fae8:	001fe000 	sll	gp,ra,0x0
  10faec:	00200000 	0x200000
  10faf0:	0000801f 	0x801f
  10faf4:	0000c01f 	0xc01f
  10faf8:	001fe000 	sll	gp,ra,0x0
  10fafc:	00400000 	0x400000
  10fb00:	0001001f 	ddivu	zero,zero,at
  10fb04:	0001401f 	0x1401f
  10fb08:	001fe000 	sll	gp,ra,0x0
  10fb0c:	00600000 	0x600000
  10fb10:	0001801f 	0x1801f
  10fb14:	0001c01f 	0x1c01f
  10fb18:	007fe000 	0x7fe000
  10fb1c:	00800000 	0x800000
  10fb20:	0002001f 	ddivu	zero,zero,v0
  10fb24:	0003001f 	ddivu	zero,zero,v1
  10fb28:	007fe000 	0x7fe000
  10fb2c:	01000000 	0x1000000
  10fb30:	0004001f 	ddivu	zero,zero,a0
  10fb34:	0005001f 	ddivu	zero,zero,a1
  10fb38:	007fe000 	0x7fe000
  10fb3c:	01800000 	0x1800000
  10fb40:	0006001f 	ddivu	zero,zero,a2
  10fb44:	0007001f 	ddivu	zero,zero,a3
  10fb48:	0007e000 	sll	gp,a3,0x0
  10fb4c:	20080000 	addi	t0,zero,0
  10fb50:	00002017 	dsrav	a0,zero,zero
  10fb54:	00003017 	dsrav	a2,zero,zero
  10fb58:	0007e000 	sll	gp,a3,0x0
  10fb5c:	20100000 	addi	s0,zero,0
  10fb60:	00004017 	dsrav	t0,zero,zero
  10fb64:	00005017 	dsrav	t2,zero,zero
  10fb68:	0007e000 	sll	gp,a3,0x0
  10fb6c:	20180000 	addi	t8,zero,0
  10fb70:	00006017 	dsrav	t4,zero,zero
  10fb74:	00007017 	dsrav	t6,zero,zero
  10fb78:	001fe000 	sll	gp,ra,0x0
  10fb7c:	20200000 	addi	zero,at,0
  10fb80:	00008017 	dsrav	s0,zero,zero
  10fb84:	0000c017 	dsrav	t8,zero,zero
  10fb88:	001fe000 	sll	gp,ra,0x0
  10fb8c:	20400000 	addi	zero,v0,0
  10fb90:	00010017 	dsrav	zero,at,zero
  10fb94:	00014017 	dsrav	t0,at,zero
  10fb98:	001fe000 	sll	gp,ra,0x0
  10fb9c:	20600000 	addi	zero,v1,0
  10fba0:	00018017 	dsrav	s0,at,zero
  10fba4:	0001c017 	dsrav	t8,at,zero
  10fba8:	007fe000 	0x7fe000
  10fbac:	20800000 	addi	zero,a0,0
  10fbb0:	00020017 	dsrav	zero,v0,zero
  10fbb4:	00030017 	dsrav	zero,v1,zero
  10fbb8:	007fe000 	0x7fe000
  10fbbc:	21000000 	addi	zero,t0,0
  10fbc0:	00040017 	dsrav	zero,a0,zero
  10fbc4:	00050017 	dsrav	zero,a1,zero
  10fbc8:	007fe000 	0x7fe000
  10fbcc:	21800000 	addi	zero,t4,0
  10fbd0:	00060017 	dsrav	zero,a2,zero
  10fbd4:	00070017 	dsrav	zero,a3,zero

0010fbd8 <extendTLB>:
  10fbd8:	0007e000 	sll	gp,a3,0x0
  10fbdc:	30100000 	andi	s0,zero,0x0
  10fbe0:	0000403f 	dsra32	t0,zero,0x0
  10fbe4:	0000503f 	dsra32	t2,zero,0x0
  10fbe8:	0007e000 	sll	gp,a3,0x0
  10fbec:	30180000 	andi	t8,zero,0x0
  10fbf0:	0000603f 	dsra32	t4,zero,0x0
  10fbf4:	0000703f 	dsra32	t6,zero,0x0
  10fbf8:	001fe000 	sll	gp,ra,0x0
  10fbfc:	30200000 	andi	zero,at,0x0
  10fc00:	0000803f 	dsra32	s0,zero,0x0
  10fc04:	0000c03f 	dsra32	t8,zero,0x0
  10fc08:	001fe000 	sll	gp,ra,0x0
  10fc0c:	30400000 	andi	zero,v0,0x0
  10fc10:	0001003f 	dsra32	zero,at,0x0
  10fc14:	0001403f 	dsra32	t0,at,0x0
  10fc18:	001fe000 	sll	gp,ra,0x0
  10fc1c:	30600000 	andi	zero,v1,0x0
  10fc20:	0001803f 	dsra32	s0,at,0x0
  10fc24:	0001c03f 	dsra32	t8,at,0x0
  10fc28:	007fe000 	0x7fe000
  10fc2c:	30800000 	andi	zero,a0,0x0
  10fc30:	0002003f 	dsra32	zero,v0,0x0
  10fc34:	0003003f 	dsra32	zero,v1,0x0
  10fc38:	007fe000 	0x7fe000
  10fc3c:	31000000 	andi	zero,t0,0x0
  10fc40:	0004003f 	dsra32	zero,a0,0x0
  10fc44:	0005003f 	dsra32	zero,a1,0x0
  10fc48:	007fe000 	0x7fe000
  10fc4c:	31800000 	andi	zero,t4,0x0
  10fc50:	0006003f 	dsra32	zero,a2,0x0
  10fc54:	0007003f 	dsra32	zero,a3,0x0

0010fc58 <SysEntry>:
  10fc58:	0000005a 	0x5a
  10fc5c:	0010a170 	tge	zero,s0,0x285
  10fc60:	0000005b 	0x5b
  10fc64:	80076000 	lb	a3,24576(zero)
  10fc68:	000000fc 	dsll32	zero,zero,0x3
  10fc6c:	00000000 	nop
  10fc70:	000000fd 	0xfd
  10fc74:	00000000 	nop
  10fc78:	000000fe 	dsrl32	zero,zero,0x3
  10fc7c:	00000000 	nop
  10fc80:	000000ff 	dsra32	zero,zero,0x3
  10fc84:	00000000 	nop
  10fc88:	0000012c 	0x12c
  10fc8c:	00000000 	nop
  10fc90:	00000008 	jr	zero
  10fc94:	00000000 	nop

0010fc98 <DAYS_IN_MONTH>:
  10fc98:	0000001f 	ddivu	zero,zero,zero
  10fc9c:	0000001c 	dmult	zero,zero
  10fca0:	0000001f 	ddivu	zero,zero,zero
  10fca4:	0000001e 	ddiv	zero,zero,zero
  10fca8:	0000001f 	ddivu	zero,zero,zero
  10fcac:	0000001e 	ddiv	zero,zero,zero
  10fcb0:	0000001f 	ddivu	zero,zero,zero
  10fcb4:	0000001f 	ddivu	zero,zero,zero
  10fcb8:	0000001e 	ddiv	zero,zero,zero
  10fcbc:	0000001f 	ddivu	zero,zero,zero
  10fcc0:	0000001e 	ddiv	zero,zero,zero
  10fcc4:	0000001f 	ddivu	zero,zero,zero

0010fcc8 <_DAYS_BEFORE_MONTH>:
  10fcc8:	00000000 	nop
  10fccc:	0000001f 	ddivu	zero,zero,zero
  10fcd0:	0000003b 	dsra	zero,zero,0x0
  10fcd4:	0000005a 	0x5a
  10fcd8:	00000078 	dsll	zero,zero,0x1
  10fcdc:	00000097 	0x97
  10fce0:	000000b5 	0xb5
  10fce4:	000000d4 	0xd4
  10fce8:	000000f3 	tltu	zero,zero,0x3
  10fcec:	00000111 	0x111
  10fcf0:	00000130 	tge	zero,zero,0x4
  10fcf4:	0000014e 	0x14e

0010fcf8 <mon_lengths>:
  10fcf8:	0000001f 	ddivu	zero,zero,zero
  10fcfc:	0000001c 	dmult	zero,zero
  10fd00:	0000001f 	ddivu	zero,zero,zero
  10fd04:	0000001e 	ddiv	zero,zero,zero
  10fd08:	0000001f 	ddivu	zero,zero,zero
  10fd0c:	0000001e 	ddiv	zero,zero,zero
  10fd10:	0000001f 	ddivu	zero,zero,zero
  10fd14:	0000001f 	ddivu	zero,zero,zero
  10fd18:	0000001e 	ddiv	zero,zero,zero
  10fd1c:	0000001f 	ddivu	zero,zero,zero
  10fd20:	0000001e 	ddiv	zero,zero,zero
  10fd24:	0000001f 	ddivu	zero,zero,zero
  10fd28:	0000001f 	ddivu	zero,zero,zero
  10fd2c:	0000001d 	dmultu	zero,zero
  10fd30:	0000001f 	ddivu	zero,zero,zero
  10fd34:	0000001e 	ddiv	zero,zero,zero
  10fd38:	0000001f 	ddivu	zero,zero,zero
  10fd3c:	0000001e 	ddiv	zero,zero,zero
  10fd40:	0000001f 	ddivu	zero,zero,zero
  10fd44:	0000001f 	ddivu	zero,zero,zero
  10fd48:	0000001e 	ddiv	zero,zero,zero
  10fd4c:	0000001f 	ddivu	zero,zero,zero
  10fd50:	0000001e 	ddiv	zero,zero,zero
  10fd54:	0000001f 	ddivu	zero,zero,zero

0010fd58 <year_lengths>:
  10fd58:	0000016d 	0x16d
  10fd5c:	0000016e 	0x16e
  10fd60:	0000000a 	movz	zero,zero,zero
  10fd64:	00000000 	nop
  10fd68:	00544d47 	0x544d47
  10fd6c:	00000000 	nop

0010fd70 <__thenan_df>:
	...

0010fd88 <__clz_tab>:
  10fd88:	02020100 	0x2020100
  10fd8c:	03030303 	0x3030303
  10fd90:	04040404 	0x4040404
  10fd94:	04040404 	0x4040404
  10fd98:	05050505 	0x5050505
  10fd9c:	05050505 	0x5050505
  10fda0:	05050505 	0x5050505
  10fda4:	05050505 	0x5050505
  10fda8:	06060606 	0x6060606
  10fdac:	06060606 	0x6060606
  10fdb0:	06060606 	0x6060606
  10fdb4:	06060606 	0x6060606
  10fdb8:	06060606 	0x6060606
  10fdbc:	06060606 	0x6060606
  10fdc0:	06060606 	0x6060606
  10fdc4:	06060606 	0x6060606
  10fdc8:	07070707 	0x7070707
  10fdcc:	07070707 	0x7070707
  10fdd0:	07070707 	0x7070707
  10fdd4:	07070707 	0x7070707
  10fdd8:	07070707 	0x7070707
  10fddc:	07070707 	0x7070707
  10fde0:	07070707 	0x7070707
  10fde4:	07070707 	0x7070707
  10fde8:	07070707 	0x7070707
  10fdec:	07070707 	0x7070707
  10fdf0:	07070707 	0x7070707
  10fdf4:	07070707 	0x7070707
  10fdf8:	07070707 	0x7070707
  10fdfc:	07070707 	0x7070707
  10fe00:	07070707 	0x7070707
  10fe04:	07070707 	0x7070707
  10fe08:	08080808 	j	202020 <_gp+0xe73f0>
  10fe0c:	08080808 	j	202020 <_gp+0xe73f0>
  10fe10:	08080808 	j	202020 <_gp+0xe73f0>
  10fe14:	08080808 	j	202020 <_gp+0xe73f0>
  10fe18:	08080808 	j	202020 <_gp+0xe73f0>
  10fe1c:	08080808 	j	202020 <_gp+0xe73f0>
  10fe20:	08080808 	j	202020 <_gp+0xe73f0>
  10fe24:	08080808 	j	202020 <_gp+0xe73f0>
  10fe28:	08080808 	j	202020 <_gp+0xe73f0>
  10fe2c:	08080808 	j	202020 <_gp+0xe73f0>
  10fe30:	08080808 	j	202020 <_gp+0xe73f0>
  10fe34:	08080808 	j	202020 <_gp+0xe73f0>
  10fe38:	08080808 	j	202020 <_gp+0xe73f0>
  10fe3c:	08080808 	j	202020 <_gp+0xe73f0>
  10fe40:	08080808 	j	202020 <_gp+0xe73f0>
  10fe44:	08080808 	j	202020 <_gp+0xe73f0>
  10fe48:	08080808 	j	202020 <_gp+0xe73f0>
  10fe4c:	08080808 	j	202020 <_gp+0xe73f0>
  10fe50:	08080808 	j	202020 <_gp+0xe73f0>
  10fe54:	08080808 	j	202020 <_gp+0xe73f0>
  10fe58:	08080808 	j	202020 <_gp+0xe73f0>
  10fe5c:	08080808 	j	202020 <_gp+0xe73f0>
  10fe60:	08080808 	j	202020 <_gp+0xe73f0>
  10fe64:	08080808 	j	202020 <_gp+0xe73f0>
  10fe68:	08080808 	j	202020 <_gp+0xe73f0>
  10fe6c:	08080808 	j	202020 <_gp+0xe73f0>
  10fe70:	08080808 	j	202020 <_gp+0xe73f0>
  10fe74:	08080808 	j	202020 <_gp+0xe73f0>
  10fe78:	08080808 	j	202020 <_gp+0xe73f0>
  10fe7c:	08080808 	j	202020 <_gp+0xe73f0>
  10fe80:	08080808 	j	202020 <_gp+0xe73f0>
  10fe84:	08080808 	j	202020 <_gp+0xe73f0>
Disassembly of section .data:

0010ff10 <__dso_handle>:
  10ff10:	00000000 	nop

0010ff14 <p.0>:
  10ff14:	00112c34 	teq	zero,s1,0xb0
	...

0010ff20 <X>:
	...

0010ff22 <Y>:
	...

0010ff24 <MX>:
  10ff24:	00280050 	0x280050

0010ff26 <MY>:
  10ff26:	00000028 	mfsa	zero

0010ff28 <bgcolor>:
	...

0010ff30 <setupscr.0>:
  10ff30:	0000800e 	0x800e
  10ff34:	10000000 	b	10ff38 <setupscr.0+0x8>
  10ff38:	0000000e 	0xe
  10ff3c:	00000000 	nop
  10ff40:	000a0000 	sll	zero,t2,0x0
  10ff44:	00000000 	nop
  10ff48:	0000004c 	syscall	0x1
  10ff4c:	00000000 	nop
  10ff50:	0000008c 	syscall	0x2
  10ff54:	00000000 	nop
  10ff58:	0000004e 	0x4e
  10ff5c:	00000000 	nop
  10ff60:	00006c00 	sll	t5,zero,0x10
  10ff64:	00007900 	sll	t7,zero,0x4
  10ff68:	00000018 	mult	zero,zero
  10ff6c:	00000000 	nop
  10ff70:	027f0000 	0x27f0000
  10ff74:	00df0000 	0xdf0000
  10ff78:	00000040 	sll	zero,zero,0x1
  10ff7c:	00000000 	nop
  10ff80:	00000001 	0x1
  10ff84:	00000000 	nop
  10ff88:	0000001a 	div	zero,zero,zero
  10ff8c:	00000000 	nop
  10ff90:	00000001 	0x1
  10ff94:	00000000 	nop
  10ff98:	00000046 	0x46
	...
  10ffa8:	00000045 	0x45
  10ffac:	00000000 	nop
  10ffb0:	00070000 	sll	zero,a3,0x0
  10ffb4:	00000000 	nop
  10ffb8:	00000047 	0x47
  10ffbc:	00000000 	nop
  10ffc0:	00030000 	sll	zero,v1,0x0
  10ffc4:	00000000 	nop
  10ffc8:	00000047 	0x47
  10ffcc:	00000000 	nop
  10ffd0:	00000006 	srlv	zero,zero,zero
	...
  10ffe4:	3f800000 	0x3f800000
  10ffe8:	00000001 	0x1
  10ffec:	00000000 	nop
  10fff0:	79006c00 	lq	zero,27648(t0)
  10fff4:	00000000 	nop
  10fff8:	00000005 	0x5
  10fffc:	00000000 	nop
  110000:	87009400 	lh	zero,-27648(t8)
  110004:	00000000 	nop
  110008:	00000005 	0x5
  11000c:	00000000 	nop
  110010:	00070000 	sll	zero,a3,0x0
  110014:	00000000 	nop
  110018:	00000047 	0x47
  11001c:	00000000 	nop

00110020 <setupchar.1>:
  110020:	00000004 	sllv	zero,zero,zero
  110024:	10000000 	b	110028 <setupchar.1+0x8>
  110028:	0000000e 	0xe
	...
  110034:	000a0000 	sll	zero,t2,0x0
  110038:	00000050 	0x50
	...
  110044:	00640064 	0x640064
  110048:	00000051 	0x51
  11004c:	00000000 	nop
  110050:	00000008 	jr	zero
  110054:	00000008 	jr	zero
  110058:	00000052 	0x52
	...
  110068:	00000053 	0x53
  11006c:	00000000 	nop
  110070:	00000010 	mfhi	zero
  110074:	08000000 	j	0 <_DYNAMIC_LINK>
  110078:	00000000 	nop
  11007c:	00000000 	nop

00110080 <msx>:
	...
  110088:	81a5423c 	lb	a1,16956(t5)
  11008c:	3c4299a5 	0x3c4299a5
  110090:	ffdb7e3c 	sd	k1,32316(s8)
  110094:	3c66dbff 	0x3c66dbff
  110098:	fefefe6c 	sd	s8,-404(s7)
  11009c:	0010387c 	dsll32	a3,s0,0x1
  1100a0:	fe7c3810 	sd	gp,14352(s3)
  1100a4:	0010387c 	dsll32	a3,s0,0x1
  1100a8:	fe543810 	sd	s4,14352(s2)
  1100ac:	00381054 	0x381054
  1100b0:	fe7c3810 	sd	gp,14352(s3)
  1100b4:	003810fe 	0x3810fe
  1100b8:	30000000 	andi	zero,zero,0x0
  1100bc:	00000030 	tge	zero,zero
  1100c0:	e7ffffff 	swc1	$f31,-1(ra)
  1100c4:	ffffffe7 	sd	ra,-25(ra)
  1100c8:	82824438 	lb	v0,17464(s4)
  1100cc:	00384482 	0x384482
  1100d0:	7d7dbbc7 	sq	sp,-17465(t3)
  1100d4:	ffc7bb7d 	sd	a3,-17539(s8)
  1100d8:	7905030f 	lq	a1,783(t0)
  1100dc:	70888888 	pcgtw	s1,a0,t0
  1100e0:	44444438 	0x44444438
  1100e4:	107c1038 	beq	v1,gp,1141c8 <client_table+0x248>
  1100e8:	24242830 	addiu	a0,at,10288
  1100ec:	c0e02028 	ll	zero,8232(a3)
  1100f0:	243c243c 	addiu	gp,at,9276
  1100f4:	18dce424 	0x18dce424
  1100f8:	ee385410 	swc3	$24,21520(s1)
  1100fc:	00105438 	dsll	t2,s0,0x10
  110100:	7c101010 	sq	s0,4112(zero)
  110104:	10101010 	beq	zero,s0,114148 <client_table+0x1c8>
  110108:	ff101010 	sd	s0,4112(t8)
  11010c:	00000000 	nop
  110110:	ff000000 	sd	zero,0(t8)
  110114:	10101010 	beq	zero,s0,114158 <client_table+0x1d8>
  110118:	f0101010 	scd	s0,4112(zero)
  11011c:	10101010 	beq	zero,s0,114160 <client_table+0x1e0>
  110120:	1f101010 	0x1f101010
  110124:	10101010 	beq	zero,s0,114168 <client_table+0x1e8>
  110128:	ff101010 	sd	s0,4112(t8)
  11012c:	10101010 	beq	zero,s0,114170 <client_table+0x1f0>
  110130:	10101010 	beq	zero,s0,114174 <client_table+0x1f4>
  110134:	10101010 	beq	zero,s0,114178 <client_table+0x1f8>
  110138:	ff000000 	sd	zero,0(t8)
  11013c:	00000000 	nop
  110140:	1f000000 	bgtz	t8,110144 <msx+0xc4>
  110144:	10101010 	beq	zero,s0,114188 <client_table+0x208>
  110148:	f0000000 	scd	zero,0(zero)
  11014c:	10101010 	beq	zero,s0,114190 <client_table+0x210>
  110150:	1f101010 	0x1f101010
  110154:	00000000 	nop
  110158:	f0101010 	scd	s0,4112(zero)
  11015c:	00000000 	nop
  110160:	18244281 	0x18244281
  110164:	81422418 	lb	v0,9240(t2)
  110168:	08040201 	j	100804 <scr_printf+0x1e4>
  11016c:	80402010 	lb	zero,8208(v0)
  110170:	10204080 	beqz	at,120374 <_gp+0x5744>
  110174:	01020408 	0x1020408
  110178:	ff101000 	sd	s0,4096(t8)
  11017c:	00001010 	mfhi	v0
	...
  110188:	20202020 	addi	zero,at,8224
  11018c:	00200000 	0x200000
  110190:	00505050 	0x505050
  110194:	00000000 	nop
  110198:	50f85050 	beql	a3,t8,1242dc <_gp+0x96ac>
  11019c:	005050f8 	0x5050f8
  1101a0:	70a07820 	madd1	t7,a1,zero
  1101a4:	0020f028 	0x20f028
  1101a8:	2010c8c0 	addi	s0,zero,-14144
  1101ac:	00189840 	sll	s3,t8,0x1
  1101b0:	a840a040 	swl	zero,-24512(v0)
  1101b4:	00609890 	0x609890
  1101b8:	00402010 	0x402010
  1101bc:	00000000 	nop
  1101c0:	40402010 	0x40402010
  1101c4:	00102040 	sll	a0,s0,0x1
  1101c8:	10102040 	beq	zero,s0,1182cc <_end+0x2bec>
  1101cc:	00402010 	0x402010
  1101d0:	2070a820 	addi	s0,v1,-22496
  1101d4:	0020a870 	tge	at,zero,0x2a1
  1101d8:	f8202000 	sqc2	vf00,8192(at)
  1101dc:	00002020 	add	a0,zero,zero
  1101e0:	00000000 	nop
  1101e4:	40202000 	dmfc0	zero,$4
  1101e8:	78000000 	lq	zero,0(zero)
	...
  1101f4:	00606000 	0x606000
  1101f8:	10080000 	beq	zero,t0,1101fc <msx+0x17c>
  1101fc:	00804020 	add	t0,a0,zero
  110200:	a8988870 	swl	t8,-30608(a0)
  110204:	007088c8 	0x7088c8
  110208:	20a06020 	addi	zero,a1,24608
  11020c:	00f82020 	add	a0,a3,t8
  110210:	10088870 	beq	zero,t0,f23d4 <_stack_size+0xd23d4>
  110214:	00f88060 	0xf88060
  110218:	30088870 	andi	t0,zero,0x8870
  11021c:	00708808 	0x708808
  110220:	90503010 	lbu	s0,12304(v0)
  110224:	001010f8 	dsll	v0,s0,0x3
  110228:	10e080f8 	beqz	a3,f060c <_stack_size+0xd060c>
  11022c:	00e01008 	0xe01008
  110230:	f0804030 	scd	zero,16432(a0)
  110234:	00708888 	0x708888
  110238:	201088f8 	addi	s0,zero,-30472
  11023c:	00202020 	add	a0,at,zero
  110240:	70888870 	0x70888870
  110244:	00708888 	0x708888
  110248:	78888870 	lq	t0,-30608(a0)
  11024c:	00601008 	0x601008
  110250:	00200000 	0x200000
  110254:	00002000 	sll	a0,zero,0x0
  110258:	00200000 	0x200000
  11025c:	40202000 	dmfc0	zero,$4
  110260:	c0603018 	ll	zero,12312(v1)
  110264:	00183060 	0x183060
  110268:	00f80000 	0xf80000
  11026c:	000000f8 	dsll	zero,zero,0x3
  110270:	183060c0 	0x183060c0
  110274:	00c06030 	tge	a2,zero,0x180
  110278:	10088870 	beq	zero,t0,f243c <_stack_size+0xd243c>
  11027c:	00200020 	add	zero,at,zero
  110280:	68088870 	ldl	t0,-30608(zero)
  110284:	0070a8a8 	0x70a8a8
  110288:	88885020 	lwl	t0,20512(a0)
  11028c:	008888f8 	0x8888f8
  110290:	704848f0 	0x704848f0
  110294:	00f04848 	0xf04848
  110298:	80804830 	lb	zero,18480(a0)
  11029c:	00304880 	0x304880
  1102a0:	484850e0 	0x484850e0
  1102a4:	00e05048 	0xe05048
  1102a8:	f08080f8 	scd	zero,-32520(a0)
  1102ac:	00f88080 	0xf88080
  1102b0:	f08080f8 	scd	zero,-32520(a0)
  1102b4:	00808080 	0x808080
  1102b8:	b8808870 	swr	zero,-30608(a0)
  1102bc:	00708888 	0x708888
  1102c0:	f8888888 	sqc2	vf08,-30584(a0)
  1102c4:	00888888 	0x888888
  1102c8:	20202070 	addi	zero,at,8304
  1102cc:	00702020 	add	a0,v1,s0
  1102d0:	10101038 	beq	zero,s0,1143b4 <client_table+0x434>
  1102d4:	00609090 	0x609090
  1102d8:	c0a09088 	ll	zero,-28536(a1)
  1102dc:	008890a0 	0x8890a0
  1102e0:	80808080 	lb	zero,-32640(a0)
  1102e4:	00f88080 	0xf88080
  1102e8:	a8a8d888 	swl	t0,-10104(a1)
  1102ec:	00888888 	0x888888
  1102f0:	a8c8c888 	swl	t0,-14200(a2)
  1102f4:	00889898 	0x889898
  1102f8:	88888870 	lwl	t0,-30608(a0)
  1102fc:	00708888 	0x708888
  110300:	f08888f0 	scd	t0,-30480(a0)
  110304:	00808080 	0x808080
  110308:	88888870 	lwl	t0,-30608(a0)
  11030c:	006890a8 	0x6890a8
  110310:	f08888f0 	scd	t0,-30480(a0)
  110314:	008890a0 	0x8890a0
  110318:	70808870 	0x70808870
  11031c:	00708808 	0x708808
  110320:	202020f8 	addi	zero,at,8440
  110324:	00202020 	add	a0,at,zero
  110328:	88888888 	lwl	t0,-30584(a0)
  11032c:	00708888 	0x708888
  110330:	88888888 	lwl	t0,-30584(a0)
  110334:	00205050 	0x205050
  110338:	a8888888 	swl	t0,-30584(a0)
  11033c:	0088d8a8 	0x88d8a8
  110340:	20508888 	addi	s0,v0,-30584
  110344:	00888850 	0x888850
  110348:	70888888 	pcgtw	s1,a0,t0
  11034c:	00202020 	add	a0,at,zero
  110350:	201008f8 	addi	s0,zero,2296
  110354:	00f88040 	0xf88040
  110358:	40404070 	0x40404070
  11035c:	00704040 	0x704040
  110360:	40800000 	mtc0	zero,$0
  110364:	00081020 	add	v0,zero,t0
  110368:	10101070 	beq	zero,s0,11452c <client_table+0x5ac>
  11036c:	00701010 	0x701010
  110370:	00885020 	add	t2,a0,t0
	...
  11037c:	00f80000 	0xf80000
  110380:	00102040 	sll	a0,s0,0x1
  110384:	00000000 	nop
  110388:	08700000 	j	1c00000 <_gp+0x1ae53d0>
  11038c:	00788878 	0x788878
  110390:	c8b08080 	lwc2	$16,-32640(a1)
  110394:	00b0c888 	0xb0c888
  110398:	88700000 	lwl	s0,0(v1)
  11039c:	00708880 	0x708880
  1103a0:	98680808 	lwr	t0,2056(v1)
  1103a4:	00689888 	0x689888
  1103a8:	88700000 	lwl	s0,0(v1)
  1103ac:	007080f8 	0x7080f8
  1103b0:	f8202810 	sqc2	vf00,10256(at)
  1103b4:	00202020 	add	a0,at,zero
  1103b8:	98680000 	lwr	t0,0(v1)
  1103bc:	70086898 	0x70086898
  1103c0:	88f08080 	lwl	s0,-32640(a3)
  1103c4:	00888888 	0x888888
  1103c8:	20600020 	addi	zero,v1,32
  1103cc:	00702020 	add	a0,v1,s0
  1103d0:	10300010 	beq	at,s0,110414 <msx+0x394>
  1103d4:	60901010 	daddi	s0,a0,4112
  1103d8:	50484040 	beql	v0,t0,1204dc <_gp+0x58ac>
  1103dc:	00485060 	0x485060
  1103e0:	20202060 	addi	zero,at,8288
  1103e4:	00702020 	add	a0,v1,s0
  1103e8:	a8d00000 	swl	s0,0(a2)
  1103ec:	00a8a8a8 	0xa8a8a8
  1103f0:	c8b00000 	lwc2	$16,0(a1)
  1103f4:	00888888 	0x888888
  1103f8:	88700000 	lwl	s0,0(v1)
  1103fc:	00708888 	0x708888
  110400:	c8b00000 	lwc2	$16,0(a1)
  110404:	8080b0c8 	lb	zero,-20280(a0)
  110408:	98680000 	lwr	t0,0(v1)
  11040c:	08086898 	j	21a260 <_gp+0xff630>
  110410:	c8b00000 	lwc2	$16,0(a1)
  110414:	00808080 	0x808080
  110418:	80780000 	lb	t8,0(v1)
  11041c:	00f008f0 	tge	a3,s0,0x23
  110420:	40f04040 	0x40f04040
  110424:	00304840 	0x304840
  110428:	90900000 	lbu	s0,0(a0)
  11042c:	00689090 	0x689090
  110430:	88880000 	lwl	t0,0(a0)
  110434:	00205088 	0x205088
  110438:	a8880000 	swl	t0,0(a0)
  11043c:	0050a8a8 	0x50a8a8
  110440:	50880000 	beql	a0,t0,110444 <msx+0x3c4>
  110444:	00885020 	add	t2,a0,t0
  110448:	88880000 	lwl	t0,0(a0)
  11044c:	70086898 	0x70086898
  110450:	10f80000 	beq	a3,t8,110454 <msx+0x3d4>
  110454:	00f84020 	add	t0,a3,t8
  110458:	40202018 	0x40202018
  11045c:	00182020 	add	a0,zero,t8
  110460:	00202020 	add	a0,at,zero
  110464:	00202020 	add	a0,at,zero
  110468:	102020c0 	beqz	at,11876c <_end+0x308c>
  11046c:	00c02020 	add	a0,a2,zero
  110470:	0010a840 	sll	s5,s0,0x1
  110474:	00000000 	nop
  110478:	50200000 	beqzl	at,11047c <msx+0x3fc>
  11047c:	000000f8 	dsll	zero,zero,0x3
  110480:	80808870 	lb	zero,-30608(a0)
  110484:	60207088 	daddi	zero,at,28808
  110488:	90000090 	lbu	zero,144(zero)
  11048c:	00689090 	0x689090
  110490:	88702010 	lwl	s0,8208(v1)
  110494:	007080f8 	0x7080f8
  110498:	08705020 	j	1c14080 <_gp+0x1af9450>
  11049c:	00788878 	0x788878
  1104a0:	08700048 	j	1c00120 <_gp+0x1ae54f0>
  1104a4:	00788878 	0x788878
  1104a8:	08701020 	j	1c04080 <_gp+0x1ae9450>
  1104ac:	00788878 	0x788878
  1104b0:	08700020 	j	1c00080 <_gp+0x1ae5450>
  1104b4:	00788878 	0x788878
  1104b8:	80807000 	lb	zero,28672(a0)
  1104bc:	60107080 	daddi	s0,zero,28800
  1104c0:	88705020 	lwl	s0,20512(v1)
  1104c4:	007080f8 	0x7080f8
  1104c8:	88700050 	lwl	s0,80(v1)
  1104cc:	007080f8 	0x7080f8
  1104d0:	88701020 	lwl	s0,4128(v1)
  1104d4:	007080f8 	0x7080f8
  1104d8:	60000050 	daddi	zero,zero,80
  1104dc:	00702020 	add	a0,v1,s0
  1104e0:	60005020 	daddi	zero,zero,20512
  1104e4:	00702020 	add	a0,v1,s0
  1104e8:	60002040 	daddi	zero,zero,8256
  1104ec:	00702020 	add	a0,v1,s0
  1104f0:	50200050 	beqzl	at,110634 <msx+0x5b4>
  1104f4:	0088f888 	0x88f888
  1104f8:	50200020 	beqzl	at,11057c <msx+0x4fc>
  1104fc:	0088f888 	0x88f888
  110500:	80f82010 	lb	t8,8208(a3)
  110504:	00f880f0 	tge	a3,t8,0x203
  110508:	126c0000 	beq	s3,t4,11050c <msx+0x48c>
  11050c:	006e907e 	0x6e907e
  110510:	9c90503e 	lwu	s0,20542(a0)
  110514:	009e90f0 	tge	a0,s8,0x243
  110518:	60009060 	daddi	zero,zero,-28576
  11051c:	00609090 	0x609090
  110520:	60000090 	daddi	zero,zero,144
  110524:	00609090 	0x609090
  110528:	60002040 	daddi	zero,zero,8256
  11052c:	00609090 	0x609090
  110530:	a000a040 	sb	zero,-24512(zero)
  110534:	0050a0a0 	0x50a0a0
  110538:	a0002040 	sb	zero,8256(zero)
  11053c:	0050a0a0 	0x50a0a0
  110540:	90900090 	lbu	s0,144(a0)
  110544:	e01050b0 	sc	s0,20656(zero)
  110548:	88700050 	lwl	s0,80(v1)
  11054c:	00708888 	0x708888
  110550:	88880050 	lwl	t0,80(a0)
  110554:	00708888 	0x708888
  110558:	80782020 	lb	t8,8224(v1)
  11055c:	20207880 	addi	zero,at,30848
  110560:	f8202418 	sqc2	vf00,9240(at)
  110564:	005ce220 	0x5ce220
  110568:	f8205088 	sqc2	vf00,20616(at)
  11056c:	0020f820 	add	ra,at,zero
  110570:	c8a0a0c0 	lwc2	$0,-24384(a1)
  110574:	8c88889c 	lw	t0,-30564(a0)
  110578:	f8202018 	sqc2	vf00,8216(at)
  11057c:	40202020 	0x40202020
  110580:	08702010 	j	1c08040 <_gp+0x1aed410>
  110584:	00788878 	0x788878
  110588:	60002010 	daddi	zero,zero,8208
  11058c:	00702020 	add	a0,v1,s0
  110590:	60004020 	daddi	zero,zero,16416
  110594:	00609090 	0x609090
  110598:	90004020 	lbu	zero,16416(zero)
  11059c:	00689090 	0x689090
  1105a0:	a000a050 	sb	zero,-24496(zero)
  1105a4:	009090d0 	0x9090d0
  1105a8:	c8005028 	lwc2	$0,20520(zero)
  1105ac:	008898a8 	0x8898a8
  1105b0:	78087000 	lq	t0,28672(zero)
  1105b4:	f8007888 	sqc2	vf00,30856(zero)
  1105b8:	90906000 	lbu	s0,24576(a0)
  1105bc:	f0006090 	scd	zero,24720(zero)
  1105c0:	40200020 	0x40200020
  1105c4:	00708880 	0x708880
  1105c8:	f8000000 	sqc2	vf00,0(zero)
  1105cc:	00008080 	sll	s0,zero,0x2
  1105d0:	f8000000 	sqc2	vf00,0(zero)
  1105d4:	00000808 	0x808
  1105d8:	a8908884 	swl	s0,-30588(a0)
  1105dc:	1c088454 	0x1c088454
  1105e0:	a8908884 	swl	s0,-30588(a0)
  1105e4:	083ca858 	j	f2a160 <_gp+0xe0f530>
  1105e8:	20000020 	addi	zero,zero,32
  1105ec:	00202020 	add	a0,at,zero
  1105f0:	48240000 	qmfc2	a0,vf00
  1105f4:	00244890 	0x244890
  1105f8:	48900000 	mtc2	s0,$0
  1105fc:	00904824 	and	t1,a0,s0
  110600:	50205028 	beqzl	at,1246a4 <_gp+0x9a74>
  110604:	0088f888 	0x88f888
  110608:	08705028 	j	1c140a0 <_gp+0x1af9470>
  11060c:	00788878 	0x788878
  110610:	70005028 	0x70005028
  110614:	00702020 	add	a0,v1,s0
  110618:	20005028 	addi	zero,zero,20520
  11061c:	00702020 	add	a0,v1,s0
  110620:	70005028 	0x70005028
  110624:	00708888 	0x708888
  110628:	6000a050 	daddi	zero,zero,-24496
  11062c:	00609090 	0x609090
  110630:	88005028 	lwl	zero,20520(zero)
  110634:	00708888 	0x708888
  110638:	a000a050 	sb	zero,-24496(zero)
  11063c:	0050a0a0 	0x50a0a0
  110640:	484848fc 	0x484848fc
  110644:	205008e8 	addi	s0,v0,2280
  110648:	50005000 	beqzl	zero,12464c <_gp+0x9a1c>
  11064c:	20105050 	addi	s0,zero,20560
  110650:	54c844c0 	bnel	a2,t0,121954 <_gp+0x6d24>
  110654:	049e54ec 	0x49e54ec
  110658:	0040a810 	0x40a810
  11065c:	00000000 	nop
  110660:	88502000 	lwl	s0,8192(v0)
  110664:	00002050 	0x2050
  110668:	40201088 	0x40201088
  11066c:	00002880 	sll	a1,zero,0x2
  110670:	68a8a87c 	ldl	t0,-22404(a1)
  110674:	00282828 	0x282828
  110678:	48304038 	0x48304038
  11067c:	70083048 	psubw	a2,zero,t0
  110680:	00000000 	nop
  110684:	ffff0000 	sd	ra,0(ra)
  110688:	f0f0f0f0 	scd	s0,-3856(a3)
  11068c:	0f0f0f0f 	jal	c3c3c3c <_gp+0xc2a900c>
  110690:	ffff0000 	sd	ra,0(ra)
  110694:	ffffffff 	sd	ra,-1(ra)
  110698:	0000ffff 	dsra32	ra,zero,0x1f
  11069c:	00000000 	nop
  1106a0:	3c000000 	lui	zero,0x0
  1106a4:	0000003c 	dsll32	zero,zero,0x0
  1106a8:	ffffffff 	sd	ra,-1(ra)
  1106ac:	0000ffff 	dsra32	ra,zero,0x1f
  1106b0:	c0c0c0c0 	ll	zero,-16192(a2)
  1106b4:	c0c0c0c0 	ll	zero,-16192(a2)
  1106b8:	0f0f0f0f 	jal	c3c3c3c <_gp+0xc2a900c>
  1106bc:	f0f0f0f0 	scd	s0,-3856(a3)
  1106c0:	fcfcfcfc 	sd	gp,-772(a3)
  1106c4:	fcfcfcfc 	sd	gp,-772(a3)
  1106c8:	03030303 	0x3030303
  1106cc:	03030303 	0x3030303
  1106d0:	3f3f3f3f 	0x3f3f3f3f
  1106d4:	3f3f3f3f 	0x3f3f3f3f
  1106d8:	88442211 	lwl	a0,8721(v0)
  1106dc:	88442211 	lwl	a0,8721(v0)
  1106e0:	11224488 	beq	t1,v0,121904 <_gp+0x6cd4>
  1106e4:	11224488 	beq	t1,v0,121908 <_gp+0x6cd8>
  1106e8:	10387cfe 	beq	at,t8,12fae4 <_gp+0x14eb4>
  1106ec:	00000000 	nop
  1106f0:	00000000 	nop
  1106f4:	fe7c3810 	sd	gp,14352(s3)
  1106f8:	f0e0c080 	scd	zero,-16256(a3)
  1106fc:	0080c0e0 	0x80c0e0
  110700:	0f070301 	jal	c1c0c04 <_gp+0xc0a5fd4>
  110704:	00010307 	0x10307
  110708:	183c7eff 	0x183c7eff
  11070c:	ff7e3c18 	sd	s8,15384(k1)
  110710:	ffe7c381 	sd	a3,-15487(ra)
  110714:	81c3e7ff 	lb	v1,-6145(t6)
  110718:	f0f0f0f0 	scd	s0,-3856(a3)
	...
  110724:	0f0f0f0f 	jal	c3c3c3c <_gp+0xc2a900c>
  110728:	0f0f0f0f 	jal	c3c3c3c <_gp+0xc2a900c>
  11072c:	00000000 	nop
  110730:	00000000 	nop
  110734:	f0f0f0f0 	scd	s0,-3856(a3)
  110738:	cccc3333 	pref	0xc,13107(a2)
  11073c:	cccc3333 	pref	0xc,13107(a2)
  110740:	50202000 	beqzl	at,118744 <_end+0x3064>
  110744:	00f88850 	0xf88850
  110748:	20702020 	addi	s0,v1,8224
  11074c:	00202070 	tge	at,zero,0x81
  110750:	50000000 	beqzl	zero,110754 <msx+0x6d4>
  110754:	0050a888 	0x50a888
  110758:	ffffffff 	sd	ra,-1(ra)
  11075c:	ffffffff 	sd	ra,-1(ra)
  110760:	00000000 	nop
  110764:	ffffffff 	sd	ra,-1(ra)
  110768:	f0f0f0f0 	scd	s0,-3856(a3)
  11076c:	f0f0f0f0 	scd	s0,-3856(a3)
  110770:	0f0f0f0f 	jal	c3c3c3c <_gp+0xc2a900c>
  110774:	0f0f0f0f 	jal	c3c3c3c <_gp+0xc2a900c>
  110778:	ffffffff 	sd	ra,-1(ra)
  11077c:	00000000 	nop
  110780:	90680000 	lbu	t0,0(v1)
  110784:	00689090 	0x689090
  110788:	70484830 	0x70484830
  11078c:	c0704848 	ll	s0,18504(v1)
  110790:	808088f8 	lb	zero,-30472(a0)
  110794:	00808080 	0x808080
  110798:	505050f8 	beql	v0,s0,124b7c <_gp+0x9f4c>
  11079c:	00985050 	0x985050
  1107a0:	204088f8 	addi	zero,v0,-30472
  1107a4:	00f88840 	0xf88840
  1107a8:	90780000 	lbu	t8,0(v1)
  1107ac:	00609090 	0x609090
  1107b0:	50505000 	beql	v0,s0,1247b4 <_gp+0x9b84>
  1107b4:	80806850 	lb	zero,26704(a0)
  1107b8:	20a05000 	addi	zero,a1,20480
  1107bc:	00202020 	add	a0,at,zero
  1107c0:	a87020f8 	swl	s0,8440(v1)
  1107c4:	f82070a8 	sqc2	vf00,28840(at)
  1107c8:	f8885020 	sqc2	vf08,20512(a0)
  1107cc:	00205088 	0x205088
  1107d0:	88888870 	lwl	t0,-30608(a0)
  1107d4:	00d85050 	0xd85050
  1107d8:	20404030 	addi	zero,v0,16432
  1107dc:	20505050 	addi	s0,v0,20560
  1107e0:	50000000 	beqzl	zero,1107e4 <msx+0x764>
  1107e4:	0050a8a8 	0x50a8a8
  1107e8:	a8a87008 	swl	t0,28680(a1)
  1107ec:	008070a8 	0x8070a8
  1107f0:	f8804038 	sqc2	vf00,16440(a0)
  1107f4:	00384080 	0x384080
  1107f8:	88888870 	lwl	t0,-30608(a0)
  1107fc:	00888888 	0x888888
  110800:	f800f800 	sqc2	vf00,-2048(zero)
  110804:	0000f800 	sll	ra,zero,0x0
  110808:	20f82020 	addi	t8,a3,8224
  11080c:	00f80020 	add	zero,a3,t8
  110810:	300830c0 	andi	t0,zero,0x30c0
  110814:	00f800c0 	0xf800c0
  110818:	60806018 	daddi	zero,a0,24600
  11081c:	00f80018 	mult	a3,t8
  110820:	20202810 	addi	zero,at,10256
  110824:	20202020 	addi	zero,at,8224
  110828:	20202020 	addi	zero,at,8224
  11082c:	40a02020 	0x40a02020
  110830:	f8002000 	sqc2	vf00,8192(zero)
  110834:	00002000 	sll	a0,zero,0x0
  110838:	00a05000 	0xa05000
  11083c:	0000a050 	0xa050
  110840:	24241800 	addiu	a0,at,6144
  110844:	00000018 	mult	zero,zero
  110848:	78783000 	lq	t8,12288(v1)
  11084c:	00000030 	tge	zero,zero
  110850:	00000000 	nop
  110854:	00000030 	tge	zero,zero
  110858:	2020203e 	addi	zero,at,8254
  11085c:	002060a0 	0x2060a0
  110860:	505050a0 	beql	v0,s0,124ae4 <_gp+0x9eb4>
  110864:	00000000 	nop
  110868:	4020a040 	0x4020a040
  11086c:	000000e0 	0xe0
  110870:	38383800 	xori	t8,at,0x3800
  110874:	00383838 	0x383838
	...

00110880 <impure_data>:
  110880:	00000000 	nop
  110884:	00110b6c 	0x110b6c
  110888:	00110bc8 	0x110bc8
  11088c:	00110c24 	0x110c24
	...
  1108b4:	0010f558 	0x10f558
	...
  110928:	00000001 	0x1
  11092c:	00000000 	nop
  110930:	abcd330e 	swl	t5,13070(s8)
  110934:	e66d1234 	swc1	$f13,4660(s3)
  110938:	0005deec 	0x5deec
  11093c:	0000000b 	movn	zero,zero,zero
	...

00110c80 <_impure_ptr>:
  110c80:	00110880 	sll	at,s1,0x2
  110c84:	00000000 	nop

00110c88 <__sfp_lock>:
  110c88:	00000000 	nop

00110c8c <__sinit_lock>:
  110c8c:	00000000 	nop

00110c90 <__mb_cur_max>:
  110c90:	00000001 	0x1

00110c94 <__nlocale_changed>:
  110c94:	00000000 	nop

00110c98 <__mlocale_changed>:
  110c98:	00000000 	nop

00110c9c <_PathLocale>:
  110c9c:	00000000 	nop

00110ca0 <charset>:
  110ca0:	0010f820 	add	ra,zero,s0
  110ca4:	00000000 	nop

00110ca8 <__lc_ctype>:
  110ca8:	00000043 	sra	zero,zero,0x1
	...

00110cb8 <__malloc_av_>:
	...
  110cc0:	00110cb8 	dsll	at,s1,0x12
  110cc4:	00110cb8 	dsll	at,s1,0x12
  110cc8:	00110cc0 	sll	at,s1,0x13
  110ccc:	00110cc0 	sll	at,s1,0x13
  110cd0:	00110cc8 	0x110cc8
  110cd4:	00110cc8 	0x110cc8
  110cd8:	00110cd0 	0x110cd0
  110cdc:	00110cd0 	0x110cd0
  110ce0:	00110cd8 	0x110cd8
  110ce4:	00110cd8 	0x110cd8
  110ce8:	00110ce0 	0x110ce0
  110cec:	00110ce0 	0x110ce0
  110cf0:	00110ce8 	0x110ce8
  110cf4:	00110ce8 	0x110ce8
  110cf8:	00110cf0 	tge	zero,s1,0x33
  110cfc:	00110cf0 	tge	zero,s1,0x33
  110d00:	00110cf8 	dsll	at,s1,0x13
  110d04:	00110cf8 	dsll	at,s1,0x13
  110d08:	00110d00 	sll	at,s1,0x14
  110d0c:	00110d00 	sll	at,s1,0x14
  110d10:	00110d08 	0x110d08
  110d14:	00110d08 	0x110d08
  110d18:	00110d10 	0x110d10
  110d1c:	00110d10 	0x110d10
  110d20:	00110d18 	0x110d18
  110d24:	00110d18 	0x110d18
  110d28:	00110d20 	0x110d20
  110d2c:	00110d20 	0x110d20
  110d30:	00110d28 	0x110d28
  110d34:	00110d28 	0x110d28
  110d38:	00110d30 	tge	zero,s1,0x34
  110d3c:	00110d30 	tge	zero,s1,0x34
  110d40:	00110d38 	dsll	at,s1,0x14
  110d44:	00110d38 	dsll	at,s1,0x14
  110d48:	00110d40 	sll	at,s1,0x15
  110d4c:	00110d40 	sll	at,s1,0x15
  110d50:	00110d48 	0x110d48
  110d54:	00110d48 	0x110d48
  110d58:	00110d50 	0x110d50
  110d5c:	00110d50 	0x110d50
  110d60:	00110d58 	0x110d58
  110d64:	00110d58 	0x110d58
  110d68:	00110d60 	0x110d60
  110d6c:	00110d60 	0x110d60
  110d70:	00110d68 	0x110d68
  110d74:	00110d68 	0x110d68
  110d78:	00110d70 	tge	zero,s1,0x35
  110d7c:	00110d70 	tge	zero,s1,0x35
  110d80:	00110d78 	dsll	at,s1,0x15
  110d84:	00110d78 	dsll	at,s1,0x15
  110d88:	00110d80 	sll	at,s1,0x16
  110d8c:	00110d80 	sll	at,s1,0x16
  110d90:	00110d88 	0x110d88
  110d94:	00110d88 	0x110d88
  110d98:	00110d90 	0x110d90
  110d9c:	00110d90 	0x110d90
  110da0:	00110d98 	0x110d98
  110da4:	00110d98 	0x110d98
  110da8:	00110da0 	0x110da0
  110dac:	00110da0 	0x110da0
  110db0:	00110da8 	0x110da8
  110db4:	00110da8 	0x110da8
  110db8:	00110db0 	tge	zero,s1,0x36
  110dbc:	00110db0 	tge	zero,s1,0x36
  110dc0:	00110db8 	dsll	at,s1,0x16
  110dc4:	00110db8 	dsll	at,s1,0x16
  110dc8:	00110dc0 	sll	at,s1,0x17
  110dcc:	00110dc0 	sll	at,s1,0x17
  110dd0:	00110dc8 	0x110dc8
  110dd4:	00110dc8 	0x110dc8
  110dd8:	00110dd0 	0x110dd0
  110ddc:	00110dd0 	0x110dd0
  110de0:	00110dd8 	0x110dd8
  110de4:	00110dd8 	0x110dd8
  110de8:	00110de0 	0x110de0
  110dec:	00110de0 	0x110de0
  110df0:	00110de8 	0x110de8
  110df4:	00110de8 	0x110de8
  110df8:	00110df0 	tge	zero,s1,0x37
  110dfc:	00110df0 	tge	zero,s1,0x37
  110e00:	00110df8 	dsll	at,s1,0x17
  110e04:	00110df8 	dsll	at,s1,0x17
  110e08:	00110e00 	sll	at,s1,0x18
  110e0c:	00110e00 	sll	at,s1,0x18
  110e10:	00110e08 	0x110e08
  110e14:	00110e08 	0x110e08
  110e18:	00110e10 	0x110e10
  110e1c:	00110e10 	0x110e10
  110e20:	00110e18 	0x110e18
  110e24:	00110e18 	0x110e18
  110e28:	00110e20 	0x110e20
  110e2c:	00110e20 	0x110e20
  110e30:	00110e28 	0x110e28
  110e34:	00110e28 	0x110e28
  110e38:	00110e30 	tge	zero,s1,0x38
  110e3c:	00110e30 	tge	zero,s1,0x38
  110e40:	00110e38 	dsll	at,s1,0x18
  110e44:	00110e38 	dsll	at,s1,0x18
  110e48:	00110e40 	sll	at,s1,0x19
  110e4c:	00110e40 	sll	at,s1,0x19
  110e50:	00110e48 	0x110e48
  110e54:	00110e48 	0x110e48
  110e58:	00110e50 	0x110e50
  110e5c:	00110e50 	0x110e50
  110e60:	00110e58 	0x110e58
  110e64:	00110e58 	0x110e58
  110e68:	00110e60 	0x110e60
  110e6c:	00110e60 	0x110e60
  110e70:	00110e68 	0x110e68
  110e74:	00110e68 	0x110e68
  110e78:	00110e70 	tge	zero,s1,0x39
  110e7c:	00110e70 	tge	zero,s1,0x39
  110e80:	00110e78 	dsll	at,s1,0x19
  110e84:	00110e78 	dsll	at,s1,0x19
  110e88:	00110e80 	sll	at,s1,0x1a
  110e8c:	00110e80 	sll	at,s1,0x1a
  110e90:	00110e88 	0x110e88
  110e94:	00110e88 	0x110e88
  110e98:	00110e90 	0x110e90
  110e9c:	00110e90 	0x110e90
  110ea0:	00110e98 	0x110e98
  110ea4:	00110e98 	0x110e98
  110ea8:	00110ea0 	0x110ea0
  110eac:	00110ea0 	0x110ea0
  110eb0:	00110ea8 	0x110ea8
  110eb4:	00110ea8 	0x110ea8
  110eb8:	00110eb0 	tge	zero,s1,0x3a
  110ebc:	00110eb0 	tge	zero,s1,0x3a
  110ec0:	00110eb8 	dsll	at,s1,0x1a
  110ec4:	00110eb8 	dsll	at,s1,0x1a
  110ec8:	00110ec0 	sll	at,s1,0x1b
  110ecc:	00110ec0 	sll	at,s1,0x1b
  110ed0:	00110ec8 	0x110ec8
  110ed4:	00110ec8 	0x110ec8
  110ed8:	00110ed0 	0x110ed0
  110edc:	00110ed0 	0x110ed0
  110ee0:	00110ed8 	0x110ed8
  110ee4:	00110ed8 	0x110ed8
  110ee8:	00110ee0 	0x110ee0
  110eec:	00110ee0 	0x110ee0
  110ef0:	00110ee8 	0x110ee8
  110ef4:	00110ee8 	0x110ee8
  110ef8:	00110ef0 	tge	zero,s1,0x3b
  110efc:	00110ef0 	tge	zero,s1,0x3b
  110f00:	00110ef8 	dsll	at,s1,0x1b
  110f04:	00110ef8 	dsll	at,s1,0x1b
  110f08:	00110f00 	sll	at,s1,0x1c
  110f0c:	00110f00 	sll	at,s1,0x1c
  110f10:	00110f08 	0x110f08
  110f14:	00110f08 	0x110f08
  110f18:	00110f10 	0x110f10
  110f1c:	00110f10 	0x110f10
  110f20:	00110f18 	0x110f18
  110f24:	00110f18 	0x110f18
  110f28:	00110f20 	0x110f20
  110f2c:	00110f20 	0x110f20
  110f30:	00110f28 	0x110f28
  110f34:	00110f28 	0x110f28
  110f38:	00110f30 	tge	zero,s1,0x3c
  110f3c:	00110f30 	tge	zero,s1,0x3c
  110f40:	00110f38 	dsll	at,s1,0x1c
  110f44:	00110f38 	dsll	at,s1,0x1c
  110f48:	00110f40 	sll	at,s1,0x1d
  110f4c:	00110f40 	sll	at,s1,0x1d
  110f50:	00110f48 	0x110f48
  110f54:	00110f48 	0x110f48
  110f58:	00110f50 	0x110f50
  110f5c:	00110f50 	0x110f50
  110f60:	00110f58 	0x110f58
  110f64:	00110f58 	0x110f58
  110f68:	00110f60 	0x110f60
  110f6c:	00110f60 	0x110f60
  110f70:	00110f68 	0x110f68
  110f74:	00110f68 	0x110f68
  110f78:	00110f70 	tge	zero,s1,0x3d
  110f7c:	00110f70 	tge	zero,s1,0x3d
  110f80:	00110f78 	dsll	at,s1,0x1d
  110f84:	00110f78 	dsll	at,s1,0x1d
  110f88:	00110f80 	sll	at,s1,0x1e
  110f8c:	00110f80 	sll	at,s1,0x1e
  110f90:	00110f88 	0x110f88
  110f94:	00110f88 	0x110f88
  110f98:	00110f90 	0x110f90
  110f9c:	00110f90 	0x110f90
  110fa0:	00110f98 	0x110f98
  110fa4:	00110f98 	0x110f98
  110fa8:	00110fa0 	0x110fa0
  110fac:	00110fa0 	0x110fa0
  110fb0:	00110fa8 	0x110fa8
  110fb4:	00110fa8 	0x110fa8
  110fb8:	00110fb0 	tge	zero,s1,0x3e
  110fbc:	00110fb0 	tge	zero,s1,0x3e
  110fc0:	00110fb8 	dsll	at,s1,0x1e
  110fc4:	00110fb8 	dsll	at,s1,0x1e
  110fc8:	00110fc0 	sll	at,s1,0x1f
  110fcc:	00110fc0 	sll	at,s1,0x1f
  110fd0:	00110fc8 	0x110fc8
  110fd4:	00110fc8 	0x110fc8
  110fd8:	00110fd0 	0x110fd0
  110fdc:	00110fd0 	0x110fd0
  110fe0:	00110fd8 	0x110fd8
  110fe4:	00110fd8 	0x110fd8
  110fe8:	00110fe0 	0x110fe0
  110fec:	00110fe0 	0x110fe0
  110ff0:	00110fe8 	0x110fe8
  110ff4:	00110fe8 	0x110fe8
  110ff8:	00110ff0 	tge	zero,s1,0x3f
  110ffc:	00110ff0 	tge	zero,s1,0x3f
  111000:	00110ff8 	dsll	at,s1,0x1f
  111004:	00110ff8 	dsll	at,s1,0x1f
  111008:	00111000 	sll	v0,s1,0x0
  11100c:	00111000 	sll	v0,s1,0x0
  111010:	00111008 	0x111008
  111014:	00111008 	0x111008
  111018:	00111010 	0x111010
  11101c:	00111010 	0x111010
  111020:	00111018 	mult	v0,zero,s1
  111024:	00111018 	mult	v0,zero,s1
  111028:	00111020 	add	v0,zero,s1
  11102c:	00111020 	add	v0,zero,s1
  111030:	00111028 	0x111028
  111034:	00111028 	0x111028
  111038:	00111030 	tge	zero,s1,0x40
  11103c:	00111030 	tge	zero,s1,0x40
  111040:	00111038 	dsll	v0,s1,0x0
  111044:	00111038 	dsll	v0,s1,0x0
  111048:	00111040 	sll	v0,s1,0x1
  11104c:	00111040 	sll	v0,s1,0x1
  111050:	00111048 	0x111048
  111054:	00111048 	0x111048
  111058:	00111050 	0x111050
  11105c:	00111050 	0x111050
  111060:	00111058 	0x111058
  111064:	00111058 	0x111058
  111068:	00111060 	0x111060
  11106c:	00111060 	0x111060
  111070:	00111068 	0x111068
  111074:	00111068 	0x111068
  111078:	00111070 	tge	zero,s1,0x41
  11107c:	00111070 	tge	zero,s1,0x41
  111080:	00111078 	dsll	v0,s1,0x1
  111084:	00111078 	dsll	v0,s1,0x1
  111088:	00111080 	sll	v0,s1,0x2
  11108c:	00111080 	sll	v0,s1,0x2
  111090:	00111088 	0x111088
  111094:	00111088 	0x111088
  111098:	00111090 	0x111090
  11109c:	00111090 	0x111090
  1110a0:	00111098 	0x111098
  1110a4:	00111098 	0x111098
  1110a8:	001110a0 	0x1110a0
  1110ac:	001110a0 	0x1110a0
  1110b0:	001110a8 	0x1110a8
  1110b4:	001110a8 	0x1110a8
  1110b8:	001110b0 	tge	zero,s1,0x42
  1110bc:	001110b0 	tge	zero,s1,0x42

001110c0 <__malloc_trim_threshold>:
  1110c0:	00020000 	sll	zero,v0,0x0
  1110c4:	00000000 	nop

001110c8 <__malloc_top_pad>:
	...

001110d0 <__malloc_sbrk_base>:
  1110d0:	ffffffff 	sd	ra,-1(ra)
  1110d4:	00000000 	nop

001110d8 <__malloc_max_sbrked_mem>:
	...

001110e0 <__malloc_max_total_mem>:
	...

001110e8 <__malloc_current_mallinfo>:
	...

00111110 <__malloc_lock_object>:
	...

00111118 <__direct_pwd>:
	...

00111218 <s_intrOverflowID>:
  111218:	ffffffff 	sd	ra,-1(ra)
  11121c:	00000000 	nop

00111220 <s_intrOverflowCount>:
	...

00111228 <_heap_ptr.0>:
  111228:	001156e0 	0x1156e0
  11122c:	00000000 	nop

00111230 <topId>:
  111230:	00000000 	nop

00111234 <topSema>:
  111234:	00000000 	nop

00111238 <topArg>:
	...

00111640 <SyscallPatchEntries>:
  111640:	0000005a 	0x5a
  111644:	0010a170 	tge	zero,s0,0x285
  111648:	0000005b 	0x5b
  11164c:	80074000 	lb	a3,16384(zero)
  111650:	ffffc402 	sd	ra,-15358(ra)
	...

00111660 <size_osdsrc>:
  111660:	000006ec 	0x6ec
	...

00111670 <osdsrc>:
  111670:	27bdffe0 	addiu	sp,sp,-32
  111674:	24050026 	li	a1,38
  111678:	ffb00000 	sd	s0,0(sp)
  11167c:	0080802d 	move	s0,a0
  111680:	3c048007 	lui	a0,0x8007
  111684:	ffbf0010 	sd	ra,16(sp)
  111688:	0c01d022 	jal	74088 <_stack_size+0x54088>
  11168c:	24844680 	addiu	a0,a0,18048
  111690:	0000282d 	move	a1,zero
  111694:	3c0603ff 	lui	a2,0x3ff
  111698:	3c028007 	lui	v0,0x8007
  11169c:	24434600 	addiu	v1,v0,17920
  1116a0:	34c6ffff 	ori	a2,a2,0xffff
  1116a4:	8c620000 	lw	v0,0(v1)
  1116a8:	24a50001 	addiu	a1,a1,1
  1116ac:	10500008 	beq	v0,s0,1116d0 <osdsrc+0x60>
  1116b0:	2ca40005 	sltiu	a0,a1,5
  1116b4:	1480fffb 	bnez	a0,1116a4 <osdsrc+0x34>
  1116b8:	24630008 	addiu	v1,v1,8
  1116bc:	0000102d 	move	v0,zero
  1116c0:	dfbf0010 	ld	ra,16(sp)
  1116c4:	dfb00000 	ld	s0,0(sp)
  1116c8:	03e00008 	jr	ra
  1116cc:	27bd0020 	addiu	sp,sp,32
  1116d0:	2402c402 	li	v0,-15358
  1116d4:	52020003 	beql	s0,v0,1116e4 <osdsrc+0x74>
  1116d8:	8c630004 	lw	v1,4(v1)
  1116dc:	1000fff8 	b	1116c0 <osdsrc+0x50>
  1116e0:	8c620004 	lw	v0,4(v1)
  1116e4:	3c020c00 	lui	v0,0xc00
  1116e8:	00031882 	srl	v1,v1,0x2
  1116ec:	00661824 	and	v1,v1,a2
  1116f0:	1000fff3 	b	1116c0 <osdsrc+0x50>
  1116f4:	00621025 	or	v0,v1,v0
  1116f8:	3c02bc00 	lui	v0,0xbc00
  1116fc:	0080382d 	move	a3,a0
  111700:	344203c0 	ori	v0,v0,0x3c0
  111704:	8c430000 	lw	v1,0(v0)
  111708:	50600010 	beqzl	v1,11174c <osdsrc+0xdc>
  11170c:	dce30000 	ld	v1,0(a3)
  111710:	3c02bc00 	lui	v0,0xbc00
  111714:	0000302d 	move	a2,zero
  111718:	3442000f 	ori	v0,v0,0xf
  11171c:	10a0000a 	beqz	a1,111748 <osdsrc+0xd8>
  111720:	00624021 	addu	t0,v1,v0
  111724:	00000000 	nop
  111728:	01061021 	addu	v0,t0,a2
  11172c:	00e62021 	addu	a0,a3,a2
  111730:	90430000 	lbu	v1,0(v0)
  111734:	24c60001 	addiu	a2,a2,1
  111738:	00c5102b 	sltu	v0,a2,a1
  11173c:	a0830000 	sb	v1,0(a0)
  111740:	1440fff9 	bnez	v0,111728 <osdsrc+0xb8>
  111744:	00000000 	nop
  111748:	dce30000 	ld	v1,0(a3)
  11174c:	000311ba 	dsrl	v0,v1,0x6
  111750:	30420007 	andi	v0,v0,0x7
  111754:	14400009 	bnez	v0,11177c <osdsrc+0x10c>
  111758:	00000000 	nop
  11175c:	3c02ffff 	lui	v0,0xffff
  111760:	344202ff 	ori	v0,v0,0x2ff
  111764:	00021438 	dsll	v0,v0,0x10
  111768:	3442ffff 	ori	v0,v0,0xffff
  11176c:	00021438 	dsll	v0,v0,0x10
  111770:	3442ffff 	ori	v0,v0,0xffff
  111774:	00621024 	and	v0,v1,v0
  111778:	fce20000 	sd	v0,0(a3)
  11177c:	03e00008 	jr	ra
  111780:	00000000 	nop
  111784:	00000000 	nop
  111788:	3c068007 	lui	a2,0x8007
  11178c:	8c850000 	lw	a1,0(a0)
  111790:	8cc34700 	lw	v1,18176(a2)
  111794:	2402fffe 	li	v0,-2
  111798:	30a50001 	andi	a1,a1,0x1
  11179c:	3c07ffff 	lui	a3,0xffff
  1117a0:	00621824 	and	v1,v1,v0
  1117a4:	34e71fff 	ori	a3,a3,0x1fff
  1117a8:	00651825 	or	v1,v1,a1
  1117ac:	2402fff9 	li	v0,-7
  1117b0:	acc34700 	sw	v1,18176(a2)
  1117b4:	2405fff7 	li	a1,-9
  1117b8:	00621824 	and	v1,v1,v0
  1117bc:	3c08ffe0 	lui	t0,0xffe0
  1117c0:	8c820000 	lw	v0,0(a0)
  1117c4:	3508ffff 	ori	t0,t0,0xffff
  1117c8:	3c09001f 	lui	t1,0x1f
  1117cc:	30420006 	andi	v0,v0,0x6
  1117d0:	3529ffff 	ori	t1,t1,0xffff
  1117d4:	00621825 	or	v1,v1,v0
  1117d8:	acc34700 	sw	v1,18176(a2)
  1117dc:	00651824 	and	v1,v1,a1
  1117e0:	2405ffef 	li	a1,-17
  1117e4:	8c820000 	lw	v0,0(a0)
  1117e8:	30420008 	andi	v0,v0,0x8
  1117ec:	00621825 	or	v1,v1,v0
  1117f0:	acc34700 	sw	v1,18176(a2)
  1117f4:	00651824 	and	v1,v1,a1
  1117f8:	2405e01f 	li	a1,-8161
  1117fc:	8c820000 	lw	v0,0(a0)
  111800:	30420010 	andi	v0,v0,0x10
  111804:	00621825 	or	v1,v1,v0
  111808:	acc34700 	sw	v1,18176(a2)
  11180c:	00651824 	and	v1,v1,a1
  111810:	8c820000 	lw	v0,0(a0)
  111814:	30421fe0 	andi	v0,v0,0x1fe0
  111818:	00621825 	or	v1,v1,v0
  11181c:	acc34700 	sw	v1,18176(a2)
  111820:	00671824 	and	v1,v1,a3
  111824:	8c820000 	lw	v0,0(a0)
  111828:	3042e000 	andi	v0,v0,0xe000
  11182c:	00621825 	or	v1,v1,v0
  111830:	acc34700 	sw	v1,18176(a2)
  111834:	00681824 	and	v1,v1,t0
  111838:	94820002 	lhu	v0,2(a0)
  11183c:	3042001f 	andi	v0,v0,0x1f
  111840:	00021400 	sll	v0,v0,0x10
  111844:	00621825 	or	v1,v1,v0
  111848:	acc34700 	sw	v1,18176(a2)
  11184c:	00691824 	and	v1,v1,t1
  111850:	8c820000 	lw	v0,0(a0)
  111854:	00021542 	srl	v0,v0,0x15
  111858:	00021540 	sll	v0,v0,0x15
  11185c:	00621825 	or	v1,v1,v0
  111860:	03e00008 	jr	ra
  111864:	acc34700 	sw	v1,18176(a2)
  111868:	3c068007 	lui	a2,0x8007
  11186c:	8c830000 	lw	v1,0(a0)
  111870:	8cc54700 	lw	a1,18176(a2)
  111874:	2402fffe 	li	v0,-2
  111878:	00621824 	and	v1,v1,v0
  11187c:	3c07ffff 	lui	a3,0xffff
  111880:	30a50001 	andi	a1,a1,0x1
  111884:	2402fff9 	li	v0,-7
  111888:	00651825 	or	v1,v1,a1
  11188c:	34e71fff 	ori	a3,a3,0x1fff
  111890:	ac830000 	sw	v1,0(a0)
  111894:	2405fff7 	li	a1,-9
  111898:	00621824 	and	v1,v1,v0
  11189c:	3c08ffe0 	lui	t0,0xffe0
  1118a0:	8cc24700 	lw	v0,18176(a2)
  1118a4:	3508ffff 	ori	t0,t0,0xffff
  1118a8:	3c09001f 	lui	t1,0x1f
  1118ac:	30420006 	andi	v0,v0,0x6
  1118b0:	3529ffff 	ori	t1,t1,0xffff
  1118b4:	00621825 	or	v1,v1,v0
  1118b8:	ac830000 	sw	v1,0(a0)
  1118bc:	00651824 	and	v1,v1,a1
  1118c0:	2405ffef 	li	a1,-17
  1118c4:	8cc24700 	lw	v0,18176(a2)
  1118c8:	30420008 	andi	v0,v0,0x8
  1118cc:	00621825 	or	v1,v1,v0
  1118d0:	ac830000 	sw	v1,0(a0)
  1118d4:	00651824 	and	v1,v1,a1
  1118d8:	2405e01f 	li	a1,-8161
  1118dc:	8cc24700 	lw	v0,18176(a2)
  1118e0:	30420010 	andi	v0,v0,0x10
  1118e4:	00621825 	or	v1,v1,v0
  1118e8:	ac830000 	sw	v1,0(a0)
  1118ec:	00651824 	and	v1,v1,a1
  1118f0:	8cc24700 	lw	v0,18176(a2)
  1118f4:	30421fe0 	andi	v0,v0,0x1fe0
  1118f8:	00621825 	or	v1,v1,v0
  1118fc:	ac830000 	sw	v1,0(a0)
  111900:	00671824 	and	v1,v1,a3
  111904:	8cc24700 	lw	v0,18176(a2)
  111908:	3042e000 	andi	v0,v0,0xe000
  11190c:	00621825 	or	v1,v1,v0
  111910:	ac830000 	sw	v1,0(a0)
  111914:	00681824 	and	v1,v1,t0
  111918:	94c24702 	lhu	v0,18178(a2)
  11191c:	3042001f 	andi	v0,v0,0x1f
  111920:	00021400 	sll	v0,v0,0x10
  111924:	00621825 	or	v1,v1,v0
  111928:	ac830000 	sw	v1,0(a0)
  11192c:	00691824 	and	v1,v1,t1
  111930:	8cc24700 	lw	v0,18176(a2)
  111934:	00021542 	srl	v0,v0,0x15
  111938:	00021540 	sll	v0,v0,0x15
  11193c:	00621825 	or	v1,v1,v0
  111940:	03e00008 	jr	ra
  111944:	ac830000 	sw	v1,0(a0)
  111948:	00c53821 	addu	a3,a2,a1
  11194c:	2ce20081 	sltiu	v0,a3,129
  111950:	14400007 	bnez	v0,111970 <osdsrc+0x300>
  111954:	0080482d 	move	t1,a0
  111958:	28c20080 	slti	v0,a2,128
  11195c:	50400014 	beqzl	v0,1119b0 <osdsrc+0x340>
  111960:	24060080 	li	a2,128
  111964:	24020080 	li	v0,128
  111968:	00461023 	subu	v0,v0,a2
  11196c:	00463821 	addu	a3,v0,a2
  111970:	00c7102b 	sltu	v0,a2,a3
  111974:	1040000c 	beqz	v0,1119a8 <osdsrc+0x338>
  111978:	0000282d 	move	a1,zero
  11197c:	3c028007 	lui	v0,0x8007
  111980:	24484708 	addiu	t0,v0,18184
  111984:	00000000 	nop
  111988:	01251021 	addu	v0,t1,a1
  11198c:	00c82021 	addu	a0,a2,t0
  111990:	90430000 	lbu	v1,0(v0)
  111994:	24c60001 	addiu	a2,a2,1
  111998:	00c7102b 	sltu	v0,a2,a3
  11199c:	24a50001 	addiu	a1,a1,1
  1119a0:	1440fff9 	bnez	v0,111988 <osdsrc+0x318>
  1119a4:	a0830000 	sb	v1,0(a0)
  1119a8:	03e00008 	jr	ra
  1119ac:	00000000 	nop
  1119b0:	1000ffee 	b	11196c <osdsrc+0x2fc>
  1119b4:	0000102d 	move	v0,zero
  1119b8:	00c53821 	addu	a3,a2,a1
  1119bc:	2ce20081 	sltiu	v0,a3,129
  1119c0:	14400006 	bnez	v0,1119dc <osdsrc+0x36c>
  1119c4:	0080482d 	move	t1,a0
  1119c8:	28c20080 	slti	v0,a2,128
  1119cc:	5040001f 	beqzl	v0,111a4c <osdsrc+0x3dc>
  1119d0:	24060080 	li	a2,128
  1119d4:	24020080 	li	v0,128
  1119d8:	00462823 	subu	a1,v0,a2
  1119dc:	00a63821 	addu	a3,a1,a2
  1119e0:	00c7102b 	sltu	v0,a2,a3
  1119e4:	1040000c 	beqz	v0,111a18 <osdsrc+0x3a8>
  1119e8:	0000282d 	move	a1,zero
  1119ec:	3c028007 	lui	v0,0x8007
  1119f0:	24484708 	addiu	t0,v0,18184
  1119f4:	00000000 	nop
  1119f8:	00c81021 	addu	v0,a2,t0
  1119fc:	01252021 	addu	a0,t1,a1
  111a00:	90430000 	lbu	v1,0(v0)
  111a04:	24c60001 	addiu	a2,a2,1
  111a08:	00c7102b 	sltu	v0,a2,a3
  111a0c:	24a50001 	addiu	a1,a1,1
  111a10:	1440fff9 	bnez	v0,1119f8 <osdsrc+0x388>
  111a14:	a0830000 	sb	v1,0(a0)
  111a18:	3c038007 	lui	v1,0x8007
  111a1c:	dc634680 	ld	v1,18048(v1)
  111a20:	000311ba 	dsrl	v0,v1,0x6
  111a24:	30420007 	andi	v0,v0,0x7
  111a28:	10400006 	beqz	v0,111a44 <osdsrc+0x3d4>
  111a2c:	00000000 	nop
  111a30:	0003133e 	dsrl32	v0,v1,0xc
  111a34:	3042000f 	andi	v0,v0,0xf
  111a38:	0002103c 	dsll32	v0,v0,0x0
  111a3c:	03e00008 	jr	ra
  111a40:	0002103f 	dsra32	v0,v0,0x0
  111a44:	03e00008 	jr	ra
  111a48:	0000102d 	move	v0,zero
  111a4c:	1000ffe3 	b	1119dc <osdsrc+0x36c>
  111a50:	0000282d 	move	a1,zero
  111a54:	00000000 	nop
  111a58:	27bdff50 	addiu	sp,sp,-176
  111a5c:	3c028007 	lui	v0,0x8007
  111a60:	ffbf00a0 	sd	ra,160(sp)
  111a64:	3c038007 	lui	v1,0x8007
  111a68:	ffbe0090 	sd	s8,144(sp)
  111a6c:	00c0f02d 	move	s8,a2
  111a70:	ffb70080 	sd	s7,128(sp)
  111a74:	00a0b82d 	move	s7,a1
  111a78:	ffb60070 	sd	s6,112(sp)
  111a7c:	0080b02d 	move	s6,a0
  111a80:	ffb50060 	sd	s5,96(sp)
  111a84:	3c158007 	lui	s5,0x8007
  111a88:	ffb40050 	sd	s4,80(sp)
  111a8c:	24140010 	li	s4,16
  111a90:	ffb30040 	sd	s3,64(sp)
  111a94:	3c138007 	lui	s3,0x8007
  111a98:	ffb10020 	sd	s1,32(sp)
  111a9c:	24110001 	li	s1,1
  111aa0:	ffb00010 	sd	s0,16(sp)
  111aa4:	ffb20030 	sd	s2,48(sp)
  111aa8:	afa70000 	sw	a3,0(sp)
  111aac:	8c4846a8 	lw	t0,18088(v0)
  111ab0:	8c6246b0 	lw	v0,18096(v1)
  111ab4:	8d120000 	lw	s2,0(t0)
  111ab8:	0040f809 	jalr	v0
  111abc:	0240202d 	move	a0,s2
  111ac0:	0000282d 	move	a1,zero
  111ac4:	3c038007 	lui	v1,0x8007
  111ac8:	8c6246b4 	lw	v0,18100(v1)
  111acc:	0040f809 	jalr	v0
  111ad0:	0240202d 	move	a0,s2
  111ad4:	3c038007 	lui	v1,0x8007
  111ad8:	8c6246c8 	lw	v0,18120(v1)
  111adc:	2450004c 	addiu	s0,v0,76
  111ae0:	8e020008 	lw	v0,8(s0)
  111ae4:	1040000b 	beqz	v0,111b14 <osdsrc+0x4a4>
  111ae8:	2610004c 	addiu	s0,s0,76
  111aec:	5232000a 	beql	s1,s2,111b18 <osdsrc+0x4a8>
  111af0:	26310001 	addiu	s1,s1,1
  111af4:	10540004 	beq	v0,s4,111b08 <osdsrc+0x498>
  111af8:	0220202d 	move	a0,s1
  111afc:	8ea246c4 	lw	v0,18116(s5)
  111b00:	0040f809 	jalr	v0
  111b04:	00000000 	nop
  111b08:	8e6246c0 	lw	v0,18112(s3)
  111b0c:	0040f809 	jalr	v0
  111b10:	0220202d 	move	a0,s1
  111b14:	26310001 	addiu	s1,s1,1
  111b18:	2a220100 	slti	v0,s1,256
  111b1c:	5440fff1 	bnezl	v0,111ae4 <osdsrc+0x474>
  111b20:	8e020008 	lw	v0,8(s0)
  111b24:	3c038007 	lui	v1,0x8007
  111b28:	8c6246bc 	lw	v0,18108(v1)
  111b2c:	0040f809 	jalr	v0
  111b30:	00000000 	nop
  111b34:	3c038007 	lui	v1,0x8007
  111b38:	8c6246b8 	lw	v0,18104(v1)
  111b3c:	0040f809 	jalr	v0
  111b40:	00000000 	nop
  111b44:	3c028007 	lui	v0,0x8007
  111b48:	8c4446ac 	lw	a0,18092(v0)
  111b4c:	3c031000 	lui	v1,0x1000
  111b50:	3463f000 	ori	v1,v1,0xf000
  111b54:	24020004 	li	v0,4
  111b58:	ac800000 	sw	zero,0(a0)
  111b5c:	0060282d 	move	a1,v1
  111b60:	ac620000 	sw	v0,0(v1)
  111b64:	8ca20000 	lw	v0,0(a1)
  111b68:	30420004 	andi	v0,v0,0x4
  111b6c:	1040fffd 	beqz	v0,111b64 <osdsrc+0x4f4>
  111b70:	00000000 	nop
  111b74:	3c021000 	lui	v0,0x1000
  111b78:	24030004 	li	v1,4
  111b7c:	3c048007 	lui	a0,0x8007
  111b80:	3442f000 	ori	v0,v0,0xf000
  111b84:	ac430000 	sw	v1,0(v0)
  111b88:	8c8246e0 	lw	v0,18144(a0)
  111b8c:	0040f809 	jalr	v0
  111b90:	00000000 	nop
  111b94:	24040001 	li	a0,1
  111b98:	3c028007 	lui	v0,0x8007
  111b9c:	24060001 	li	a2,1
  111ba0:	8c4346e4 	lw	v1,18148(v0)
  111ba4:	0060f809 	jalr	v1
  111ba8:	24050002 	li	a1,2
  111bac:	3c028007 	lui	v0,0x8007
  111bb0:	8c4346cc 	lw	v1,18124(v0)
  111bb4:	0060f809 	jalr	v1
  111bb8:	3404dffd 	li	a0,0xdffd
  111bbc:	3c028007 	lui	v0,0x8007
  111bc0:	8c4346d0 	lw	v1,18128(v0)
  111bc4:	0060f809 	jalr	v1
  111bc8:	00000000 	nop
  111bcc:	3c038007 	lui	v1,0x8007
  111bd0:	8c6246dc 	lw	v0,18140(v1)
  111bd4:	0040f809 	jalr	v0
  111bd8:	2404007f 	li	a0,127
  111bdc:	3c038007 	lui	v1,0x8007
  111be0:	8c6246d4 	lw	v0,18132(v1)
  111be4:	0040f809 	jalr	v0
  111be8:	00000000 	nop
  111bec:	3c038007 	lui	v1,0x8007
  111bf0:	8c6246d8 	lw	v0,18136(v1)
  111bf4:	0040f809 	jalr	v0
  111bf8:	00000000 	nop
  111bfc:	03c0302d 	move	a2,s8
  111c00:	3c038007 	lui	v1,0x8007
  111c04:	8fa70000 	lw	a3,0(sp)
  111c08:	8c6246e8 	lw	v0,18152(v1)
  111c0c:	02c0202d 	move	a0,s6
  111c10:	0040f809 	jalr	v0
  111c14:	02e0282d 	move	a1,s7
  111c18:	dfb00010 	ld	s0,16(sp)
  111c1c:	dfbf00a0 	ld	ra,160(sp)
  111c20:	dfbe0090 	ld	s8,144(sp)
  111c24:	dfb70080 	ld	s7,128(sp)
  111c28:	dfb60070 	ld	s6,112(sp)
  111c2c:	dfb50060 	ld	s5,96(sp)
  111c30:	dfb40050 	ld	s4,80(sp)
  111c34:	dfb30040 	ld	s3,64(sp)
  111c38:	dfb20030 	ld	s2,48(sp)
  111c3c:	dfb10020 	ld	s1,32(sp)
  111c40:	03e00008 	jr	ra
  111c44:	27bd00b0 	addiu	sp,sp,176
	...
  111c70:	0000004a 	0x4a
  111c74:	80074118 	lb	a3,16664(zero)
  111c78:	0000004b 	0x4b
  111c7c:	800741f8 	lb	a3,16888(zero)
  111c80:	0000006e 	0x6e
  111c84:	800742d8 	lb	a3,17112(zero)
  111c88:	0000006f 	0x6f
  111c8c:	80074348 	lb	a3,17224(zero)
  111c90:	ffffc402 	sd	ra,-15358(ra)
  111c94:	800743e8 	lb	a3,17384(zero)
	...
  111cf0:	00000040 	sll	zero,zero,0x1
	...
  111d18:	800125ec 	lb	at,9708(zero)
  111d1c:	800125f4 	lb	at,9716(zero)
  111d20:	80004970 	lb	zero,18800(zero)
  111d24:	80004288 	lb	zero,17032(zero)
  111d28:	800021b0 	lb	zero,8624(zero)
  111d2c:	80004e68 	lb	zero,20072(zero)
  111d30:	80003f00 	lb	zero,16128(zero)
  111d34:	80003e00 	lb	zero,15872(zero)
  111d38:	80017400 	lb	at,29696(zero)
  111d3c:	8000b8d0 	lb	zero,-18224(zero)
  111d40:	8000b900 	lb	zero,-18176(zero)
  111d44:	8000b7a8 	lb	zero,-18520(zero)
  111d48:	8000b840 	lb	zero,-18368(zero)
  111d4c:	8000ad68 	lb	zero,-21144(zero)
  111d50:	8000aa60 	lb	zero,-21920(zero)
  111d54:	8000a060 	lb	zero,-24480(zero)
  111d58:	800057e8 	lb	zero,22504(zero)
  111d5c:	00000000 	nop

00111d60 <TLBInfo>:
  111d60:	0000000d 	break
  111d64:	00000012 	mflo	zero
  111d68:	00000008 	jr	zero
  111d6c:	00000000 	nop
  111d70:	0010f9e8 	0x10f9e8
  111d74:	0010fab8 	dsll	ra,s0,0xa
  111d78:	0010fbd8 	0x10fbd8
  111d7c:	00000000 	nop

00111d80 <size_tlbsrc>:
  111d80:	00000408 	0x408
	...

00111d90 <tlbsrc>:
  111d90:	3c028007 	lui	v0,0x8007
  111d94:	0000282d 	move	a1,zero
  111d98:	24465380 	addiu	a2,v0,21376
  111d9c:	8cc20000 	lw	v0,0(a2)
  111da0:	24a50001 	addiu	a1,a1,1
  111da4:	10440005 	beq	v0,a0,111dbc <tlbsrc+0x2c>
  111da8:	2ca30006 	sltiu	v1,a1,6
  111dac:	1460fffb 	bnez	v1,111d9c <tlbsrc+0xc>
  111db0:	24c60008 	addiu	a2,a2,8
  111db4:	03e00008 	jr	ra
  111db8:	0000102d 	move	v0,zero
  111dbc:	03e00008 	jr	ra
  111dc0:	8cc20004 	lw	v0,4(a2)
  111dc4:	00000000 	nop
  111dc8:	00051e02 	srl	v1,a1,0x18
  111dcc:	24020020 	li	v0,32
  111dd0:	10620007 	beq	v1,v0,111df0 <tlbsrc+0x60>
  111dd4:	2c680021 	sltiu	t0,v1,33
  111dd8:	11000015 	beqz	t0,111e30 <tlbsrc+0xa0>
  111ddc:	24020040 	li	v0,64
  111de0:	10600003 	beqz	v1,111df0 <tlbsrc+0x60>
  111de4:	00000000 	nop
  111de8:	03e00008 	jr	ra
  111dec:	2402ffff 	li	v0,-1
  111df0:	40842800 	mtc0	a0,$5
  111df4:	00000000 	nop
  111df8:	40855000 	mtc0	a1,$10
  111dfc:	00000000 	nop
  111e00:	40861000 	mtc0	a2,$2
  111e04:	00000000 	nop
  111e08:	40871800 	mtc0	a3,$3
  111e0c:	0000040f 	sync.p
  111e10:	42000006 	tlbwr
  111e14:	0000040f 	sync.p
  111e18:	42000008 	tlbp
  111e1c:	0000040f 	sync.p
  111e20:	40020000 	mfc0	v0,$0
  111e24:	03e00008 	jr	ra
  111e28:	00000000 	nop
  111e2c:	00000000 	nop
  111e30:	1062ffef 	beq	v1,v0,111df0 <tlbsrc+0x60>
  111e34:	2c680041 	sltiu	t0,v1,65
  111e38:	1100ffeb 	beqz	t0,111de8 <tlbsrc+0x58>
  111e3c:	00000000 	nop
  111e40:	24020030 	li	v0,48
  111e44:	1462ffe8 	bne	v1,v0,111de8 <tlbsrc+0x58>
  111e48:	00000000 	nop
  111e4c:	1000ffe8 	b	111df0 <tlbsrc+0x60>
  111e50:	00000000 	nop
  111e54:	00000000 	nop
  111e58:	2c820030 	sltiu	v0,a0,48
  111e5c:	10400010 	beqz	v0,111ea0 <tlbsrc+0x110>
  111e60:	00000000 	nop
  111e64:	40840000 	mtc0	a0,$0
  111e68:	00000000 	nop
  111e6c:	40852800 	mtc0	a1,$5
  111e70:	00000000 	nop
  111e74:	40865000 	mtc0	a2,$10
  111e78:	00000000 	nop
  111e7c:	40871000 	mtc0	a3,$2
  111e80:	00000000 	nop
  111e84:	40881800 	mtc0	t0,$3
  111e88:	0000040f 	sync.p
  111e8c:	42000002 	tlbwi
  111e90:	0000040f 	sync.p
  111e94:	03e00008 	jr	ra
  111e98:	0080102d 	move	v0,a0
  111e9c:	00000000 	nop
  111ea0:	03e00008 	jr	ra
  111ea4:	2402ffff 	li	v0,-1
  111ea8:	2c820030 	sltiu	v0,a0,48
  111eac:	10400014 	beqz	v0,111f00 <tlbsrc+0x170>
  111eb0:	00000000 	nop
  111eb4:	40840000 	mtc0	a0,$0
  111eb8:	0000040f 	sync.p
  111ebc:	42000001 	tlbr
  111ec0:	0000040f 	sync.p
  111ec4:	40022800 	mfc0	v0,$5
  111ec8:	00000000 	nop
  111ecc:	aca20000 	sw	v0,0(a1)
  111ed0:	40025000 	mfc0	v0,$10
  111ed4:	00000000 	nop
  111ed8:	acc20000 	sw	v0,0(a2)
  111edc:	40021000 	mfc0	v0,$2
  111ee0:	00000000 	nop
  111ee4:	ace20000 	sw	v0,0(a3)
  111ee8:	40021800 	mfc0	v0,$3
  111eec:	00000000 	nop
  111ef0:	ad020000 	sw	v0,0(t0)
  111ef4:	03e00008 	jr	ra
  111ef8:	0080102d 	move	v0,a0
  111efc:	00000000 	nop
  111f00:	03e00008 	jr	ra
  111f04:	2402ffff 	li	v0,-1
  111f08:	40845000 	mtc0	a0,$10
  111f0c:	0000040f 	sync.p
  111f10:	42000008 	tlbp
  111f14:	0000040f 	sync.p
  111f18:	40030000 	mfc0	v1,$0
  111f1c:	00000000 	nop
  111f20:	0460000d 	bltz	v1,111f58 <tlbsrc+0x1c8>
  111f24:	2402ffff 	li	v0,-1
  111f28:	42000001 	tlbr
  111f2c:	0000040f 	sync.p
  111f30:	40022800 	mfc0	v0,$5
  111f34:	00000000 	nop
  111f38:	aca20000 	sw	v0,0(a1)
  111f3c:	40031000 	mfc0	v1,$2
  111f40:	00000000 	nop
  111f44:	acc30000 	sw	v1,0(a2)
  111f48:	40021800 	mfc0	v0,$3
  111f4c:	00000000 	nop
  111f50:	ace20000 	sw	v0,0(a3)
  111f54:	0060102d 	move	v0,v1
  111f58:	03e00008 	jr	ra
  111f5c:	00000000 	nop
  111f60:	27bdffd0 	addiu	sp,sp,-48
  111f64:	30820fff 	andi	v0,a0,0xfff
  111f68:	ffb00010 	sd	s0,16(sp)
  111f6c:	0080802d 	move	s0,a0
  111f70:	14400007 	bnez	v0,111f90 <tlbsrc+0x200>
  111f74:	ffbf0020 	sd	ra,32(sp)
  111f78:	3c02000f 	lui	v0,0xf
  111f7c:	2483ffff 	addiu	v1,a0,-1
  111f80:	3442fffe 	ori	v0,v0,0xfffe
  111f84:	0043102b 	sltu	v0,v0,v1
  111f88:	14400007 	bnez	v0,111fa8 <tlbsrc+0x218>
  111f8c:	3c047000 	lui	a0,0x7000
  111f90:	2402ffff 	li	v0,-1
  111f94:	dfbf0020 	ld	ra,32(sp)
  111f98:	dfb00010 	ld	s0,16(sp)
  111f9c:	03e00008 	jr	ra
  111fa0:	27bd0030 	addiu	sp,sp,48
  111fa4:	00000000 	nop
  111fa8:	03a0282d 	move	a1,sp
  111fac:	34844000 	ori	a0,a0,0x4000
  111fb0:	27a60004 	addiu	a2,sp,4
  111fb4:	0c01d45e 	jal	75178 <_stack_size+0x55178>
  111fb8:	27a70008 	addiu	a3,sp,8
  111fbc:	04400017 	bltz	v0,11201c <tlbsrc+0x28c>
  111fc0:	0040282d 	move	a1,v0
  111fc4:	16000031 	bnez	s0,11208c <tlbsrc+0x2fc>
  111fc8:	3c03e001 	lui	v1,0xe001
  111fcc:	2442ffff 	addiu	v0,v0,-1
  111fd0:	00021340 	sll	v0,v0,0xd
  111fd4:	00431021 	addu	v0,v0,v1
  111fd8:	40023000 	mfc0	v0,$6
  111fdc:	00000000 	nop
  111fe0:	2442ffff 	addiu	v0,v0,-1
  111fe4:	40823000 	mtc0	v0,$6
  111fe8:	00000000 	nop
  111fec:	40850000 	mtc0	a1,$0
  111ff0:	00000000 	nop
  111ff4:	40802800 	mtc0	zero,$5
  111ff8:	00000000 	nop
  111ffc:	40825000 	mtc0	v0,$10
  112000:	00000000 	nop
  112004:	40801000 	mtc0	zero,$2
  112008:	00000000 	nop
  11200c:	40801800 	mtc0	zero,$3
  112010:	0000040f 	sync.p
  112014:	42000002 	tlbwi
  112018:	0000040f 	sync.p
  11201c:	5200ffdd 	beqzl	s0,111f94 <tlbsrc+0x204>
  112020:	0000102d 	move	v0,zero
  112024:	2402f000 	li	v0,-4096
  112028:	26031000 	addiu	v1,s0,4096
  11202c:	02022024 	and	a0,s0,v0
  112030:	00621824 	and	v1,v1,v0
  112034:	00031982 	srl	v1,v1,0x6
  112038:	00042182 	srl	a0,a0,0x6
  11203c:	3463001f 	ori	v1,v1,0x1f
  112040:	3484001f 	ori	a0,a0,0x1f
  112044:	3c027000 	lui	v0,0x7000
  112048:	afa30004 	sw	v1,4(sp)
  11204c:	afa40008 	sw	a0,8(sp)
  112050:	34424000 	ori	v0,v0,0x4000
  112054:	40850000 	mtc0	a1,$0
  112058:	0000182d 	move	v1,zero
  11205c:	40832800 	mtc0	v1,$5
  112060:	00000000 	nop
  112064:	40825000 	mtc0	v0,$10
  112068:	00000000 	nop
  11206c:	40831000 	mtc0	v1,$2
  112070:	00000000 	nop
  112074:	40841800 	mtc0	a0,$3
  112078:	0000040f 	sync.p
  11207c:	42000002 	tlbwi
  112080:	0000040f 	sync.p
  112084:	1000ffc3 	b	111f94 <tlbsrc+0x204>
  112088:	00a0102d 	move	v0,a1
  11208c:	40023000 	mfc0	v0,$6
  112090:	00000000 	nop
  112094:	24420001 	addiu	v0,v0,1
  112098:	40823000 	mtc0	v0,$6
  11209c:	1000ffdf 	b	11201c <tlbsrc+0x28c>
  1120a0:	00000000 	nop
	...
  112110:	00000055 	0x55
  112114:	80075038 	lb	a3,20536(zero)
  112118:	00000056 	0x56
  11211c:	800750c8 	lb	a3,20680(zero)
  112120:	00000057 	0x57
  112124:	80075118 	lb	a3,20760(zero)
  112128:	00000058 	0x58
  11212c:	80075178 	lb	a3,20856(zero)
  112130:	00000059 	0x59
  112134:	800751d0 	lb	a3,20944(zero)
  112138:	00000003 	sra	zero,zero,0x0
  11213c:	80075400 	lb	a3,21504(zero)
	...

001121a0 <size_srcfile>:
  1121a0:	000007d0 	0x7d0
	...

001121b0 <srcfile>:
  1121b0:	3c028007 	lui	v0,0x8007
  1121b4:	0000282d 	move	a1,zero
  1121b8:	24466780 	addiu	a2,v0,26496
  1121bc:	8cc20000 	lw	v0,0(a2)
  1121c0:	24a50001 	addiu	a1,a1,1
  1121c4:	10820005 	beq	a0,v0,1121dc <srcfile+0x2c>
  1121c8:	28a30006 	slti	v1,a1,6
  1121cc:	1460fffb 	bnez	v1,1121bc <srcfile+0xc>
  1121d0:	24c60008 	addiu	a2,a2,8
  1121d4:	03e00008 	jr	ra
  1121d8:	0000102d 	move	v0,zero
  1121dc:	03e00008 	jr	ra
  1121e0:	8cc20004 	lw	v0,4(a2)
  1121e4:	00000000 	nop
  1121e8:	00a4202b 	sltu	a0,a1,a0
  1121ec:	10800003 	beqz	a0,1121fc <srcfile+0x4c>
  1121f0:	00000000 	nop
  1121f4:	3c020001 	lui	v0,0x1
  1121f8:	00a22825 	or	a1,a1,v0
  1121fc:	03e00008 	jr	ra
  112200:	00a0102d 	move	v0,a1
  112204:	00000000 	nop
  112208:	27bdff80 	addiu	sp,sp,-128
  11220c:	3c038007 	lui	v1,0x8007
  112210:	ffb30030 	sd	s3,48(sp)
  112214:	0080982d 	move	s3,a0
  112218:	ffb20020 	sd	s2,32(sp)
  11221c:	00a0902d 	move	s2,a1
  112220:	ffb10010 	sd	s1,16(sp)
  112224:	ffbf0070 	sd	ra,112(sp)
  112228:	ffb60060 	sd	s6,96(sp)
  11222c:	ffb50050 	sd	s5,80(sp)
  112230:	ffb40040 	sd	s4,64(sp)
  112234:	ffb00000 	sd	s0,0(sp)
  112238:	8c6267b0 	lw	v0,26544(v1)
  11223c:	18400012 	blez	v0,112288 <srcfile+0xd8>
  112240:	0000882d 	move	s1,zero
  112244:	3c028007 	lui	v0,0x8007
  112248:	0060a02d 	move	s4,v1
  11224c:	24426800 	addiu	v0,v0,26624
  112250:	0060a82d 	move	s5,v1
  112254:	0040b02d 	move	s6,v0
  112258:	24500002 	addiu	s0,v0,2
  11225c:	96050000 	lhu	a1,0(s0)
  112260:	0260202d 	move	a0,s3
  112264:	0c01d80e 	jal	76038 <_stack_size+0x56038>
  112268:	26100014 	addiu	s0,s0,20
  11226c:	0242102b 	sltu	v0,s2,v0
  112270:	14400010 	bnez	v0,1122b4 <srcfile+0x104>
  112274:	8e8267b0 	lw	v0,26544(s4)
  112278:	26310001 	addiu	s1,s1,1
  11227c:	0222102a 	slt	v0,s1,v0
  112280:	5440fff7 	bnezl	v0,112260 <srcfile+0xb0>
  112284:	96050000 	lhu	a1,0(s0)
  112288:	0220102d 	move	v0,s1
  11228c:	dfbf0070 	ld	ra,112(sp)
  112290:	dfb60060 	ld	s6,96(sp)
  112294:	dfb50050 	ld	s5,80(sp)
  112298:	dfb40040 	ld	s4,64(sp)
  11229c:	dfb30030 	ld	s3,48(sp)
  1122a0:	dfb20020 	ld	s2,32(sp)
  1122a4:	dfb10010 	ld	s1,16(sp)
  1122a8:	dfb00000 	ld	s0,0(sp)
  1122ac:	03e00008 	jr	ra
  1122b0:	27bd0080 	addiu	sp,sp,128
  1122b4:	8ea267b0 	lw	v0,26544(s5)
  1122b8:	2444ffff 	addiu	a0,v0,-1
  1122bc:	0091182a 	slt	v1,a0,s1
  1122c0:	1460fff1 	bnez	v1,112288 <srcfile+0xd8>
  1122c4:	24020014 	li	v0,20
  1122c8:	00822818 	mult	a1,a0,v0
  1122cc:	00b61821 	addu	v1,a1,s6
  1122d0:	2484ffff 	addiu	a0,a0,-1
  1122d4:	68660007 	ldl	a2,7(v1)
  1122d8:	6c660000 	ldr	a2,0(v1)
  1122dc:	6867000f 	ldl	a3,15(v1)
  1122e0:	6c670008 	ldr	a3,8(v1)
  1122e4:	8c620010 	lw	v0,16(v1)
  1122e8:	b066001b 	sdl	a2,27(v1)
  1122ec:	b4660014 	sdr	a2,20(v1)
  1122f0:	b0670023 	sdl	a3,35(v1)
  1122f4:	b467001c 	sdr	a3,28(v1)
  1122f8:	ac620024 	sw	v0,36(v1)
  1122fc:	0091102a 	slt	v0,a0,s1
	...
  11230c:	1040fff0 	beqz	v0,1122d0 <srcfile+0x120>
  112310:	2463ffec 	addiu	v1,v1,-20
  112314:	1000ffdd 	b	11228c <srcfile+0xdc>
  112318:	0220102d 	move	v0,s1
  11231c:	00000000 	nop
  112320:	27bdff80 	addiu	sp,sp,-128
  112324:	3c028007 	lui	v0,0x8007
  112328:	ffb60060 	sd	s6,96(sp)
  11232c:	3c03b000 	lui	v1,0xb000
  112330:	ffb50050 	sd	s5,80(sp)
  112334:	34631800 	ori	v1,v1,0x1800
  112338:	ffb40040 	sd	s4,64(sp)
  11233c:	00a0a82d 	move	s5,a1
  112340:	ffb30030 	sd	s3,48(sp)
  112344:	00c0b02d 	move	s6,a2
  112348:	ffbf0070 	sd	ra,112(sp)
  11234c:	3093ffff 	andi	s3,a0,0xffff
  112350:	ffb20020 	sd	s2,32(sp)
  112354:	ffb10010 	sd	s1,16(sp)
  112358:	ffb00000 	sd	s0,0(sp)
  11235c:	8c4767b0 	lw	a3,26544(v0)
  112360:	2402ffff 	li	v0,-1
  112364:	8c680000 	lw	t0,0(v1)
  112368:	28e70040 	slti	a3,a3,64
  11236c:	10e00026 	beqz	a3,112408 <srcfile+0x258>
  112370:	0113a021 	addu	s4,t0,s3
  112374:	3c058007 	lui	a1,0x8007
  112378:	2412ffff 	li	s2,-1
  11237c:	dca467b8 	ld	a0,26552(a1)
  112380:	0000182d 	move	v1,zero
  112384:	00641016 	dsrlv	v0,a0,v1
  112388:	30420001 	andi	v0,v0,0x1
  11238c:	10400028 	beqz	v0,112430 <srcfile+0x280>
  112390:	24020001 	li	v0,1
  112394:	24630001 	addiu	v1,v1,1
  112398:	28620040 	slti	v0,v1,64
  11239c:	1440fffa 	bnez	v0,112388 <srcfile+0x1d8>
  1123a0:	00641016 	dsrlv	v0,a0,v1
  1123a4:	06400018 	bltz	s2,112408 <srcfile+0x258>
  1123a8:	0240102d 	move	v0,s2
  1123ac:	0380882d 	move	s1,gp
  1123b0:	0100202d 	move	a0,t0
  1123b4:	0c01d816 	jal	76058 <_stack_size+0x56058>
  1123b8:	0280282d 	move	a1,s4
  1123bc:	24030014 	li	v1,20
  1123c0:	0040802d 	move	s0,v0
  1123c4:	3c068007 	lui	a2,0x8007
  1123c8:	02033818 	mult	a3,s0,v1
  1123cc:	3c058007 	lui	a1,0x8007
  1123d0:	24c46800 	addiu	a0,a2,26624
  1123d4:	8ca267b0 	lw	v0,26544(a1)
  1123d8:	24420001 	addiu	v0,v0,1
  1123dc:	00e48021 	addu	s0,a3,a0
  1123e0:	aca267b0 	sw	v0,26544(a1)
  1123e4:	a6140000 	sh	s4,0(s0)
  1123e8:	a6130002 	sh	s3,2(s0)
  1123ec:	94c46800 	lhu	a0,26624(a2)
  1123f0:	ae120004 	sw	s2,4(s0)
  1123f4:	ae110010 	sw	s1,16(s0)
  1123f8:	ae150008 	sw	s5,8(s0)
  1123fc:	0c01d926 	jal	76498 <_stack_size+0x56498>
  112400:	ae16000c 	sw	s6,12(s0)
  112404:	8e020004 	lw	v0,4(s0)
  112408:	dfbf0070 	ld	ra,112(sp)
  11240c:	dfb60060 	ld	s6,96(sp)
  112410:	dfb50050 	ld	s5,80(sp)
  112414:	dfb40040 	ld	s4,64(sp)
  112418:	dfb30030 	ld	s3,48(sp)
  11241c:	dfb20020 	ld	s2,32(sp)
  112420:	dfb10010 	ld	s1,16(sp)
  112424:	dfb00000 	ld	s0,0(sp)
  112428:	03e00008 	jr	ra
  11242c:	27bd0080 	addiu	sp,sp,128
  112430:	0060902d 	move	s2,v1
  112434:	00621004 	sllv	v0,v0,v1
  112438:	00441825 	or	v1,v0,a0
  11243c:	1000ffd9 	b	1123a4 <srcfile+0x1f4>
  112440:	fca367b8 	sd	v1,26552(a1)
  112444:	00000000 	nop
  112448:	27bdff60 	addiu	sp,sp,-160
  11244c:	3c058007 	lui	a1,0x8007
  112450:	ffb30030 	sd	s3,48(sp)
  112454:	0080982d 	move	s3,a0
  112458:	ffb00000 	sd	s0,0(sp)
  11245c:	2404ffff 	li	a0,-1
  112460:	ffbf0090 	sd	ra,144(sp)
  112464:	ffbe0080 	sd	s8,128(sp)
  112468:	ffb70070 	sd	s7,112(sp)
  11246c:	ffb60060 	sd	s6,96(sp)
  112470:	ffb50050 	sd	s5,80(sp)
  112474:	ffb40040 	sd	s4,64(sp)
  112478:	ffb20020 	sd	s2,32(sp)
  11247c:	ffb10010 	sd	s1,16(sp)
  112480:	8ca267b0 	lw	v0,26544(a1)
  112484:	18400017 	blez	v0,1124e4 <srcfile+0x334>
  112488:	0000802d 	move	s0,zero
  11248c:	24030001 	li	v1,1
  112490:	3c028007 	lui	v0,0x8007
  112494:	02631804 	sllv	v1,v1,s3
  112498:	3c1eb000 	lui	s8,0xb000
  11249c:	3c15b000 	lui	s5,0xb000
  1124a0:	24546800 	addiu	s4,v0,26624
  1124a4:	0003b027 	nor	s6,zero,v1
  1124a8:	3c178007 	lui	s7,0x8007
  1124ac:	37de1810 	ori	s8,s8,0x1810
  1124b0:	36b51800 	ori	s5,s5,0x1800
  1124b4:	24020014 	li	v0,20
  1124b8:	02021818 	mult	v1,s0,v0
  1124bc:	00742821 	addu	a1,v1,s4
  1124c0:	8ca30004 	lw	v1,4(a1)
  1124c4:	10730016 	beq	v1,s3,112520 <srcfile+0x370>
  1124c8:	3c02b000 	lui	v0,0xb000
  1124cc:	3c038007 	lui	v1,0x8007
  1124d0:	26100001 	addiu	s0,s0,1
  1124d4:	8c6267b0 	lw	v0,26544(v1)
  1124d8:	0202102a 	slt	v0,s0,v0
  1124dc:	1440fff6 	bnez	v0,1124b8 <srcfile+0x308>
  1124e0:	24020014 	li	v0,20
  1124e4:	0000000f 	sync
  1124e8:	dfbf0090 	ld	ra,144(sp)
  1124ec:	0080102d 	move	v0,a0
  1124f0:	dfbe0080 	ld	s8,128(sp)
  1124f4:	dfb70070 	ld	s7,112(sp)
  1124f8:	dfb60060 	ld	s6,96(sp)
  1124fc:	dfb50050 	ld	s5,80(sp)
  112500:	dfb40040 	ld	s4,64(sp)
  112504:	dfb30030 	ld	s3,48(sp)
  112508:	dfb20020 	ld	s2,32(sp)
  11250c:	dfb10010 	ld	s1,16(sp)
  112510:	dfb00000 	ld	s0,0(sp)
  112514:	03e00008 	jr	ra
  112518:	27bd00a0 	addiu	sp,sp,160
  11251c:	00000000 	nop
  112520:	94a40000 	lhu	a0,0(a1)
  112524:	34421820 	ori	v0,v0,0x1820
  112528:	8c430000 	lw	v1,0(v0)
  11252c:	10830035 	beq	a0,v1,112604 <srcfile+0x454>
  112530:	3c031000 	lui	v1,0x1000
  112534:	24020014 	li	v0,20
  112538:	3c048007 	lui	a0,0x8007
  11253c:	02022818 	mult	a1,s0,v0
  112540:	8c8367b0 	lw	v1,26544(a0)
  112544:	3c068007 	lui	a2,0x8007
  112548:	2463ffff 	addiu	v1,v1,-1
  11254c:	24c66800 	addiu	a2,a2,26624
  112550:	0203202a 	slt	a0,s0,v1
  112554:	00a61021 	addu	v0,a1,a2
  112558:	10800014 	beqz	a0,1125ac <srcfile+0x3fc>
  11255c:	94520002 	lhu	s2,2(v0)
  112560:	00701823 	subu	v1,v1,s0
  112564:	00000000 	nop
  112568:	2463ffff 	addiu	v1,v1,-1
  11256c:	6844001b 	ldl	a0,27(v0)
  112570:	6c440014 	ldr	a0,20(v0)
  112574:	68450023 	ldl	a1,35(v0)
  112578:	6c45001c 	ldr	a1,28(v0)
  11257c:	8c460024 	lw	a2,36(v0)
  112580:	b0440007 	sdl	a0,7(v0)
  112584:	b4440000 	sdr	a0,0(v0)
  112588:	b045000f 	sdl	a1,15(v0)
  11258c:	b4450008 	sdr	a1,8(v0)
  112590:	ac460010 	sw	a2,16(v0)
	...
  1125a4:	1460fff0 	bnez	v1,112568 <srcfile+0x3b8>
  1125a8:	24420014 	addiu	v0,v0,20
  1125ac:	3c118007 	lui	s1,0x8007
  1125b0:	dee267b8 	ld	v0,26552(s7)
  1125b4:	8e2367b0 	lw	v1,26544(s1)
  1125b8:	02c21024 	and	v0,s6,v0
  1125bc:	2463ffff 	addiu	v1,v1,-1
  1125c0:	fee267b8 	sd	v0,26552(s7)
  1125c4:	1200000a 	beqz	s0,1125f0 <srcfile+0x440>
  1125c8:	ae2367b0 	sw	v1,26544(s1)
  1125cc:	8e2267b0 	lw	v0,26544(s1)
  1125d0:	14400002 	bnez	v0,1125dc <srcfile+0x42c>
  1125d4:	24020083 	li	v0,131
  1125d8:	afc20000 	sw	v0,0(s8)
  1125dc:	8ea50000 	lw	a1,0(s5)
  1125e0:	0c01d80e 	jal	76038 <_stack_size+0x56038>
  1125e4:	0240202d 	move	a0,s2
  1125e8:	1000ffb8 	b	1124cc <srcfile+0x31c>
  1125ec:	00522023 	subu	a0,v0,s2
  1125f0:	3c028007 	lui	v0,0x8007
  1125f4:	0c01d926 	jal	76498 <_stack_size+0x56498>
  1125f8:	94446800 	lhu	a0,26624(v0)
  1125fc:	1000fff4 	b	1125d0 <srcfile+0x420>
  112600:	8e2267b0 	lw	v0,26544(s1)
  112604:	2404ffff 	li	a0,-1
  112608:	3463f000 	ori	v1,v1,0xf000
  11260c:	8c620000 	lw	v0,0(v1)
  112610:	30421000 	andi	v0,v0,0x1000
  112614:	1040ffc8 	beqz	v0,112538 <srcfile+0x388>
  112618:	24020014 	li	v0,20
  11261c:	1000ffb3 	b	1124ec <srcfile+0x33c>
  112620:	dfbf0090 	ld	ra,144(sp)
  112624:	00000000 	nop
  112628:	27bdfff0 	addiu	sp,sp,-16
  11262c:	ffbf0000 	sd	ra,0(sp)
  112630:	0c01d85c 	jal	76170 <_stack_size+0x56170>
  112634:	3084ffff 	andi	a0,a0,0xffff
  112638:	0000000f 	sync
  11263c:	dfbf0000 	ld	ra,0(sp)
  112640:	03e00008 	jr	ra
  112644:	27bd0010 	addiu	sp,sp,16
  112648:	3c02b000 	lui	v0,0xb000
  11264c:	3084ffff 	andi	a0,a0,0xffff
  112650:	34421820 	ori	v0,v0,0x1820
  112654:	ac440000 	sw	a0,0(v0)
  112658:	0000000f 	sync
  11265c:	3c02b000 	lui	v0,0xb000
  112660:	24030583 	li	v1,1411
  112664:	34421810 	ori	v0,v0,0x1810
  112668:	03e00008 	jr	ra
  11266c:	ac430000 	sw	v1,0(v0)
  112670:	27bdff50 	addiu	sp,sp,-176
  112674:	3c028007 	lui	v0,0x8007
  112678:	ffbf00a0 	sd	ra,160(sp)
  11267c:	ffb70090 	sd	s7,144(sp)
  112680:	ffb60080 	sd	s6,128(sp)
  112684:	ffb50070 	sd	s5,112(sp)
  112688:	ffb40060 	sd	s4,96(sp)
  11268c:	ffb30050 	sd	s3,80(sp)
  112690:	ffb20040 	sd	s2,64(sp)
  112694:	ffb10030 	sd	s1,48(sp)
  112698:	ffb00020 	sd	s0,32(sp)
  11269c:	8c4467b0 	lw	a0,26544(v0)
  1126a0:	1880000c 	blez	a0,1126d4 <srcfile+0x524>
  1126a4:	0000182d 	move	v1,zero
  1126a8:	3c028007 	lui	v0,0x8007
  1126ac:	0080382d 	move	a3,a0
  1126b0:	94466800 	lhu	a2,26624(v0)
  1126b4:	24426800 	addiu	v0,v0,26624
  1126b8:	94440000 	lhu	a0,0(v0)
  1126bc:	24630001 	addiu	v1,v1,1
  1126c0:	0067282a 	slt	a1,v1,a3
  1126c4:	14860058 	bne	a0,a2,112828 <srcfile+0x678>
  1126c8:	24420014 	addiu	v0,v0,20
  1126cc:	54a0fffb 	bnezl	a1,1126bc <srcfile+0x50c>
  1126d0:	94440000 	lhu	a0,0(v0)
  1126d4:	3c148007 	lui	s4,0x8007
  1126d8:	3c118007 	lui	s1,0x8007
  1126dc:	0280b82d 	move	s7,s4
  1126e0:	3c128007 	lui	s2,0x8007
  1126e4:	24160001 	li	s6,1
  1126e8:	0220982d 	move	s3,s1
  1126ec:	0280a82d 	move	s5,s4
  1126f0:	26826800 	addiu	v0,s4,26624
  1126f4:	8e2367b0 	lw	v1,26544(s1)
  1126f8:	68440007 	ldl	a0,7(v0)
  1126fc:	6c440000 	ldr	a0,0(v0)
  112700:	6845000f 	ldl	a1,15(v0)
  112704:	6c450008 	ldr	a1,8(v0)
  112708:	8c460010 	lw	a2,16(v0)
  11270c:	b3a40007 	sdl	a0,7(sp)
  112710:	b7a40000 	sdr	a0,0(sp)
  112714:	b3a5000f 	sdl	a1,15(sp)
  112718:	b7a50008 	sdr	a1,8(sp)
  11271c:	afa60010 	sw	a2,16(sp)
  112720:	2462ffff 	addiu	v0,v1,-1
  112724:	18400015 	blez	v0,11277c <srcfile+0x5cc>
  112728:	ae2267b0 	sw	v0,26544(s1)
  11272c:	0040182d 	move	v1,v0
  112730:	26e26800 	addiu	v0,s7,26624
  112734:	00000000 	nop
  112738:	2463ffff 	addiu	v1,v1,-1
  11273c:	6844001b 	ldl	a0,27(v0)
  112740:	6c440014 	ldr	a0,20(v0)
  112744:	68450023 	ldl	a1,35(v0)
  112748:	6c45001c 	ldr	a1,28(v0)
  11274c:	8c460024 	lw	a2,36(v0)
  112750:	b0440007 	sdl	a0,7(v0)
  112754:	b4440000 	sdr	a0,0(v0)
  112758:	b045000f 	sdl	a1,15(v0)
  11275c:	b4450008 	sdr	a1,8(v0)
  112760:	ac460010 	sw	a2,16(v0)
	...
  112774:	1460fff0 	bnez	v1,112738 <srcfile+0x588>
  112778:	24420014 	addiu	v0,v0,20
  11277c:	8fa20010 	lw	v0,16(sp)
  112780:	0380802d 	move	s0,gp
  112784:	0040e02d 	move	gp,v0
  112788:	8fa60004 	lw	a2,4(sp)
  11278c:	3c040008 	lui	a0,0x8
  112790:	de4367b8 	ld	v1,26552(s2)
  112794:	34842000 	ori	a0,a0,0x2000
  112798:	00d61004 	sllv	v0,s6,a2
  11279c:	97a70000 	lhu	a3,0(sp)
  1127a0:	00024827 	nor	t1,zero,v0
  1127a4:	8fa50008 	lw	a1,8(sp)
  1127a8:	8fa8000c 	lw	t0,12(sp)
  1127ac:	00691824 	and	v1,v1,t1
  1127b0:	0c01d9a2 	jal	76688 <_stack_size+0x56688>
  1127b4:	fe4367b8 	sd	v1,26552(s2)
  1127b8:	0200e02d 	move	gp,s0
  1127bc:	8e6267b0 	lw	v0,26544(s3)
  1127c0:	18400014 	blez	v0,112814 <srcfile+0x664>
  1127c4:	96a36800 	lhu	v1,26624(s5)
  1127c8:	97a20000 	lhu	v0,0(sp)
  1127cc:	1062ffc9 	beq	v1,v0,1126f4 <srcfile+0x544>
  1127d0:	26826800 	addiu	v0,s4,26624
  1127d4:	3c028007 	lui	v0,0x8007
  1127d8:	0c01d926 	jal	76498 <_stack_size+0x56498>
  1127dc:	94446800 	lhu	a0,26624(v0)
  1127e0:	0000000f 	sync
  1127e4:	42000038 	ei
  1127e8:	dfbf00a0 	ld	ra,160(sp)
  1127ec:	dfb70090 	ld	s7,144(sp)
  1127f0:	dfb60080 	ld	s6,128(sp)
  1127f4:	dfb50070 	ld	s5,112(sp)
  1127f8:	dfb40060 	ld	s4,96(sp)
  1127fc:	dfb30050 	ld	s3,80(sp)
  112800:	dfb20040 	ld	s2,64(sp)
  112804:	dfb10030 	ld	s1,48(sp)
  112808:	dfb00020 	ld	s0,32(sp)
  11280c:	03e00008 	jr	ra
  112810:	27bd00b0 	addiu	sp,sp,176
  112814:	3c02b000 	lui	v0,0xb000
  112818:	24030483 	li	v1,1155
  11281c:	34421810 	ori	v0,v0,0x1810
  112820:	1000ffef 	b	1127e0 <srcfile+0x630>
  112824:	ac430000 	sw	v1,0(v0)
  112828:	0c01d926 	jal	76498 <_stack_size+0x56498>
  11282c:	3c148007 	lui	s4,0x8007
  112830:	1000ffaa 	b	1126dc <srcfile+0x52c>
  112834:	3c118007 	lui	s1,0x8007
  112838:	3c1a8007 	lui	k0,0x8007
  11283c:	af5f67c0 	sw	ra,26560(k0)
  112840:	3c1a8007 	lui	k0,0x8007
  112844:	af5d67c8 	sw	sp,26568(k0)
  112848:	40847000 	mtc0	a0,$14
  11284c:	0000040f 	sync.p
  112850:	0005182d 	daddu	v1,zero,a1
  112854:	0006202d 	daddu	a0,zero,a2
  112858:	0007282d 	daddu	a1,zero,a3
  11285c:	0008302d 	daddu	a2,zero,t0
  112860:	401a6000 	mfc0	k0,$12
  112864:	375a0012 	ori	k0,k0,0x12
  112868:	409a6000 	mtc0	k0,$12
  11286c:	0000040f 	sync.p
  112870:	42000018 	eret
  112874:	40016000 	mfc0	at,$12
  112878:	241affe4 	li	k0,-28
  11287c:	003a0824 	and	at,at,k0
  112880:	40816000 	mtc0	at,$12
  112884:	0000040f 	sync.p
  112888:	3c1a8007 	lui	k0,0x8007
  11288c:	8f5f67c0 	lw	ra,26560(k0)
  112890:	3c1a8007 	lui	k0,0x8007
  112894:	03e00008 	jr	ra
  112898:	8f5d67c8 	lw	sp,26568(k0)
	...
  112930:	000000fc 	dsll32	zero,zero,0x3
  112934:	80076478 	lb	a3,25720(zero)
  112938:	000000fd 	0xfd
  11293c:	80076478 	lb	a3,25720(zero)
  112940:	000000fe 	dsrl32	zero,zero,0x3
  112944:	80076298 	lb	a3,25240(zero)
  112948:	000000ff 	dsra32	zero,zero,0x3
  11294c:	80076298 	lb	a3,25240(zero)
  112950:	0000012c 	0x12c
  112954:	800764c0 	lb	a3,25792(zero)
  112958:	00000008 	jr	zero
  11295c:	800766c4 	lb	a3,26308(zero)
	...

00112980 <size_eenull>:
  112980:	00000028 	mfsa	zero
	...

00112990 <eenull>:
  112990:	3c1d0008 	lui	sp,0x8
  112994:	0060f809 	jalr	v1
  112998:	27bd1fc0 	addiu	sp,sp,8128
  11299c:	2403fff8 	li	v1,-8
  1129a0:	0000000c 	syscall
	...

001129c0 <_sif_rpc_data>:
  1129c0:	00000001 	0x1
  1129c4:	00112f80 	sll	a1,s1,0x1e
  1129c8:	00000020 	add	zero,zero,zero
	...
  1129d4:	00113780 	sll	a2,s1,0x1e
  1129d8:	00000020 	add	zero,zero,zero
  1129dc:	00113f80 	sll	a3,s1,0x1e
  1129e0:	00000020 	add	zero,zero,zero
	...

001129ec <init>:
  1129ec:	00000000 	nop

001129f0 <_rb_count.0>:
	...

001129f8 <_fio_init>:
  1129f8:	00000000 	nop

001129fc <_fio_io_sema>:
  1129fc:	ffffffff 	sd	ra,-1(ra)

00112a00 <_fio_completion_sema>:
  112a00:	ffffffff 	sd	ra,-1(ra)

00112a04 <_rb_count.0>:
  112a04:	00000000 	nop

00112a08 <_iop_reboot_count>:
  112a08:	00000000 	nop

00112a0c <init>:
  112a0c:	00000000 	nop

00112a10 <sif0_id>:
  112a10:	ffffffff 	sd	ra,-1(ra)

00112a14 <_rb_count.1>:
  112a14:	00000000 	nop

00112a18 <__tz_lock_object>:
	...

00112a20 <_tzname>:
  112a20:	0010fd68 	0x10fd68
  112a24:	0010fd68 	0x10fd68

00112a28 <_daylight>:
	...

00112a30 <_timezone>:
	...

00112a38 <tzinfo>:
  112a38:	00000001 	0x1
  112a3c:	00000000 	nop
  112a40:	0000004a 	0x4a
	...
  112a68:	0000004a 	0x4a
	...

00112a90 <_GLOBAL__F___divdi3>:
  112a90:	0000000c 	syscall
  112a94:	00000000 	nop
  112a98:	04010001 	b	112aa0 <$LECIE1>
  112a9c:	001d0c40 	sll	at,sp,0x11

00112aa0 <$LECIE1>:
  112aa0:	00000024 	and	zero,zero,zero

00112aa4 <$LASFDE1>:
  112aa4:	00000014 	dsllv	zero,zero,zero
  112aa8:	0010cad8 	0x10cad8
  112aac:	0000014c 	syscall	0x5
  112ab0:	00004404 	0x4404
  112ab4:	04300e00 	bltzal	at,1162b8 <_end+0xbd8>
  112ab8:	00000054 	0x54
  112abc:	11781111 	beq	t3,t8,116f04 <_end+0x1824>
  112ac0:	10117c40 	beq	zero,s1,131bc4 <_gp+0x16f94>
  112ac4:	00000074 	teq	zero,zero,0x1

00112ac8 <$LEFDE1>:
  112ac8:	0000001c 	dmult	zero,zero

00112acc <$LASFDE3>:
  112acc:	0000003c 	dsll32	zero,zero,0x0
  112ad0:	0010cc28 	0x10cc28
  112ad4:	000006a4 	0x6a4
  112ad8:	00000404 	0x404
  112adc:	04100e00 	bltzal	zero,1162e0 <_end+0xc00>
  112ae0:	00000020 	add	zero,zero,zero
  112ae4:	007c1011 	0x7c1011

00112ae8 <$LEFDE3>:
  112ae8:	00000000 	nop

00112aec <_GLOBAL__F___moddi3>:
  112aec:	0000000c 	syscall
  112af0:	00000000 	nop
  112af4:	04010001 	b	112afc <$LECIE1>
  112af8:	001d0c40 	sll	at,sp,0x11

00112afc <$LECIE1>:
  112afc:	00000024 	and	zero,zero,zero

00112b00 <$LASFDE1>:
  112b00:	00000014 	dsllv	zero,zero,zero
  112b04:	0010d2d0 	0x10d2d0
  112b08:	0000014c 	syscall	0x5
  112b0c:	00004404 	0x4404
  112b10:	04400e00 	bltz	v0,116314 <_end+0xc34>
  112b14:	00000054 	0x54
  112b18:	11741011 	beq	t3,s4,116b60 <_end+0x1480>
  112b1c:	11117c40 	beq	t0,s1,131c20 <_gp+0x16ff0>
  112b20:	00000078 	dsll	zero,zero,0x1

00112b24 <$LEFDE1>:
  112b24:	0000001c 	dmult	zero,zero

00112b28 <$LASFDE3>:
  112b28:	0000003c 	dsll32	zero,zero,0x0
  112b2c:	0010d420 	0x10d420
  112b30:	000006a4 	0x6a4
  112b34:	00000404 	0x404
  112b38:	04100e00 	bltzal	zero,11633c <_end+0xc5c>
  112b3c:	00000020 	add	zero,zero,zero
  112b40:	007c1011 	0x7c1011

00112b44 <$LEFDE3>:
  112b44:	00000000 	nop

00112b48 <_GLOBAL__F___udivdi3>:
  112b48:	0000000c 	syscall
  112b4c:	00000000 	nop
  112b50:	04010001 	b	112b58 <$LECIE1>
  112b54:	001d0c40 	sll	at,sp,0x11

00112b58 <$LECIE1>:
  112b58:	0000001c 	dmult	zero,zero

00112b5c <$LASFDE1>:
  112b5c:	00000014 	dsllv	zero,zero,zero
  112b60:	0010dac8 	0x10dac8
  112b64:	0000001c 	dmult	zero,zero
  112b68:	00000404 	0x404
  112b6c:	04100e00 	bltzal	zero,116370 <_end+0xc90>
  112b70:	00000004 	sllv	zero,zero,zero
  112b74:	007c4011 	0x7c4011

00112b78 <$LEFDE1>:
  112b78:	0000001c 	dmult	zero,zero

00112b7c <$LASFDE3>:
  112b7c:	00000034 	teq	zero,zero
  112b80:	0010dae8 	0x10dae8
  112b84:	000006a4 	0x6a4
  112b88:	00000404 	0x404
  112b8c:	04100e00 	bltzal	zero,116390 <_end+0xcb0>
  112b90:	00000020 	add	zero,zero,zero
  112b94:	007c1011 	0x7c1011

00112b98 <$LEFDE3>:
  112b98:	00000000 	nop

00112b9c <_GLOBAL__F___umoddi3>:
  112b9c:	0000000c 	syscall
  112ba0:	00000000 	nop
  112ba4:	04010001 	b	112bac <$LECIE1>
  112ba8:	001d0c40 	sll	at,sp,0x11

00112bac <$LECIE1>:
  112bac:	0000001c 	dmult	zero,zero

00112bb0 <$LASFDE1>:
  112bb0:	00000014 	dsllv	zero,zero,zero
  112bb4:	0010e190 	0x10e190
  112bb8:	00000020 	add	zero,zero,zero
  112bbc:	00000404 	0x404
  112bc0:	04200e00 	bltz	at,1163c4 <_end+0xce4>
  112bc4:	00000004 	sllv	zero,zero,zero
  112bc8:	007c4011 	0x7c4011

00112bcc <$LEFDE1>:
  112bcc:	0000001c 	dmult	zero,zero

00112bd0 <$LASFDE3>:
  112bd0:	00000034 	teq	zero,zero
  112bd4:	0010e1b0 	tge	zero,s0,0x386
  112bd8:	000006a4 	0x6a4
  112bdc:	00000404 	0x404
  112be0:	04100e00 	bltzal	zero,1163e4 <_end+0xd04>
  112be4:	00000020 	add	zero,zero,zero
  112be8:	007c1011 	0x7c1011

00112bec <$LEFDE3>:
  112bec:	00000000 	nop
Disassembly of section data:

00112bf0 <_ps2sdk_close>:
  112bf0:	00108fc8 	0x108fc8

00112bf4 <_ps2sdk_open>:
  112bf4:	00108ed0 	0x108ed0

00112bf8 <_ps2sdk_read>:
  112bf8:	00109078 	dsll	s2,s0,0x1

00112bfc <_ps2sdk_lseek>:
  112bfc:	001092f0 	tge	zero,s0,0x24b

00112c00 <_ps2sdk_write>:
  112c00:	001091a8 	0x1091a8

00112c04 <_ps2sdk_remove>:
  112c04:	00109858 	0x109858

00112c08 <_ps2sdk_rename>:
  112c08:	00108258 	0x108258

00112c0c <_ps2sdk_mkdir>:
  112c0c:	00108260 	0x108260

00112c10 <_ps2sdk_rmdir>:
  112c10:	00108280 	sll	s0,s0,0xa

00112c14 <_ps2sdk_stat>:
  112c14:	00108348 	0x108348

00112c18 <_ps2sdk_opendir>:
  112c18:	00108400 	sll	s0,s0,0x10

00112c1c <_ps2sdk_readdir>:
  112c1c:	00108468 	0x108468

00112c20 <_ps2sdk_rewinddir>:
  112c20:	001084d0 	0x1084d0

00112c24 <_ps2sdk_closedir>:
  112c24:	001084f0 	tge	zero,s0,0x213
Disassembly of section .ctors:

00112c28 <__CTOR_LIST__>:
  112c28:	ffffffff 	sd	ra,-1(ra)

00112c2c <__CTOR_END__>:
  112c2c:	00000000 	nop
Disassembly of section .dtors:

00112c30 <__DTOR_LIST__>:
  112c30:	ffffffff 	sd	ra,-1(ra)

00112c34 <__DTOR_END__>:
  112c34:	00000000 	nop
Disassembly of section .jcr:

00112c38 <__JCR_END__>:
  112c38:	00000000 	nop
Disassembly of section .sdata:

00112c40 <dum1-0x20>:
  112c40:	253d3169 	addiu	sp,t1,12649
  112c44:	00000a64 	0xa64
  112c48:	253d3269 	addiu	sp,t1,12905
  112c4c:	00000a64 	0xa64
  112c50:	253d3369 	addiu	sp,t1,13161
  112c54:	00000a64 	0xa64
  112c58:	253d3469 	addiu	sp,t1,13417
  112c5c:	00000a64 	0xa64

00112c60 <dum1>:
  112c60:	00000001 	0x1

00112c64 <dum2>:
  112c64:	00000002 	srl	zero,zero,0x0

00112c68 <dum3>:
  112c68:	00000003 	sra	zero,zero,0x0

00112c6c <dum4>:
  112c6c:	00000004 	sllv	zero,zero,zero

00112c70 <dum5>:
  112c70:	00000005 	0x5

00112c74 <i1>:
  112c74:	00000457 	0x457

00112c78 <i2>:
  112c78:	000008ae 	0x8ae

00112c7c <i3>:
  112c7c:	00000d05 	0xd05

00112c80 <i4>:
  112c80:	0000115c 	0x115c
  112c84:	00000000 	nop
